///////////////////////////////////////////////////////////////////////////////
//
// IAR C/C++ Compiler V10.30.1.6000 for 8051              10/Dec/2023  14:04:38
// Copyright 2004-2018 IAR Systems AB.
// PC-locked license - IAR Embedded Workbench for 8051
//
//    Core               =  plain
//    Code model         =  banked
//    Data model         =  large
//    Calling convention =  xdata reentrant
//    Constant location  =  data_rom
//    Dptr setup         =  1,16
//                          
//    Source file        =  
//        C:\Texas Instruments\Z-Stack
//        3.0.2\Projects\zstack\HomeAutomation\4-Switch-PowerSaving-firmware\Source\battery_reporting.c
//    Command line       =  
//        -f C:\Users\Flemming\AppData\Local\Temp\EWB65.tmp ("C:\Texas
//        Instruments\Z-Stack
//        3.0.2\Projects\zstack\HomeAutomation\4-Switch-PowerSaving-firmware\Source\battery_reporting.c"
//        -D SECURE=1 -D TC_LINKKEY_JOIN -D NV_INIT -D NV_RESTORE -D
//        POWER_SAVING -D NWK_AUTO_POLL -D xZTOOL_P1 -D xMT_TASK -D
//        xMT_APP_FUNC -D xMT_SYS_FUNC -D xMT_ZDO_FUNC -D xMT_ZDO_MGMT -D
//        xMT_APP_CNF_FUNC -D xLEGACY_LCD_DEBUG -D xLCD_SUPPORTED=DEBUG -D
//        MULTICAST_ENABLED=FALSE -D ZCL_READ -D ZCL_WRITE -D ZCL_BASIC -D
//        ZCL_IDENTIFY -D xZCL_SCENES -D xZCL_GROUPS -D ZCL_ON_OFF -D
//        xZCL_DISCOVER -D ZCL_REPORTING_DEVICE -D ISR_KEYINTERRUPT -D
//        HAL_LCD=FALSE -D HAL_UARTE=FALSE -D HAL_SPI=FALSE -D HAL_HID=FALSE
//        -lC "C:\Texas Instruments\Z-Stack
//        3.0.2\Projects\zstack\HomeAutomation\4-Switch-PowerSaving-firmware\CC2530DB\EndDeviceEB\List"
//        -lA "C:\Texas Instruments\Z-Stack
//        3.0.2\Projects\zstack\HomeAutomation\4-Switch-PowerSaving-firmware\CC2530DB\EndDeviceEB\List"
//        --diag_suppress Pe001,Pa010 -o "C:\Texas Instruments\Z-Stack
//        3.0.2\Projects\zstack\HomeAutomation\4-Switch-PowerSaving-firmware\CC2530DB\EndDeviceEB\Obj"
//        -e --debug --core=plain --dptr=16,1 --data_model=large
//        --code_model=banked --calling_convention=xdata_reentrant
//        --place_constants=data_rom --nr_virtual_regs 16 -f "C:\Texas
//        Instruments\Z-Stack
//        3.0.2\Projects\zstack\HomeAutomation\4-Switch-PowerSaving-firmware\CC2530DB\..\..\..\Tools\CC2530DB\f8wEndev.cfg"
//        (-DCPU32MHZ -DROOT=__near_func -DMAC_CFG_TX_DATA_MAX=3
//        -DMAC_CFG_TX_MAX=6 -DMAC_CFG_RX_MAX=3) -f "C:\Texas
//        Instruments\Z-Stack
//        3.0.2\Projects\zstack\HomeAutomation\4-Switch-PowerSaving-firmware\CC2530DB\..\..\..\Tools\CC2530DB\f8wConfig.cfg"
//        (-DZIGBEEPRO -DSECURE=1 -DZG_SECURE_DYNAMIC=0 -DREFLECTOR
//        -DDEFAULT_CHANLIST=0x00000800 -DZDAPP_CONFIG_PAN_ID=0xFFFF
//        -DNWK_START_DELAY=100 -DEXTENDED_JOINING_RANDOM_MASK=0x007F
//        -DBEACON_REQUEST_DELAY=100 -DBEACON_REQ_DELAY_MASK=0x00FF
//        -DLINK_STATUS_JITTER_MASK=0x007F -DROUTE_EXPIRY_TIME=30
//        -DAPSC_ACK_WAIT_DURATION_POLLED=3000 -DNWK_INDIRECT_MSG_TIMEOUT=7
//        -DMAX_RREQ_ENTRIES=8 -DAPSC_MAX_FRAME_RETRIES=3
//        -DNWK_MAX_DATA_RETRIES=2 -DMAX_POLL_FAILURE_RETRIES=2 -DMAX_BCAST=9
//        -DAPS_MAX_GROUPS=16 -DMAX_RTG_ENTRIES=40 -DNWK_MAX_BINDING_ENTRIES=4
//        -DMAX_BINDING_CLUSTER_IDS=4 -DDEFAULT_KEY={0}
//        -DMAC_MAX_FRAME_SIZE=116 -DZDNWKMGR_MIN_TRANSMISSIONS=20
//        "-DCONST=const __code" -DGENERIC=__generic -DRFD_RCVC_ALWAYS_ON=FALSE
//        -DPOLL_RATE=1000 -DQUEUED_POLL_RATE=100 -DRESPONSE_POLL_RATE=100
//        -DREJOIN_POLL_RATE=440 -DREJOIN_BACKOFF=900000 -DREJOIN_SCAN=900000
//        -DENABLE_LED4_DISABLE_S1) -f "C:\Texas Instruments\Z-Stack
//        3.0.2\Projects\zstack\HomeAutomation\4-Switch-PowerSaving-firmware\CC2530DB\..\..\..\Tools\CC2530DB\f8wZCL.cfg"
//        -I "C:\Texas Instruments\Z-Stack
//        3.0.2\Projects\zstack\HomeAutomation\4-Switch-PowerSaving-firmware\CC2530DB\"
//        -I "C:\Texas Instruments\Z-Stack
//        3.0.2\Projects\zstack\HomeAutomation\4-Switch-PowerSaving-firmware\CC2530DB\..\Source\"
//        -I "C:\Texas Instruments\Z-Stack
//        3.0.2\Projects\zstack\HomeAutomation\4-Switch-PowerSaving-firmware\CC2530DB\..\..\Source\"
//        -I "C:\Texas Instruments\Z-Stack
//        3.0.2\Projects\zstack\HomeAutomation\4-Switch-PowerSaving-firmware\CC2530DB\..\..\..\ZMain\TI2530DB\"
//        -I "C:\Texas Instruments\Z-Stack
//        3.0.2\Projects\zstack\HomeAutomation\4-Switch-PowerSaving-firmware\CC2530DB\..\..\..\..\..\Components\hal\include\"
//        -I "C:\Texas Instruments\Z-Stack
//        3.0.2\Projects\zstack\HomeAutomation\4-Switch-PowerSaving-firmware\CC2530DB\..\..\..\..\..\Components\hal\target\CC2530EB\"
//        -I "C:\Texas Instruments\Z-Stack
//        3.0.2\Projects\zstack\HomeAutomation\4-Switch-PowerSaving-firmware\CC2530DB\..\..\..\..\..\Components\mac\include\"
//        -I "C:\Texas Instruments\Z-Stack
//        3.0.2\Projects\zstack\HomeAutomation\4-Switch-PowerSaving-firmware\CC2530DB\..\..\..\..\..\Components\mac\high_level\"
//        -I "C:\Texas Instruments\Z-Stack
//        3.0.2\Projects\zstack\HomeAutomation\4-Switch-PowerSaving-firmware\CC2530DB\..\..\..\..\..\Components\mac\low_level\srf04\"
//        -I "C:\Texas Instruments\Z-Stack
//        3.0.2\Projects\zstack\HomeAutomation\4-Switch-PowerSaving-firmware\CC2530DB\..\..\..\..\..\Components\mac\low_level\srf04\single_chip\"
//        -I "C:\Texas Instruments\Z-Stack
//        3.0.2\Projects\zstack\HomeAutomation\4-Switch-PowerSaving-firmware\CC2530DB\..\..\..\..\..\Components\mt\"
//        -I "C:\Texas Instruments\Z-Stack
//        3.0.2\Projects\zstack\HomeAutomation\4-Switch-PowerSaving-firmware\CC2530DB\..\..\..\..\..\Components\osal\include\"
//        -I "C:\Texas Instruments\Z-Stack
//        3.0.2\Projects\zstack\HomeAutomation\4-Switch-PowerSaving-firmware\CC2530DB\..\..\..\..\..\Components\services\saddr\"
//        -I "C:\Texas Instruments\Z-Stack
//        3.0.2\Projects\zstack\HomeAutomation\4-Switch-PowerSaving-firmware\CC2530DB\..\..\..\..\..\Components\services\sdata\"
//        -I "C:\Texas Instruments\Z-Stack
//        3.0.2\Projects\zstack\HomeAutomation\4-Switch-PowerSaving-firmware\CC2530DB\..\..\..\..\..\Components\stack\af\"
//        -I "C:\Texas Instruments\Z-Stack
//        3.0.2\Projects\zstack\HomeAutomation\4-Switch-PowerSaving-firmware\CC2530DB\..\..\..\..\..\Components\stack\bdb\"
//        -I "C:\Texas Instruments\Z-Stack
//        3.0.2\Projects\zstack\HomeAutomation\4-Switch-PowerSaving-firmware\CC2530DB\..\..\..\..\..\Components\stack\gp\"
//        -I "C:\Texas Instruments\Z-Stack
//        3.0.2\Projects\zstack\HomeAutomation\4-Switch-PowerSaving-firmware\CC2530DB\..\..\..\..\..\Components\stack\nwk\"
//        -I "C:\Texas Instruments\Z-Stack
//        3.0.2\Projects\zstack\HomeAutomation\4-Switch-PowerSaving-firmware\CC2530DB\..\..\..\..\..\Components\stack\sapi\"
//        -I "C:\Texas Instruments\Z-Stack
//        3.0.2\Projects\zstack\HomeAutomation\4-Switch-PowerSaving-firmware\CC2530DB\..\..\..\..\..\Components\stack\sec\"
//        -I "C:\Texas Instruments\Z-Stack
//        3.0.2\Projects\zstack\HomeAutomation\4-Switch-PowerSaving-firmware\CC2530DB\..\..\..\..\..\Components\stack\sys\"
//        -I "C:\Texas Instruments\Z-Stack
//        3.0.2\Projects\zstack\HomeAutomation\4-Switch-PowerSaving-firmware\CC2530DB\..\..\..\..\..\Components\stack\zcl\"
//        -I "C:\Texas Instruments\Z-Stack
//        3.0.2\Projects\zstack\HomeAutomation\4-Switch-PowerSaving-firmware\CC2530DB\..\..\..\..\..\Components\stack\zdo\"
//        -I "C:\Texas Instruments\Z-Stack
//        3.0.2\Projects\zstack\HomeAutomation\4-Switch-PowerSaving-firmware\CC2530DB\..\..\..\..\..\Components\zmac\"
//        -I "C:\Texas Instruments\Z-Stack
//        3.0.2\Projects\zstack\HomeAutomation\4-Switch-PowerSaving-firmware\CC2530DB\..\..\..\..\..\Components\zmac\f8w\"
//        -Ohz --require_prototypes)
//    Locale             =  Danish_DNK.1252
//    List file          =  
//        C:\Texas Instruments\Z-Stack
//        3.0.2\Projects\zstack\HomeAutomation\4-Switch-PowerSaving-firmware\CC2530DB\EndDeviceEB\List\battery_reporting.s51
//
///////////////////////////////////////////////////////////////////////////////

        NAME battery_reporting

        RTMODEL "__SystemLibrary", "CLib"
        RTMODEL "__calling_convention", "xdata_reentrant"
        RTMODEL "__code_model", "banked"
        RTMODEL "__core", "plain"
        RTMODEL "__data_model", "large"
        RTMODEL "__dptr_size", "16"
        RTMODEL "__extended_stack", "disabled"
        RTMODEL "__location_for_constants", "data"
        RTMODEL "__number_of_dptrs", "1"
        RTMODEL "__register_banks", "*"
        RTMODEL "__rt_version", "1"

        RSEG DOVERLAY:DATA:NOROOT(0)
        RSEG IOVERLAY:IDATA:NOROOT(0)
        RSEG ISTACK:IDATA:NOROOT(0)
        RSEG PSTACK:XDATA:NOROOT(0)
        RSEG XSTACK:XDATA:NOROOT(0)

        EXTERN ?V0
        EXTERN ?V1
        EXTERN ?V2
        EXTERN ?V3
        EXTERN ?V4
        EXTERN ?V5
        EXTERN ?V6
        EXTERN ?V7
        EXTERN ?ALLOC_XSTACK8
        EXTERN ?BANKED_ENTER_XDATA
        EXTERN ?BANKED_LEAVE_XDATA
        EXTERN ?BDISPATCH
        EXTERN ?DEALLOC_XSTACK8
        EXTERN ?FLT_ADD
        EXTERN ?FLT_DIV
        EXTERN ?FLT_MUL
        EXTERN ?FLT_TO_L
        EXTERN ?L_MOV_X
        EXTERN ?PUSH_XSTACK_I_ONE
        EXTERN ?PUSH_XSTACK_I_TWO
        EXTERN ?UL_TO_FLT
        EXTERN ?US_DIV_MOD
        EXTERN ?US_SHR
        EXTERN ?XSP
        EXTERN __INIT_XDATA_Z

        PUBLIC `??zclGenericApp_ReadADC::?relay`
        FUNCTION `??zclGenericApp_ReadADC::?relay`,0203H
        PUBLIC `??zclGenericApp_ReportBatt::?relay`
        FUNCTION `??zclGenericApp_ReportBatt::?relay`,0203H
        PUBWEAK ADCCON3
        PUBWEAK ADCH
        PUBWEAK ADCL
        PUBWEAK _A_TCON
        PUBWEAK __Constant_3e19999a
        PUBWEAK __Constant_3f933333
        PUBWEAK __Constant_40400000
        PUBWEAK __Constant_42c80000
        PUBWEAK __Constant_43ff8000
        PUBLIC zclGenericApp_Batt_DstAddr
        PUBLIC zclGenericApp_ReadADC
        FUNCTION zclGenericApp_ReadADC,0a1203H
        ARGFRAME XSTACK, 0, STACK
        LOCFRAME XSTACK, 16, STACK
        PUBLIC zclGenericApp_ReportBatt
        FUNCTION zclGenericApp_ReportBatt,0a1203H
        ARGFRAME XSTACK, 16, STACK
        ARGFRAME IOVERLAY, 0, STATIC
        ARGFRAME DOVERLAY, 0, STATIC
        LOCFRAME ISTACK, 1, STACK
        LOCFRAME XSTACK, 18, STACK
        
          CFI Names cfiNames0
          CFI StackFrame CFA_SP SP IDATA
          CFI StackFrame CFA_PSP16 PSP16 XDATA
          CFI StackFrame CFA_XSP16 XSP16 XDATA
          CFI StaticOverlayFrame CFA_IOVERLAY IOVERLAY
          CFI StaticOverlayFrame CFA_DOVERLAY DOVERLAY
          CFI Resource `PSW.CY`:1, `B.BR0`:1, `B.BR1`:1, `B.BR2`:1, `B.BR3`:1
          CFI Resource `B.BR4`:1, `B.BR5`:1, `B.BR6`:1, `B.BR7`:1, `VB.BR8`:1
          CFI Resource `VB.BR9`:1, `VB.BR10`:1, `VB.BR11`:1, `VB.BR12`:1
          CFI Resource `VB.BR13`:1, `VB.BR14`:1, `VB.BR15`:1, VB:8, B:8, A:8
          CFI Resource PSW:8, DPL0:8, DPH0:8, R0:8, R1:8, R2:8, R3:8, R4:8, R5:8
          CFI Resource R6:8, R7:8, V0:8, V1:8, V2:8, V3:8, V4:8, V5:8, V6:8, V7:8
          CFI Resource V8:8, V9:8, V10:8, V11:8, V12:8, V13:8, V14:8, V15:8, SP:8
          CFI Resource PSPH:8, PSPL:8, PSP16:16, XSPH:8, XSPL:8, XSP16:16
          CFI VirtualResource ?RET:24
          CFI Resource ?BRET_EXT:8
          CFI VirtualResource ?RET_HIGH:8, ?RET_LOW:8
          CFI ResourceParts PSP16 PSPH, PSPL
          CFI ResourceParts XSP16 XSPH, XSPL
          CFI ResourceParts ?RET ?BRET_EXT, ?RET_HIGH, ?RET_LOW
          CFI EndNames cfiNames0
        
          CFI Common cfiCommon0 Using cfiNames0
          CFI CodeAlign 1
          CFI DataAlign -1
          CFI ReturnAddress ?RET CODE
          CFI CFA_DOVERLAY Used
          CFI CFA_IOVERLAY Used
          CFI CFA_SP SP+-3
          CFI CFA_PSP16 PSP16+0
          CFI CFA_XSP16 XSP16+0
          CFI `PSW.CY` SameValue
          CFI `B.BR0` SameValue
          CFI `B.BR1` SameValue
          CFI `B.BR2` SameValue
          CFI `B.BR3` SameValue
          CFI `B.BR4` SameValue
          CFI `B.BR5` SameValue
          CFI `B.BR6` SameValue
          CFI `B.BR7` SameValue
          CFI `VB.BR8` SameValue
          CFI `VB.BR9` SameValue
          CFI `VB.BR10` SameValue
          CFI `VB.BR11` SameValue
          CFI `VB.BR12` SameValue
          CFI `VB.BR13` SameValue
          CFI `VB.BR14` SameValue
          CFI `VB.BR15` SameValue
          CFI VB SameValue
          CFI B Undefined
          CFI A Undefined
          CFI PSW SameValue
          CFI DPL0 SameValue
          CFI DPH0 SameValue
          CFI R0 Undefined
          CFI R1 Undefined
          CFI R2 Undefined
          CFI R3 Undefined
          CFI R4 Undefined
          CFI R5 Undefined
          CFI R6 SameValue
          CFI R7 SameValue
          CFI V0 SameValue
          CFI V1 SameValue
          CFI V2 SameValue
          CFI V3 SameValue
          CFI V4 SameValue
          CFI V5 SameValue
          CFI V6 SameValue
          CFI V7 SameValue
          CFI V8 SameValue
          CFI V9 SameValue
          CFI V10 SameValue
          CFI V11 SameValue
          CFI V12 SameValue
          CFI V13 SameValue
          CFI V14 SameValue
          CFI V15 SameValue
          CFI PSPH Undefined
          CFI PSPL Undefined
          CFI XSPH Undefined
          CFI XSPL Undefined
          CFI ?RET Concat
          CFI ?BRET_EXT Frame(CFA_SP, 3)
          CFI ?RET_HIGH Frame(CFA_SP, 2)
          CFI ?RET_LOW Frame(CFA_SP, 1)
          CFI EndCommon cfiCommon0
        
        
          CFI Common cfiCommon1 Using cfiNames0
          CFI CodeAlign 1
          CFI DataAlign -1
          CFI ReturnAddress ?RET CODE
          CFI CFA_DOVERLAY Used
          CFI CFA_IOVERLAY Used
          CFI CFA_SP SP+-2
          CFI CFA_PSP16 PSP16+0
          CFI CFA_XSP16 XSP16+0
          CFI `PSW.CY` SameValue
          CFI `B.BR0` SameValue
          CFI `B.BR1` SameValue
          CFI `B.BR2` SameValue
          CFI `B.BR3` SameValue
          CFI `B.BR4` SameValue
          CFI `B.BR5` SameValue
          CFI `B.BR6` SameValue
          CFI `B.BR7` SameValue
          CFI `VB.BR8` SameValue
          CFI `VB.BR9` SameValue
          CFI `VB.BR10` SameValue
          CFI `VB.BR11` SameValue
          CFI `VB.BR12` SameValue
          CFI `VB.BR13` SameValue
          CFI `VB.BR14` SameValue
          CFI `VB.BR15` SameValue
          CFI VB SameValue
          CFI B SameValue
          CFI A SameValue
          CFI PSW SameValue
          CFI DPL0 SameValue
          CFI DPH0 SameValue
          CFI R0 SameValue
          CFI R1 SameValue
          CFI R2 SameValue
          CFI R3 SameValue
          CFI R4 SameValue
          CFI R5 SameValue
          CFI R6 SameValue
          CFI R7 SameValue
          CFI V0 SameValue
          CFI V1 SameValue
          CFI V2 SameValue
          CFI V3 SameValue
          CFI V4 SameValue
          CFI V5 SameValue
          CFI V6 SameValue
          CFI V7 SameValue
          CFI V8 SameValue
          CFI V9 SameValue
          CFI V10 SameValue
          CFI V11 SameValue
          CFI V12 SameValue
          CFI V13 SameValue
          CFI V14 SameValue
          CFI V15 SameValue
          CFI PSPH Undefined
          CFI PSPL Undefined
          CFI XSPH Undefined
          CFI XSPL Undefined
          CFI ?RET Concat
          CFI ?BRET_EXT SameValue
          CFI ?RET_HIGH Frame(CFA_SP, 2)
          CFI ?RET_LOW Frame(CFA_SP, 1)
          CFI EndCommon cfiCommon1
        
bdb_getZCLFrameCounter SYMBOL "bdb_getZCLFrameCounter"
`??bdb_getZCLFrameCounter::?relay` SYMBOL "?relay", bdb_getZCLFrameCounter
osal_mem_alloc      SYMBOL "osal_mem_alloc"
`??osal_mem_alloc::?relay` SYMBOL "?relay", osal_mem_alloc
osal_mem_free       SYMBOL "osal_mem_free"
`??osal_mem_free::?relay` SYMBOL "?relay", osal_mem_free
zcl_SendReportCmd   SYMBOL "zcl_SendReportCmd"
`??zcl_SendReportCmd::?relay` SYMBOL "?relay", zcl_SendReportCmd
zclGenericApp_ReadADC SYMBOL "zclGenericApp_ReadADC"
`??zclGenericApp_ReadADC::?relay` SYMBOL "?relay", zclGenericApp_ReadADC
zclGenericApp_ReportBatt SYMBOL "zclGenericApp_ReportBatt"
`??zclGenericApp_ReportBatt::?relay` SYMBOL "?relay", zclGenericApp_ReportBatt

        EXTERN `??bdb_getZCLFrameCounter::?relay`
        FUNCTION `??bdb_getZCLFrameCounter::?relay`,00H
        EXTERN `??osal_mem_alloc::?relay`
        FUNCTION `??osal_mem_alloc::?relay`,00H
        EXTERN `??osal_mem_free::?relay`
        FUNCTION `??osal_mem_free::?relay`,00H
        EXTERN `??zcl_SendReportCmd::?relay`
        FUNCTION `??zcl_SendReportCmd::?relay`,00H
        EXTERN bdb_getZCLFrameCounter
        FUNCTION bdb_getZCLFrameCounter,0202H
        ARGFRAME ISTACK, 0, STACK
        ARGFRAME PSTACK, 0, STACK
        ARGFRAME XSTACK, 13, STACK
        ARGFRAME IOVERLAY, 0, STATIC
        ARGFRAME DOVERLAY, 0, STATIC
        EXTERN osal_mem_alloc
        FUNCTION osal_mem_alloc,0202H
        ARGFRAME ISTACK, 0, STACK
        ARGFRAME PSTACK, 0, STACK
        ARGFRAME XSTACK, 13, STACK
        ARGFRAME IOVERLAY, 0, STATIC
        ARGFRAME DOVERLAY, 0, STATIC
        EXTERN osal_mem_free
        FUNCTION osal_mem_free,0202H
        ARGFRAME ISTACK, 0, STACK
        ARGFRAME PSTACK, 0, STACK
        ARGFRAME XSTACK, 13, STACK
        ARGFRAME IOVERLAY, 0, STATIC
        ARGFRAME DOVERLAY, 0, STATIC
        EXTERN zcl_SendReportCmd
        FUNCTION zcl_SendReportCmd,0202H
        ARGFRAME ISTACK, 0, STACK
        ARGFRAME PSTACK, 0, STACK
        ARGFRAME XSTACK, 18, STACK
        ARGFRAME IOVERLAY, 0, STATIC
        ARGFRAME DOVERLAY, 0, STATIC

// C:\Texas Instruments\Z-Stack 3.0.2\Projects\zstack\HomeAutomation\4-Switch-PowerSaving-firmware\Source\battery_reporting.c
//    1 //#include <stdio.h>
//    2 #include <stdlib.h>
//    3 
//    4 #include "zcl.h"
//    5 #include "zcl_genericapp.h"
//    6 #include "bdb_interface.h"
//    7 #include "hal_adc.h"

        ASEGN SFR_AN:DATA:NOROOT,088H
// union <unnamed> volatile __sfr _A_TCON
_A_TCON:
        DATA8
        DS 1

        ASEGN SFR_AN:DATA:NOROOT,0b6H
// unsigned char volatile __sfr ADCCON3
ADCCON3:
        DATA8
        DS 1

        ASEGN SFR_AN:DATA:NOROOT,0baH
// unsigned char volatile __sfr ADCL
ADCL:
        DATA8
        DS 1

        ASEGN SFR_AN:DATA:NOROOT,0bbH
// unsigned char volatile __sfr ADCH
ADCH:
        DATA8
        DS 1
//    8 
//    9 #include "battery_reporting.h"
//   10 

        RSEG XDATA_Z:XDATA:NOROOT(0)
        DATA8
//   11 afAddrType_t zclGenericApp_Batt_DstAddr;
zclGenericApp_Batt_DstAddr:
        DS 12
        REQUIRE __INIT_XDATA_Z
//   12 

        RSEG BANKED_CODE:HUGECODE:NOROOT(0)
//   13 void zclGenericApp_ReportBatt(uint8 value)
zclGenericApp_ReportBatt:
          CFI Block cfiBlock0 Using cfiCommon0
          CFI Function zclGenericApp_ReportBatt
        CODE
//   14 {
        FUNCALL zclGenericApp_ReportBatt, osal_mem_alloc
        LOCFRAME ISTACK, 0, STACK
        LOCFRAME PSTACK, 0, STACK
        LOCFRAME XSTACK, 13, STACK
        LOCFRAME IOVERLAY, 0, STATIC
        LOCFRAME DOVERLAY, 0, STATIC
        ARGFRAME ISTACK, 0, STACK
        ARGFRAME PSTACK, 0, STACK
        ARGFRAME XSTACK, 13, STACK
        ARGFRAME IOVERLAY, 0, STATIC
        ARGFRAME DOVERLAY, 0, STATIC
        FUNCALL zclGenericApp_ReportBatt, bdb_getZCLFrameCounter
        LOCFRAME ISTACK, 0, STACK
        LOCFRAME PSTACK, 0, STACK
        LOCFRAME XSTACK, 13, STACK
        LOCFRAME IOVERLAY, 0, STATIC
        LOCFRAME DOVERLAY, 0, STATIC
        ARGFRAME ISTACK, 0, STACK
        ARGFRAME PSTACK, 0, STACK
        ARGFRAME XSTACK, 13, STACK
        ARGFRAME IOVERLAY, 0, STATIC
        ARGFRAME DOVERLAY, 0, STATIC
        FUNCALL zclGenericApp_ReportBatt, zcl_SendReportCmd
        LOCFRAME ISTACK, 0, STACK
        LOCFRAME PSTACK, 0, STACK
        LOCFRAME XSTACK, 18, STACK
        LOCFRAME IOVERLAY, 0, STATIC
        LOCFRAME DOVERLAY, 0, STATIC
        ARGFRAME ISTACK, 0, STACK
        ARGFRAME PSTACK, 0, STACK
        ARGFRAME XSTACK, 18, STACK
        ARGFRAME IOVERLAY, 0, STATIC
        ARGFRAME DOVERLAY, 0, STATIC
        FUNCALL zclGenericApp_ReportBatt, osal_mem_free
        LOCFRAME ISTACK, 0, STACK
        LOCFRAME PSTACK, 0, STACK
        LOCFRAME XSTACK, 13, STACK
        LOCFRAME IOVERLAY, 0, STATIC
        LOCFRAME DOVERLAY, 0, STATIC
        ARGFRAME ISTACK, 0, STACK
        ARGFRAME PSTACK, 0, STACK
        ARGFRAME XSTACK, 13, STACK
        ARGFRAME IOVERLAY, 0, STATIC
        ARGFRAME DOVERLAY, 0, STATIC
        REQUIRE ?V0
        REQUIRE ?V1
        REQUIRE ?V2
        REQUIRE ?V3
        MOV       A,#-0xc
        LCALL     ?BANKED_ENTER_XDATA
          CFI DPH0 load(1, XDATA, add(CFA_XSP16, literal(-1)))
          CFI DPL0 load(1, XDATA, add(CFA_XSP16, literal(-2)))
          CFI ?BRET_EXT load(1, XDATA, add(CFA_XSP16, literal(-3)))
          CFI ?RET_HIGH load(1, XDATA, add(CFA_XSP16, literal(-4)))
          CFI ?RET_LOW load(1, XDATA, add(CFA_XSP16, literal(-5)))
          CFI R7 load(1, XDATA, add(CFA_XSP16, literal(-6)))
          CFI V3 load(1, XDATA, add(CFA_XSP16, literal(-7)))
          CFI V2 load(1, XDATA, add(CFA_XSP16, literal(-8)))
          CFI V1 load(1, XDATA, add(CFA_XSP16, literal(-9)))
          CFI V0 load(1, XDATA, add(CFA_XSP16, literal(-10)))
          CFI VB load(1, XDATA, add(CFA_XSP16, literal(-11)))
          CFI R6 load(1, XDATA, add(CFA_XSP16, literal(-12)))
          CFI CFA_SP SP+0
          CFI CFA_XSP16 add(XSP16, 12)
        ; Saved register size: 12
        ; Auto size: 1
        MOV       A,#-0x1
        LCALL     ?ALLOC_XSTACK8
          CFI CFA_XSP16 add(XSP16, 13)
        MOV       A,R1
//   15   uint8 MeasuredValue = value;
        MOV       DPL,?XSP + 0
        MOV       DPH,?XSP + 1
        MOVX      @DPTR,A
//   16   
//   17   const uint8 NUM_ATTRIBUTES = 1;
//   18   zclReportCmd_t *pReportCmd;
//   19   pReportCmd = osal_mem_alloc(sizeof(zclReportCmd_t) + (NUM_ATTRIBUTES * sizeof(zclReport_t)));
        ; Setup parameters for call to function osal_mem_alloc
        MOV       R2,#0x6
        MOV       R3,#0x0
        LCALL     `??osal_mem_alloc::?relay`; Banked call to: osal_mem_alloc
        MOV       ?V0,R2
        MOV       ?V1,R3
//   20   if (pReportCmd != NULL) {
        MOV       A,R2
        ORL       A,R3
        JZ        ??zclGenericApp_ReportBatt_0
//   21     pReportCmd->numAttr = NUM_ATTRIBUTES;
        MOV       DPL,R2
        MOV       DPH,R3
        MOV       A,#0x1
        MOVX      @DPTR,A
//   22 
//   23     pReportCmd->attrList[0].attrID = ATTRID_POWER_CFG_BATTERY_PERCENTAGE_REMAINING;
        INC       DPTR
        MOV       A,#0x21
        MOVX      @DPTR,A
        INC       DPTR
        CLR       A
        LCALL     ?Subroutine0 & 0xFFFF
//   24     pReportCmd->attrList[0].dataType = ZCL_DATATYPE_UINT8;
??CrossCallReturnLabel_0:
        MOV       A,#0x20
        LCALL     ?Subroutine0 & 0xFFFF
//   25     pReportCmd->attrList[0].attrData = (void *)(&MeasuredValue);
??CrossCallReturnLabel_1:
        INC       DPTR
        MOV       A,?XSP + 0
        MOVX      @DPTR,A
        INC       DPTR
        MOV       A,?XSP + 1
        MOVX      @DPTR,A
//   26 
//   27     zclGenericApp_Batt_DstAddr.addrMode = (afAddrMode_t)Addr16Bit;
        MOV       DPTR,#zclGenericApp_Batt_DstAddr + 8
        MOV       A,#0x2
        MOVX      @DPTR,A
//   28     zclGenericApp_Batt_DstAddr.addr.shortAddr = 0x0000;
        MOV       DPTR,#zclGenericApp_Batt_DstAddr
        CLR       A
        MOVX      @DPTR,A
        INC       DPTR
        MOVX      @DPTR,A
//   29     zclGenericApp_Batt_DstAddr.endPoint = GENERICAPP_ENDPOINT;
        MOV       DPTR,#zclGenericApp_Batt_DstAddr + 9
        INC       A
        MOVX      @DPTR,A
//   30 
//   31     zcl_SendReportCmd(GENERICAPP_ENDPOINT, &zclGenericApp_Batt_DstAddr,
//   32                       ZCL_CLUSTER_ID_GEN_POWER_CFG, pReportCmd,
//   33                       ZCL_FRAME_CLIENT_SERVER_DIR, TRUE, bdb_getZCLFrameCounter());
        ; Setup parameters for call to function bdb_getZCLFrameCounter
        LCALL     `??bdb_getZCLFrameCounter::?relay`; Banked call to: bdb_getZCLFrameCounter
        MOV       A,R1
        ; Setup parameters for call to function zcl_SendReportCmd
        MOV       ?V2,A
        MOV       R0,#?V2
        LCALL     ?PUSH_XSTACK_I_ONE
          CFI CFA_XSP16 add(XSP16, 14)
        MOV       ?V2,#0x1
        MOV       R0,#?V2
        LCALL     ?PUSH_XSTACK_I_ONE
          CFI CFA_XSP16 add(XSP16, 15)
        MOV       ?V2,#0x0
        MOV       R0,#?V2
        LCALL     ?PUSH_XSTACK_I_ONE
          CFI CFA_XSP16 add(XSP16, 16)
        MOV       R0,#?V0
        LCALL     ?PUSH_XSTACK_I_TWO
          CFI CFA_XSP16 add(XSP16, 18)
        MOV       R4,#0x1
        MOV       R5,#0x0
        MOV       R2,#zclGenericApp_Batt_DstAddr & 0xff
        MOV       R3,#(zclGenericApp_Batt_DstAddr >> 8) & 0xff
        MOV       R1,#0x1
        LCALL     `??zcl_SendReportCmd::?relay`; Banked call to: zcl_SendReportCmd
        MOV       A,#0x5
        LCALL     ?DEALLOC_XSTACK8
          CFI CFA_XSP16 add(XSP16, 13)
//   34   }
//   35 
//   36   osal_mem_free(pReportCmd);
??zclGenericApp_ReportBatt_0:
        ; Setup parameters for call to function osal_mem_free
        MOV       R2,?V0
        MOV       R3,?V1
        LCALL     `??osal_mem_free::?relay`; Banked call to: osal_mem_free
//   37 }
        MOV       A,#0x1
        LCALL     ?DEALLOC_XSTACK8
          CFI CFA_XSP16 add(XSP16, 12)
        MOV       R7,#0x4
        LJMP      ?BANKED_LEAVE_XDATA
          CFI EndBlock cfiBlock0

        RSEG BANKED_CODE:HUGECODE:NOROOT(0)
?Subroutine0:
          CFI Block cfiCond1 Using cfiCommon0
          CFI Function zclGenericApp_ReportBatt
          CFI Conditional ??CrossCallReturnLabel_0
          CFI R6 load(1, XDATA, add(CFA_XSP16, literal(-12)))
          CFI VB load(1, XDATA, add(CFA_XSP16, literal(-11)))
          CFI V0 load(1, XDATA, add(CFA_XSP16, literal(-10)))
          CFI V1 load(1, XDATA, add(CFA_XSP16, literal(-9)))
          CFI V2 load(1, XDATA, add(CFA_XSP16, literal(-8)))
          CFI V3 load(1, XDATA, add(CFA_XSP16, literal(-7)))
          CFI R7 load(1, XDATA, add(CFA_XSP16, literal(-6)))
          CFI ?RET_LOW load(1, XDATA, add(CFA_XSP16, literal(-5)))
          CFI ?RET_HIGH load(1, XDATA, add(CFA_XSP16, literal(-4)))
          CFI ?BRET_EXT load(1, XDATA, add(CFA_XSP16, literal(-3)))
          CFI DPL0 load(1, XDATA, add(CFA_XSP16, literal(-2)))
          CFI DPH0 load(1, XDATA, add(CFA_XSP16, literal(-1)))
          CFI CFA_SP SP+-2
          CFI CFA_XSP16 add(XSP16, 13)
          CFI Block cfiCond2 Using cfiCommon0
          CFI (cfiCond2) Function zclGenericApp_ReportBatt
          CFI (cfiCond2) Conditional ??CrossCallReturnLabel_1
          CFI (cfiCond2) R6 load(1, XDATA, add(CFA_XSP16, literal(-12)))
          CFI (cfiCond2) VB load(1, XDATA, add(CFA_XSP16, literal(-11)))
          CFI (cfiCond2) V0 load(1, XDATA, add(CFA_XSP16, literal(-10)))
          CFI (cfiCond2) V1 load(1, XDATA, add(CFA_XSP16, literal(-9)))
          CFI (cfiCond2) V2 load(1, XDATA, add(CFA_XSP16, literal(-8)))
          CFI (cfiCond2) V3 load(1, XDATA, add(CFA_XSP16, literal(-7)))
          CFI (cfiCond2) R7 load(1, XDATA, add(CFA_XSP16, literal(-6)))
          CFI (cfiCond2) ?RET_LOW load(1, XDATA, add(CFA_XSP16, literal(-5)))
          CFI (cfiCond2) ?RET_HIGH load(1, XDATA, add(CFA_XSP16, literal(-4)))
          CFI (cfiCond2) ?BRET_EXT load(1, XDATA, add(CFA_XSP16, literal(-3)))
          CFI (cfiCond2) DPL0 load(1, XDATA, add(CFA_XSP16, literal(-2)))
          CFI (cfiCond2) DPH0 load(1, XDATA, add(CFA_XSP16, literal(-1)))
          CFI (cfiCond2) CFA_SP SP+-2
          CFI (cfiCond2) CFA_XSP16 add(XSP16, 13)
          CFI Block cfiPicker3 Using cfiCommon1
          CFI (cfiPicker3) NoFunction
          CFI (cfiPicker3) Picker
        MOVX      @DPTR,A
        MOV       DPL,R2
        MOV       DPH,R3
        INC       DPTR
        INC       DPTR
        INC       DPTR
        RET
          CFI EndBlock cfiCond1
          CFI EndBlock cfiCond2
          CFI EndBlock cfiPicker3
//   38 
//   39 

        RSEG BANKED_CODE:HUGECODE:NOROOT(0)
//   40 void zclGenericApp_ReadADC(void)
zclGenericApp_ReadADC:
          CFI Block cfiBlock4 Using cfiCommon0
          CFI Function zclGenericApp_ReadADC
        CODE
//   41 {
        FUNCALL zclGenericApp_ReadADC, zclGenericApp_ReportBatt
        LOCFRAME ISTACK, 0, STACK
        LOCFRAME PSTACK, 0, STACK
        LOCFRAME XSTACK, 16, STACK
        LOCFRAME IOVERLAY, 0, STATIC
        LOCFRAME DOVERLAY, 0, STATIC
        ARGFRAME ISTACK, 0, STACK
        ARGFRAME PSTACK, 0, STACK
        ARGFRAME XSTACK, 16, STACK
        ARGFRAME IOVERLAY, 0, STATIC
        ARGFRAME DOVERLAY, 0, STATIC
        REQUIRE ?V0
        REQUIRE ?V1
        REQUIRE ?V2
        REQUIRE ?V3
        REQUIRE ?V4
        REQUIRE ?V5
        REQUIRE ?V6
        REQUIRE ?V7
        MOV       A,#-0x10
        LCALL     ?BANKED_ENTER_XDATA
          CFI DPH0 load(1, XDATA, add(CFA_XSP16, literal(-1)))
          CFI DPL0 load(1, XDATA, add(CFA_XSP16, literal(-2)))
          CFI ?BRET_EXT load(1, XDATA, add(CFA_XSP16, literal(-3)))
          CFI ?RET_HIGH load(1, XDATA, add(CFA_XSP16, literal(-4)))
          CFI ?RET_LOW load(1, XDATA, add(CFA_XSP16, literal(-5)))
          CFI R7 load(1, XDATA, add(CFA_XSP16, literal(-6)))
          CFI V7 load(1, XDATA, add(CFA_XSP16, literal(-7)))
          CFI V6 load(1, XDATA, add(CFA_XSP16, literal(-8)))
          CFI V5 load(1, XDATA, add(CFA_XSP16, literal(-9)))
          CFI V4 load(1, XDATA, add(CFA_XSP16, literal(-10)))
          CFI V3 load(1, XDATA, add(CFA_XSP16, literal(-11)))
          CFI V2 load(1, XDATA, add(CFA_XSP16, literal(-12)))
          CFI V1 load(1, XDATA, add(CFA_XSP16, literal(-13)))
          CFI V0 load(1, XDATA, add(CFA_XSP16, literal(-14)))
          CFI VB load(1, XDATA, add(CFA_XSP16, literal(-15)))
          CFI R6 load(1, XDATA, add(CFA_XSP16, literal(-16)))
          CFI CFA_SP SP+0
          CFI CFA_XSP16 add(XSP16, 16)
        ; Saved register size: 16
        ; Auto size: 0
//   42 uint16 ADC_value = 0;
//   43 uint16 accumulator = 0;
        MOV       R2,#0x0
        MOV       R3,#0x0
//   44 uint16 value = 0;
//   45 float voltage = 0.0;
//   46 uint8 percent = 0;
//   47 
//   48 
//   49 uint16 min = 270;       // minimum voltage = 0%
//   50 uint16 max = 300;       // maximum voltage = 100%
//   51 
//   52 int i = 0;
        MOV       R4,#0xa
//   53 while (i < 10) {
//   54   /* Clear ADC interrupt flag */
//   55   ADCIF = 0;
??zclGenericApp_ReadADC_0:
        CLR       0x88.5
//   56   /* Do the conversion */
//   57   ADCCON3 = (HAL_ADC_REF_125V | HAL_ADC_RESOLUTION_10 | HAL_ADC_CHN_VDD3);
        MOV       0xb6,#0xf
//   58   /* Wait for the conversion to finish */
//   59   while ( !ADCIF );
??zclGenericApp_ReadADC_1:
        MOV       C,0x88.5
        JNC       ??zclGenericApp_ReadADC_1
//   60   /* Get the result */
//   61   value = ADCL;
        MOV       A,0xba+0x0
//   62   value |= ((uint16) ADCH) << 8;
//   63   /* Adjust for 10 bit resolution */
//   64   value >>= 6;
//   65   accumulator = accumulator + value;
        MOV       R1,0xbb
        MOV       ?V0,A
        MOV       A,R1
        MOV       ?V1,A
        MOV       A,#0x6
        MOV       R0,#?V0
        LCALL     ?US_SHR
        MOV       A,R2
        ADD       A,?V0
        MOV       R2,A
        MOV       A,R3
        ADDC      A,?V1
        MOV       R3,A
//   66   i++;
//   67 }
        DEC       R4
        MOV       A,R4
        JNZ       ??zclGenericApp_ReadADC_0
//   68 
//   69 ADC_value = accumulator / 10;            // find average of 10 samples
//   70 //printf("ADC_value = %d\n", ADC_value);
//   71 
//   72 voltage = (1.15*ADC_value)/511*3;        // convert to voltage - etc.3.0587
//   73 //printf("Volt = %f\n", voltage);
//   74 
//   75 voltage = voltage + 0.15;                // compensate for ADC measurement vs.actual battery value
//   76 //printf("Volt = %f\n", voltage);  
//   77 
//   78 value = (int)(voltage * 100);            // convert to simpel voltage - etc.318
        MOV       A,R2
        MOV       R0,A
        MOV       A,R3
        MOV       R1,A
        MOV       R2,#0xa
        MOV       R3,#0x0
        LCALL     ?US_DIV_MOD
        MOV       ?V0,R0
        MOV       ?V1,R1
        CLR       A
        MOV       ?V2,A
        MOV       ?V3,A
        MOV       R0,#?V0
        LCALL     ?UL_TO_FLT
        MOV       DPTR,#__Constant_3f933333
        MOV       R0,#?V4
        LCALL     ?L_MOV_X
        MOV       R0,#?V0
        MOV       R1,#?V4
        LCALL     ?FLT_MUL
        MOV       DPTR,#__Constant_43ff8000
        MOV       R0,#?V4
        LCALL     ?L_MOV_X
        MOV       R0,#?V0
        MOV       R1,#?V4
        LCALL     ?FLT_DIV
        MOV       DPTR,#__Constant_40400000
        MOV       R0,#?V4
        LCALL     ?L_MOV_X
        MOV       R0,#?V0
        MOV       R1,#?V4
        LCALL     ?FLT_MUL
        MOV       DPTR,#__Constant_3e19999a
        MOV       R0,#?V4
        LCALL     ?L_MOV_X
        MOV       R0,#?V0
        MOV       R1,#?V4
        LCALL     ?FLT_ADD
        MOV       DPTR,#__Constant_42c80000
        MOV       R0,#?V4
        LCALL     ?L_MOV_X
        MOV       R0,#?V0
        MOV       R1,#?V4
        LCALL     ?FLT_MUL
        MOV       R0,#?V0
        LCALL     ?FLT_TO_L
        MOV       R0,?V0
        MOV       R1,?V1
//   79 //printf("Voltage in INT = %d\n", value);    
//   80 
//   81 if (value >= max) {value = max;}         // keep value within max range
        CLR       C
        MOV       A,R0
        SUBB      A,#0x2c
        MOV       A,R1
        SUBB      A,#0x1
        JC        ??zclGenericApp_ReadADC_2
        MOV       R0,#0x2c
        SJMP      ??zclGenericApp_ReadADC_3
//   82 if (value <= min) {value = min;}         // keep value within min range
??zclGenericApp_ReadADC_2:
        CLR       C
        MOV       A,R0
        SUBB      A,#0xf
        MOV       A,R1
        SUBB      A,#0x1
        JNC       ??zclGenericApp_ReadADC_4
        MOV       R0,#0xe
??zclGenericApp_ReadADC_3:
        MOV       R1,#0x1
//   83 //printf("Voltage in min-max range = %d\n", value);
//   84 
//   85 percent = (uint8)(((value - min) * 100) / (max - min)); // Beregning af procentdel
??zclGenericApp_ReadADC_4:
        MOV       A,R0
        ADD       A,#-0xe
        MOV       R0,A
        MOV       A,R1
        ADDC      A,#-0x2
        MOV       R1,A
        MOV       A,R0
        MOV       B,#0x64
        MUL       AB
        MOV       R0,A
        MOV       R2,B
        MOV       B,#0x64
        MOV       A,R1
        MUL       AB
        ADD       A,R2
        MOV       R1,A
        MOV       R2,#0x1e
        MOV       R3,#0x0
        LCALL     ?US_DIV_MOD
        MOV       A,R0
        MOV       R0,A
//   86 percent = percent - (percent % 5);                      // Afrunding til nærmeste 5%
//   87 //printf("Percent = %d\n", percent);
//   88 
//   89 percent = percent * 2; // adjust to Zigbee2MQTT percent reader
//   90 //printf("Percent = %d\n", percent); 
//   91 
//   92 zclGenericApp_ReportBatt(percent);
        ; Setup parameters for call to function zclGenericApp_ReportBatt
        MOV       B,#0x5
        DIV       AB
        MOV       R1,B
        MOV       A,R0
        SUBB      A,R1
        CLR       C
        RLC       A
        MOV       R1,A
        LCALL     `??zclGenericApp_ReportBatt::?relay`; Banked call to: zclGenericApp_ReportBatt
//   93 }
        MOV       R7,#0x8
        LJMP      ?BANKED_LEAVE_XDATA
          CFI EndBlock cfiBlock4
        REQUIRE _A_TCON
        REQUIRE ADCCON3
        REQUIRE ADCL
        REQUIRE ADCH

        RSEG XDATA_ROM_C:CONST:REORDER:NOROOT(0)
        DATA32
__Constant_3f933333:
        DD 3F933333H

        RSEG XDATA_ROM_C:CONST:REORDER:NOROOT(0)
        DATA32
__Constant_43ff8000:
        DD 43FF8000H

        RSEG XDATA_ROM_C:CONST:REORDER:NOROOT(0)
        DATA32
__Constant_40400000:
        DD 40400000H

        RSEG XDATA_ROM_C:CONST:REORDER:NOROOT(0)
        DATA32
__Constant_3e19999a:
        DD 3E19999AH

        RSEG XDATA_ROM_C:CONST:REORDER:NOROOT(0)
        DATA32
__Constant_42c80000:
        DD 42C80000H

        RSEG BANK_RELAYS:CODE:REORDER:NOROOT(0)
`??zclGenericApp_ReportBatt::?relay`:
        CODE
        LCALL   ?BDISPATCH
        DATA24
        DC24    zclGenericApp_ReportBatt

        RSEG BANK_RELAYS:CODE:REORDER:NOROOT(0)
`??zclGenericApp_ReadADC::?relay`:
        CODE
        LCALL   ?BDISPATCH
        DATA24
        DC24    zclGenericApp_ReadADC

        END
// 
// 390 bytes in segment BANKED_CODE
//  12 bytes in segment BANK_RELAYS
//   4 bytes in segment SFR_AN
//  20 bytes in segment XDATA_ROM_C
//  12 bytes in segment XDATA_Z
// 
//  12 bytes of CODE     memory
//   0 bytes of CONST    memory (+ 20 bytes shared)
//   0 bytes of DATA     memory (+  4 bytes shared)
// 390 bytes of HUGECODE memory
//  12 bytes of XDATA    memory
//
//Errors: none
//Warnings: none
