///////////////////////////////////////////////////////////////////////////////
//
// IAR C/C++ Compiler V10.30.1.6000 for 8051              28/Sep/2024  17:56:55
// Copyright 2004-2018 IAR Systems AB.
// PC-locked license - IAR Embedded Workbench for 8051
//
//    Core               =  plain
//    Code model         =  banked
//    Data model         =  large
//    Calling convention =  xdata reentrant
//    Constant location  =  data_rom
//    Dptr setup         =  1,16
//                          
//    Source file        =  
//        C:\Texas Instruments\Z-Stack
//        3.0.2\Components\stack\bdb\bdb_FindingAndBinding.c
//    Command line       =  
//        -f C:\Users\Flemming\AppData\Local\Temp\EWA19A.tmp ("C:\Texas
//        Instruments\Z-Stack
//        3.0.2\Components\stack\bdb\bdb_FindingAndBinding.c" -D SECURE=1 -D
//        TC_LINKKEY_JOIN -D NV_INIT -D NV_RESTORE -D POWER_SAVING -D
//        NWK_AUTO_POLL -D xZTOOL_P1 -D xMT_TASK -D xMT_APP_FUNC -D
//        xMT_SYS_FUNC -D xMT_ZDO_FUNC -D xMT_ZDO_MGMT -D xMT_APP_CNF_FUNC -D
//        xLEGACY_LCD_DEBUG -D xLCD_SUPPORTED=DEBUG -D MULTICAST_ENABLED=FALSE
//        -D ZCL_READ -D ZCL_WRITE -D ZCL_BASIC -D ZCL_IDENTIFY -D xZCL_SCENES
//        -D xZCL_GROUPS -D ZCL_ON_OFF -D xZCL_DISCOVER -D ZCL_REPORTING_DEVICE
//        -D ISR_KEYINTERRUPT -D HAL_LCD=FALSE -D HAL_UARTE=FALSE -D
//        HAL_SPI=FALSE -D HAL_HID=FALSE -lC "C:\Texas Instruments\Z-Stack
//        3.0.2\Projects\zstack\HomeAutomation\SleepDevice-CC2530-1_switch-to-Zigbee2MQTT\CC2530DB\EndDeviceEB\List"
//        -lA "C:\Texas Instruments\Z-Stack
//        3.0.2\Projects\zstack\HomeAutomation\SleepDevice-CC2530-1_switch-to-Zigbee2MQTT\CC2530DB\EndDeviceEB\List"
//        --diag_suppress Pe001,Pa010 -o "C:\Texas Instruments\Z-Stack
//        3.0.2\Projects\zstack\HomeAutomation\SleepDevice-CC2530-1_switch-to-Zigbee2MQTT\CC2530DB\EndDeviceEB\Obj"
//        -e --debug --core=plain --dptr=16,1 --data_model=large
//        --code_model=banked --calling_convention=xdata_reentrant
//        --place_constants=data_rom --nr_virtual_regs 16 -f "C:\Texas
//        Instruments\Z-Stack
//        3.0.2\Projects\zstack\HomeAutomation\SleepDevice-CC2530-1_switch-to-Zigbee2MQTT\CC2530DB\..\..\..\Tools\CC2530DB\f8wEndev.cfg"
//        (-DCPU32MHZ -DROOT=__near_func -DMAC_CFG_TX_DATA_MAX=3
//        -DMAC_CFG_TX_MAX=6 -DMAC_CFG_RX_MAX=3) -f "C:\Texas
//        Instruments\Z-Stack
//        3.0.2\Projects\zstack\HomeAutomation\SleepDevice-CC2530-1_switch-to-Zigbee2MQTT\CC2530DB\..\..\..\Tools\CC2530DB\f8wConfig.cfg"
//        (-DZIGBEEPRO -DSECURE=1 -DZG_SECURE_DYNAMIC=0 -DREFLECTOR
//        -DDEFAULT_CHANLIST=0x00000800 -DZDAPP_CONFIG_PAN_ID=0xFFFF
//        -DNWK_START_DELAY=100 -DEXTENDED_JOINING_RANDOM_MASK=0x007F
//        -DBEACON_REQUEST_DELAY=100 -DBEACON_REQ_DELAY_MASK=0x00FF
//        -DLINK_STATUS_JITTER_MASK=0x007F -DROUTE_EXPIRY_TIME=30
//        -DAPSC_ACK_WAIT_DURATION_POLLED=3000 -DNWK_INDIRECT_MSG_TIMEOUT=7
//        -DMAX_RREQ_ENTRIES=8 -DAPSC_MAX_FRAME_RETRIES=3
//        -DNWK_MAX_DATA_RETRIES=2 -DMAX_POLL_FAILURE_RETRIES=2 -DMAX_BCAST=9
//        -DAPS_MAX_GROUPS=16 -DMAX_RTG_ENTRIES=40 -DNWK_MAX_BINDING_ENTRIES=4
//        -DMAX_BINDING_CLUSTER_IDS=4 -DDEFAULT_KEY={0}
//        -DMAC_MAX_FRAME_SIZE=116 -DZDNWKMGR_MIN_TRANSMISSIONS=20
//        "-DCONST=const __code" -DGENERIC=__generic -DRFD_RCVC_ALWAYS_ON=FALSE
//        -DPOLL_RATE=1000 -DQUEUED_POLL_RATE=100 -DRESPONSE_POLL_RATE=100
//        -DREJOIN_POLL_RATE=440 -DREJOIN_BACKOFF=900000 -DREJOIN_SCAN=900000
//        -DENABLE_LED4_DISABLE_S1) -f "C:\Texas Instruments\Z-Stack
//        3.0.2\Projects\zstack\HomeAutomation\SleepDevice-CC2530-1_switch-to-Zigbee2MQTT\CC2530DB\..\..\..\Tools\CC2530DB\f8wZCL.cfg"
//        -I "C:\Texas Instruments\Z-Stack
//        3.0.2\Projects\zstack\HomeAutomation\SleepDevice-CC2530-1_switch-to-Zigbee2MQTT\CC2530DB\"
//        -I "C:\Texas Instruments\Z-Stack
//        3.0.2\Projects\zstack\HomeAutomation\SleepDevice-CC2530-1_switch-to-Zigbee2MQTT\CC2530DB\..\Source\"
//        -I "C:\Texas Instruments\Z-Stack
//        3.0.2\Projects\zstack\HomeAutomation\SleepDevice-CC2530-1_switch-to-Zigbee2MQTT\CC2530DB\..\..\Source\"
//        -I "C:\Texas Instruments\Z-Stack
//        3.0.2\Projects\zstack\HomeAutomation\SleepDevice-CC2530-1_switch-to-Zigbee2MQTT\CC2530DB\..\..\..\ZMain\TI2530DB\"
//        -I "C:\Texas Instruments\Z-Stack
//        3.0.2\Projects\zstack\HomeAutomation\SleepDevice-CC2530-1_switch-to-Zigbee2MQTT\CC2530DB\..\..\..\..\..\Components\hal\include\"
//        -I "C:\Texas Instruments\Z-Stack
//        3.0.2\Projects\zstack\HomeAutomation\SleepDevice-CC2530-1_switch-to-Zigbee2MQTT\CC2530DB\..\..\..\..\..\Components\hal\target\CC2530EB\"
//        -I "C:\Texas Instruments\Z-Stack
//        3.0.2\Projects\zstack\HomeAutomation\SleepDevice-CC2530-1_switch-to-Zigbee2MQTT\CC2530DB\..\..\..\..\..\Components\mac\include\"
//        -I "C:\Texas Instruments\Z-Stack
//        3.0.2\Projects\zstack\HomeAutomation\SleepDevice-CC2530-1_switch-to-Zigbee2MQTT\CC2530DB\..\..\..\..\..\Components\mac\high_level\"
//        -I "C:\Texas Instruments\Z-Stack
//        3.0.2\Projects\zstack\HomeAutomation\SleepDevice-CC2530-1_switch-to-Zigbee2MQTT\CC2530DB\..\..\..\..\..\Components\mac\low_level\srf04\"
//        -I "C:\Texas Instruments\Z-Stack
//        3.0.2\Projects\zstack\HomeAutomation\SleepDevice-CC2530-1_switch-to-Zigbee2MQTT\CC2530DB\..\..\..\..\..\Components\mac\low_level\srf04\single_chip\"
//        -I "C:\Texas Instruments\Z-Stack
//        3.0.2\Projects\zstack\HomeAutomation\SleepDevice-CC2530-1_switch-to-Zigbee2MQTT\CC2530DB\..\..\..\..\..\Components\mt\"
//        -I "C:\Texas Instruments\Z-Stack
//        3.0.2\Projects\zstack\HomeAutomation\SleepDevice-CC2530-1_switch-to-Zigbee2MQTT\CC2530DB\..\..\..\..\..\Components\osal\include\"
//        -I "C:\Texas Instruments\Z-Stack
//        3.0.2\Projects\zstack\HomeAutomation\SleepDevice-CC2530-1_switch-to-Zigbee2MQTT\CC2530DB\..\..\..\..\..\Components\services\saddr\"
//        -I "C:\Texas Instruments\Z-Stack
//        3.0.2\Projects\zstack\HomeAutomation\SleepDevice-CC2530-1_switch-to-Zigbee2MQTT\CC2530DB\..\..\..\..\..\Components\services\sdata\"
//        -I "C:\Texas Instruments\Z-Stack
//        3.0.2\Projects\zstack\HomeAutomation\SleepDevice-CC2530-1_switch-to-Zigbee2MQTT\CC2530DB\..\..\..\..\..\Components\stack\af\"
//        -I "C:\Texas Instruments\Z-Stack
//        3.0.2\Projects\zstack\HomeAutomation\SleepDevice-CC2530-1_switch-to-Zigbee2MQTT\CC2530DB\..\..\..\..\..\Components\stack\bdb\"
//        -I "C:\Texas Instruments\Z-Stack
//        3.0.2\Projects\zstack\HomeAutomation\SleepDevice-CC2530-1_switch-to-Zigbee2MQTT\CC2530DB\..\..\..\..\..\Components\stack\gp\"
//        -I "C:\Texas Instruments\Z-Stack
//        3.0.2\Projects\zstack\HomeAutomation\SleepDevice-CC2530-1_switch-to-Zigbee2MQTT\CC2530DB\..\..\..\..\..\Components\stack\nwk\"
//        -I "C:\Texas Instruments\Z-Stack
//        3.0.2\Projects\zstack\HomeAutomation\SleepDevice-CC2530-1_switch-to-Zigbee2MQTT\CC2530DB\..\..\..\..\..\Components\stack\sapi\"
//        -I "C:\Texas Instruments\Z-Stack
//        3.0.2\Projects\zstack\HomeAutomation\SleepDevice-CC2530-1_switch-to-Zigbee2MQTT\CC2530DB\..\..\..\..\..\Components\stack\sec\"
//        -I "C:\Texas Instruments\Z-Stack
//        3.0.2\Projects\zstack\HomeAutomation\SleepDevice-CC2530-1_switch-to-Zigbee2MQTT\CC2530DB\..\..\..\..\..\Components\stack\sys\"
//        -I "C:\Texas Instruments\Z-Stack
//        3.0.2\Projects\zstack\HomeAutomation\SleepDevice-CC2530-1_switch-to-Zigbee2MQTT\CC2530DB\..\..\..\..\..\Components\stack\zcl\"
//        -I "C:\Texas Instruments\Z-Stack
//        3.0.2\Projects\zstack\HomeAutomation\SleepDevice-CC2530-1_switch-to-Zigbee2MQTT\CC2530DB\..\..\..\..\..\Components\stack\zdo\"
//        -I "C:\Texas Instruments\Z-Stack
//        3.0.2\Projects\zstack\HomeAutomation\SleepDevice-CC2530-1_switch-to-Zigbee2MQTT\CC2530DB\..\..\..\..\..\Components\zmac\"
//        -I "C:\Texas Instruments\Z-Stack
//        3.0.2\Projects\zstack\HomeAutomation\SleepDevice-CC2530-1_switch-to-Zigbee2MQTT\CC2530DB\..\..\..\..\..\Components\zmac\f8w\"
//        -Ohz --require_prototypes)
//    Locale             =  Danish_DNK.1252
//    List file          =  
//        C:\Texas Instruments\Z-Stack
//        3.0.2\Projects\zstack\HomeAutomation\SleepDevice-CC2530-1_switch-to-Zigbee2MQTT\CC2530DB\EndDeviceEB\List\bdb_FindingAndBinding.s51
//
///////////////////////////////////////////////////////////////////////////////

        NAME bdb_FindingAndBinding

        RTMODEL "__SystemLibrary", "CLib"
        RTMODEL "__calling_convention", "xdata_reentrant"
        RTMODEL "__code_model", "banked"
        RTMODEL "__core", "plain"
        RTMODEL "__data_model", "large"
        RTMODEL "__dptr_size", "16"
        RTMODEL "__extended_stack", "disabled"
        RTMODEL "__location_for_constants", "data"
        RTMODEL "__number_of_dptrs", "1"
        RTMODEL "__register_banks", "*"
        RTMODEL "__rt_version", "1"

        RSEG DOVERLAY:DATA:NOROOT(0)
        RSEG IOVERLAY:IDATA:NOROOT(0)
        RSEG ISTACK:IDATA:NOROOT(0)
        RSEG PSTACK:XDATA:NOROOT(0)
        RSEG XSTACK:XDATA:NOROOT(0)

        EXTERN ?V0
        EXTERN ?V1
        EXTERN ?V2
        EXTERN ?V3
        EXTERN ?V4
        EXTERN ?V5
        EXTERN ?V6
        EXTERN ?V7
        EXTERN ?V8
        EXTERN ?V9
        EXTERN ?V10
        EXTERN ?V11
        EXTERN ?ALLOC_XSTACK8
        EXTERN ?BANKED_ENTER_XDATA
        EXTERN ?BANKED_LEAVE_XDATA
        EXTERN ?BDISPATCH
        EXTERN ?BRET
        EXTERN ?CALL_IND
        EXTERN ?DEALLOC_XSTACK8
        EXTERN ?L_ADD_X
        EXTERN ?L_MOV_X
        EXTERN ?L_MUL
        EXTERN ?MOVE_LONG8_XDATA_XDATA
        EXTERN ?PUSH_XSTACK8_X_FOUR
        EXTERN ?PUSH_XSTACK8_X_TWO
        EXTERN ?PUSH_XSTACK_I_FOUR
        EXTERN ?PUSH_XSTACK_I_ONE
        EXTERN ?PUSH_XSTACK_I_TWO
        EXTERN ?UL_DIV_MOD
        EXTERN ?XSP
        EXTERN ?XSTACK_DISP0_8
        EXTERN ?XSTACK_DISP100_8
        EXTERN ?XSTACK_DISP101_8
        EXTERN ?XSTACK_DISP102_8
        EXTERN __INIT_XDATA_I
        EXTERN __INIT_XDATA_Z

        PUBLIC `??bdb_FindIfAppCluster::?relay`
        FUNCTION `??bdb_FindIfAppCluster::?relay`,0203H
        PUBLIC `??bdb_GetFBInitiatorStatus::?relay`
        FUNCTION `??bdb_GetFBInitiatorStatus::?relay`,0203H
        PUBLIC `??bdb_ProcessIEEEAddrRsp::?relay`
        FUNCTION `??bdb_ProcessIEEEAddrRsp::?relay`,0203H
        PUBLIC `??bdb_ProcessRespondentList::?relay`
        FUNCTION `??bdb_ProcessRespondentList::?relay`,0203H
        PUBLIC `??bdb_ProcessSimpleDesc::?relay`
        FUNCTION `??bdb_ProcessSimpleDesc::?relay`,0203H
        PUBLIC `??bdb_RegisterBindNotificationCB::?relay`
        FUNCTION `??bdb_RegisterBindNotificationCB::?relay`,0203H
        PUBLIC `??bdb_RegisterIdentifyTimeChangeCB::?relay`
        FUNCTION `??bdb_RegisterIdentifyTimeChangeCB::?relay`,0203H
        PUBLIC `??bdb_SendIdentifyQuery::?relay`
        FUNCTION `??bdb_SendIdentifyQuery::?relay`,0203H
        PUBLIC `??bdb_SetIdentifyActiveEndpoint::?relay`
        FUNCTION `??bdb_SetIdentifyActiveEndpoint::?relay`,0203H
        PUBLIC `??bdb_StopInitiatorFindingBinding::?relay`
        FUNCTION `??bdb_StopInitiatorFindingBinding::?relay`,0203H
        PUBLIC `??bdb_ZclIdentifyQueryCmdInd::?relay`
        FUNCTION `??bdb_ZclIdentifyQueryCmdInd::?relay`,0203H
        PUBLIC `??bdb_checkMatchingEndpoints::?relay`
        FUNCTION `??bdb_checkMatchingEndpoints::?relay`,0203H
        PUBLIC `??bdb_exitFindingBindingWStatus::?relay`
        FUNCTION `??bdb_exitFindingBindingWStatus::?relay`,0203H
        PUBLIC `??bdb_findRespondentNode::?relay`
        FUNCTION `??bdb_findRespondentNode::?relay`,0203H
        PUBLIC `??bdb_getRespondentRetry::?relay`
        FUNCTION `??bdb_getRespondentRetry::?relay`,0203H
        PUBLIC `??bdb_setEpDescListToActiveEndpoint::?relay`
        FUNCTION `??bdb_setEpDescListToActiveEndpoint::?relay`,0203H
        FUNCTION `??bdb_zclFindingBindingAddBindEntry::?relay`,0203H
        PUBLIC `??bdb_zclFindingBindingEpType::?relay`
        FUNCTION `??bdb_zclFindingBindingEpType::?relay`,0203H
        FUNCTION `??bdb_zclSimpleDescClusterListClean::?relay`,0203H
        PUBWEAK __Constant_2710
        PUBWEAK __Constant_3
        PUBWEAK __Constant_3e7
        PUBWEAK __Constant_3e8
        PUBLIC bdbIndentifyActiveEndpoint
        PUBLIC bdb_FindIfAppCluster
        FUNCTION bdb_FindIfAppCluster,0203H
        ARGFRAME XSTACK, 14, STACK
        ARGFRAME IOVERLAY, 0, STATIC
        ARGFRAME DOVERLAY, 0, STATIC
        LOCFRAME XSTACK, 9, STACK
        PUBLIC bdb_FindingBindingTargetSimpleDesc
        PUBLIC bdb_GetFBInitiatorStatus
        FUNCTION bdb_GetFBInitiatorStatus,0a1203H
        ARGFRAME XSTACK, 0, STACK
        LOCFRAME ISTACK, 1, STACK
        LOCFRAME XSTACK, 20, STACK
        PUBLIC bdb_ProcessIEEEAddrRsp
        FUNCTION bdb_ProcessIEEEAddrRsp,0a1203H
        ARGFRAME XSTACK, 0, STACK
        LOCFRAME XSTACK, 25, STACK
        PUBLIC bdb_ProcessRespondentList
        FUNCTION bdb_ProcessRespondentList,0a1203H
        ARGFRAME XSTACK, 0, STACK
        LOCFRAME ISTACK, 1, STACK
        LOCFRAME XSTACK, 29, STACK
        PUBLIC bdb_ProcessSimpleDesc
        FUNCTION bdb_ProcessSimpleDesc,0a1203H
        ARGFRAME XSTACK, 0, STACK
        LOCFRAME XSTACK, 28, STACK
        PUBLIC bdb_RegisterBindNotificationCB
        FUNCTION bdb_RegisterBindNotificationCB,0203H
        ARGFRAME XSTACK, 0, STACK
        LOCFRAME ISTACK, 2, STACK
        PUBLIC bdb_RegisterIdentifyTimeChangeCB
        FUNCTION bdb_RegisterIdentifyTimeChangeCB,0203H
        ARGFRAME XSTACK, 0, STACK
        LOCFRAME ISTACK, 2, STACK
        PUBLIC bdb_SendIdentifyQuery
        FUNCTION bdb_SendIdentifyQuery,0a1203H
        ARGFRAME XSTACK, 0, STACK
        LOCFRAME XSTACK, 33, STACK
        PUBLIC bdb_SetIdentifyActiveEndpoint
        FUNCTION bdb_SetIdentifyActiveEndpoint,0203H
        ARGFRAME XSTACK, 0, STACK
        LOCFRAME ISTACK, 2, STACK
        PUBLIC bdb_StopInitiatorFindingBinding
        FUNCTION bdb_StopInitiatorFindingBinding,021203H
        ARGFRAME XSTACK, 0, STACK
        LOCFRAME ISTACK, 2, STACK
        PUBLIC bdb_ZclIdentifyQueryCmdInd
        FUNCTION bdb_ZclIdentifyQueryCmdInd,0a1203H
        ARGFRAME XSTACK, 0, STACK
        LOCFRAME ISTACK, 1, STACK
        LOCFRAME XSTACK, 10, STACK
        PUBLIC bdb_ZclType1Clusters
        PUBLIC bdb_ZclType2Clusters
        PUBLIC bdb_checkMatchingEndpoints
        FUNCTION bdb_checkMatchingEndpoints,0a1203H
        ARGFRAME XSTACK, 28, STACK
        ARGFRAME IOVERLAY, 0, STATIC
        ARGFRAME DOVERLAY, 0, STATIC
        LOCFRAME XSTACK, 35, STACK
        PUBLIC bdb_exitFindingBindingWStatus
        FUNCTION bdb_exitFindingBindingWStatus,021203H
        ARGFRAME XSTACK, 29, STACK
        ARGFRAME IOVERLAY, 0, STATIC
        ARGFRAME DOVERLAY, 0, STATIC
        LOCFRAME XSTACK, 9, STACK
        PUBLIC bdb_findRespondentNode
        FUNCTION bdb_findRespondentNode,0203H
        ARGFRAME XSTACK, 28, STACK
        ARGFRAME IOVERLAY, 0, STATIC
        ARGFRAME DOVERLAY, 0, STATIC
        LOCFRAME ISTACK, 2, STACK
        PUBLIC bdb_getRespondentRetry
        FUNCTION bdb_getRespondentRetry,0203H
        ARGFRAME XSTACK, 25, STACK
        ARGFRAME IOVERLAY, 0, STATIC
        ARGFRAME DOVERLAY, 0, STATIC
        LOCFRAME ISTACK, 2, STACK
        PUBLIC bdb_setEpDescListToActiveEndpoint
        FUNCTION bdb_setEpDescListToActiveEndpoint,0203H
        ARGFRAME XSTACK, 28, STACK
        ARGFRAME IOVERLAY, 0, STATIC
        ARGFRAME DOVERLAY, 0, STATIC
        LOCFRAME ISTACK, 2, STACK
        FUNCTION bdb_zclFindingBindingAddBindEntry,0a1203H
        ARGFRAME XSTACK, 35, STACK
        ARGFRAME IOVERLAY, 0, STATIC
        ARGFRAME DOVERLAY, 0, STATIC
        LOCFRAME XSTACK, 16, STACK
        PUBLIC bdb_zclFindingBindingEpType
        FUNCTION bdb_zclFindingBindingEpType,0a1203H
        ARGFRAME XSTACK, 0, STACK
        LOCFRAME XSTACK, 16, STACK
        FUNCTION bdb_zclSimpleDescClusterListClean,0a1203H
        ARGFRAME XSTACK, 29, STACK
        ARGFRAME IOVERLAY, 0, STATIC
        ARGFRAME DOVERLAY, 0, STATIC
        LOCFRAME XSTACK, 10, STACK
        PUBLIC grpName
        PUBLIC pfnBindNotificationCB
        PUBLIC pfnIdentifyTimeChangeCB
        
          CFI Names cfiNames0
          CFI StackFrame CFA_SP SP IDATA
          CFI StackFrame CFA_PSP16 PSP16 XDATA
          CFI StackFrame CFA_XSP16 XSP16 XDATA
          CFI StaticOverlayFrame CFA_IOVERLAY IOVERLAY
          CFI StaticOverlayFrame CFA_DOVERLAY DOVERLAY
          CFI Resource `PSW.CY`:1, `B.BR0`:1, `B.BR1`:1, `B.BR2`:1, `B.BR3`:1
          CFI Resource `B.BR4`:1, `B.BR5`:1, `B.BR6`:1, `B.BR7`:1, `VB.BR8`:1
          CFI Resource `VB.BR9`:1, `VB.BR10`:1, `VB.BR11`:1, `VB.BR12`:1
          CFI Resource `VB.BR13`:1, `VB.BR14`:1, `VB.BR15`:1, VB:8, B:8, A:8
          CFI Resource PSW:8, DPL0:8, DPH0:8, R0:8, R1:8, R2:8, R3:8, R4:8, R5:8
          CFI Resource R6:8, R7:8, V0:8, V1:8, V2:8, V3:8, V4:8, V5:8, V6:8, V7:8
          CFI Resource V8:8, V9:8, V10:8, V11:8, V12:8, V13:8, V14:8, V15:8, SP:8
          CFI Resource PSPH:8, PSPL:8, PSP16:16, XSPH:8, XSPL:8, XSP16:16
          CFI VirtualResource ?RET:24
          CFI Resource ?BRET_EXT:8
          CFI VirtualResource ?RET_HIGH:8, ?RET_LOW:8
          CFI ResourceParts PSP16 PSPH, PSPL
          CFI ResourceParts XSP16 XSPH, XSPL
          CFI ResourceParts ?RET ?BRET_EXT, ?RET_HIGH, ?RET_LOW
          CFI EndNames cfiNames0
        
          CFI Common cfiCommon0 Using cfiNames0
          CFI CodeAlign 1
          CFI DataAlign -1
          CFI ReturnAddress ?RET CODE
          CFI CFA_DOVERLAY Used
          CFI CFA_IOVERLAY Used
          CFI CFA_SP SP+-3
          CFI CFA_PSP16 PSP16+0
          CFI CFA_XSP16 XSP16+0
          CFI `PSW.CY` SameValue
          CFI `B.BR0` SameValue
          CFI `B.BR1` SameValue
          CFI `B.BR2` SameValue
          CFI `B.BR3` SameValue
          CFI `B.BR4` SameValue
          CFI `B.BR5` SameValue
          CFI `B.BR6` SameValue
          CFI `B.BR7` SameValue
          CFI `VB.BR8` SameValue
          CFI `VB.BR9` SameValue
          CFI `VB.BR10` SameValue
          CFI `VB.BR11` SameValue
          CFI `VB.BR12` SameValue
          CFI `VB.BR13` SameValue
          CFI `VB.BR14` SameValue
          CFI `VB.BR15` SameValue
          CFI VB SameValue
          CFI B Undefined
          CFI A Undefined
          CFI PSW SameValue
          CFI DPL0 SameValue
          CFI DPH0 SameValue
          CFI R0 Undefined
          CFI R1 Undefined
          CFI R2 Undefined
          CFI R3 Undefined
          CFI R4 Undefined
          CFI R5 Undefined
          CFI R6 SameValue
          CFI R7 SameValue
          CFI V0 SameValue
          CFI V1 SameValue
          CFI V2 SameValue
          CFI V3 SameValue
          CFI V4 SameValue
          CFI V5 SameValue
          CFI V6 SameValue
          CFI V7 SameValue
          CFI V8 SameValue
          CFI V9 SameValue
          CFI V10 SameValue
          CFI V11 SameValue
          CFI V12 SameValue
          CFI V13 SameValue
          CFI V14 SameValue
          CFI V15 SameValue
          CFI PSPH Undefined
          CFI PSPL Undefined
          CFI XSPH Undefined
          CFI XSPL Undefined
          CFI ?RET Concat
          CFI ?BRET_EXT Frame(CFA_SP, 3)
          CFI ?RET_HIGH Frame(CFA_SP, 2)
          CFI ?RET_LOW Frame(CFA_SP, 1)
          CFI EndCommon cfiCommon0
        
        
          CFI Common cfiCommon1 Using cfiNames0
          CFI CodeAlign 1
          CFI DataAlign -1
          CFI ReturnAddress ?RET CODE
          CFI CFA_DOVERLAY Used
          CFI CFA_IOVERLAY Used
          CFI CFA_SP SP+-2
          CFI CFA_PSP16 PSP16+0
          CFI CFA_XSP16 XSP16+0
          CFI `PSW.CY` SameValue
          CFI `B.BR0` SameValue
          CFI `B.BR1` SameValue
          CFI `B.BR2` SameValue
          CFI `B.BR3` SameValue
          CFI `B.BR4` SameValue
          CFI `B.BR5` SameValue
          CFI `B.BR6` SameValue
          CFI `B.BR7` SameValue
          CFI `VB.BR8` SameValue
          CFI `VB.BR9` SameValue
          CFI `VB.BR10` SameValue
          CFI `VB.BR11` SameValue
          CFI `VB.BR12` SameValue
          CFI `VB.BR13` SameValue
          CFI `VB.BR14` SameValue
          CFI `VB.BR15` SameValue
          CFI VB SameValue
          CFI B SameValue
          CFI A SameValue
          CFI PSW SameValue
          CFI DPL0 SameValue
          CFI DPH0 SameValue
          CFI R0 SameValue
          CFI R1 SameValue
          CFI R2 SameValue
          CFI R3 SameValue
          CFI R4 SameValue
          CFI R5 SameValue
          CFI R6 SameValue
          CFI R7 SameValue
          CFI V0 SameValue
          CFI V1 SameValue
          CFI V2 SameValue
          CFI V3 SameValue
          CFI V4 SameValue
          CFI V5 SameValue
          CFI V6 SameValue
          CFI V7 SameValue
          CFI V8 SameValue
          CFI V9 SameValue
          CFI V10 SameValue
          CFI V11 SameValue
          CFI V12 SameValue
          CFI V13 SameValue
          CFI V14 SameValue
          CFI V15 SameValue
          CFI PSPH Undefined
          CFI PSPL Undefined
          CFI XSPH Undefined
          CFI XSPL Undefined
          CFI ?RET Concat
          CFI ?BRET_EXT SameValue
          CFI ?RET_HIGH Frame(CFA_SP, 2)
          CFI ?RET_LOW Frame(CFA_SP, 1)
          CFI EndCommon cfiCommon1
        
AddrMgrEntryUpdate  SYMBOL "AddrMgrEntryUpdate"
`??AddrMgrEntryUpdate::?relay` SYMBOL "?relay", AddrMgrEntryUpdate
AddrMgrExtAddrLookup SYMBOL "AddrMgrExtAddrLookup"
`??AddrMgrExtAddrLookup::?relay` SYMBOL "?relay", AddrMgrExtAddrLookup
AddrMgrExtAddrSet   SYMBOL "AddrMgrExtAddrSet"
`??AddrMgrExtAddrSet::?relay` SYMBOL "?relay", AddrMgrExtAddrSet
ZDO_AnyClusterMatches SYMBOL "ZDO_AnyClusterMatches"
`??ZDO_AnyClusterMatches::?relay` SYMBOL "?relay", ZDO_AnyClusterMatches
ZDO_ParseAddrRsp    SYMBOL "ZDO_ParseAddrRsp"
`??ZDO_ParseAddrRsp::?relay` SYMBOL "?relay", ZDO_ParseAddrRsp
ZDO_ParseSimpleDescBuf SYMBOL "ZDO_ParseSimpleDescBuf"
`??ZDO_ParseSimpleDescBuf::?relay` SYMBOL "?relay", ZDO_ParseSimpleDescBuf
ZDP_IEEEAddrReq     SYMBOL "ZDP_IEEEAddrReq"
`??ZDP_IEEEAddrReq::?relay` SYMBOL "?relay", ZDP_IEEEAddrReq
ZDP_SimpleDescReq   SYMBOL "ZDP_SimpleDescReq"
`??ZDP_SimpleDescReq::?relay` SYMBOL "?relay", ZDP_SimpleDescReq
bdb_AddRespondentNode SYMBOL "bdb_AddRespondentNode"
`??bdb_AddRespondentNode::?relay` SYMBOL "?relay", bdb_AddRespondentNode
bdb_getZCLFrameCounter SYMBOL "bdb_getZCLFrameCounter"
`??bdb_getZCLFrameCounter::?relay` SYMBOL "?relay", bdb_getZCLFrameCounter
bdb_reportCommissioningState SYMBOL "bdb_reportCommissioningState"
`??bdb_reportCommissioningState::?relay` SYMBOL "?relay", bdb_reportCommissioningState
bdb_zclRespondentListClean SYMBOL "bdb_zclRespondentListClean"
`??bdb_zclRespondentListClean::?relay` SYMBOL "?relay", bdb_zclRespondentListClean
osal_get_timeoutEx  SYMBOL "osal_get_timeoutEx"
`??osal_get_timeoutEx::?relay` SYMBOL "?relay", osal_get_timeoutEx
osal_mem_free       SYMBOL "osal_mem_free"
`??osal_mem_free::?relay` SYMBOL "?relay", osal_mem_free
osal_set_event      SYMBOL "osal_set_event"
`??osal_set_event::?relay` SYMBOL "?relay", osal_set_event
osal_start_timerEx  SYMBOL "osal_start_timerEx"
`??osal_start_timerEx::?relay` SYMBOL "?relay", osal_start_timerEx
osal_stop_timerEx   SYMBOL "osal_stop_timerEx"
`??osal_stop_timerEx::?relay` SYMBOL "?relay", osal_stop_timerEx
zcl_SendCommand     SYMBOL "zcl_SendCommand"
`??zcl_SendCommand::?relay` SYMBOL "?relay", zcl_SendCommand
bdb_FindIfAppCluster SYMBOL "bdb_FindIfAppCluster"
`??bdb_FindIfAppCluster::?relay` SYMBOL "?relay", bdb_FindIfAppCluster
bdb_GetFBInitiatorStatus SYMBOL "bdb_GetFBInitiatorStatus"
`??bdb_GetFBInitiatorStatus::?relay` SYMBOL "?relay", bdb_GetFBInitiatorStatus
bdb_ProcessIEEEAddrRsp SYMBOL "bdb_ProcessIEEEAddrRsp"
`??bdb_ProcessIEEEAddrRsp::?relay` SYMBOL "?relay", bdb_ProcessIEEEAddrRsp
bdb_ProcessRespondentList SYMBOL "bdb_ProcessRespondentList"
`??bdb_ProcessRespondentList::?relay` SYMBOL "?relay", bdb_ProcessRespondentList
bdb_ProcessSimpleDesc SYMBOL "bdb_ProcessSimpleDesc"
`??bdb_ProcessSimpleDesc::?relay` SYMBOL "?relay", bdb_ProcessSimpleDesc
bdb_RegisterBindNotificationCB SYMBOL "bdb_RegisterBindNotificationCB"
`??bdb_RegisterBindNotificationCB::?relay` SYMBOL "?relay", bdb_RegisterBindNotificationCB
bdb_RegisterIdentifyTimeChangeCB SYMBOL "bdb_RegisterIdentifyTimeChangeCB"
`??bdb_RegisterIdentifyTimeChangeCB::?relay` SYMBOL "?relay", bdb_RegisterIdentifyTimeChangeCB
bdb_SendIdentifyQuery SYMBOL "bdb_SendIdentifyQuery"
`??bdb_SendIdentifyQuery::?relay` SYMBOL "?relay", bdb_SendIdentifyQuery
bdb_SetIdentifyActiveEndpoint SYMBOL "bdb_SetIdentifyActiveEndpoint"
`??bdb_SetIdentifyActiveEndpoint::?relay` SYMBOL "?relay", bdb_SetIdentifyActiveEndpoint
bdb_StopInitiatorFindingBinding SYMBOL "bdb_StopInitiatorFindingBinding"
`??bdb_StopInitiatorFindingBinding::?relay` SYMBOL "?relay", bdb_StopInitiatorFindingBinding
bdb_ZclIdentifyQueryCmdInd SYMBOL "bdb_ZclIdentifyQueryCmdInd"
`??bdb_ZclIdentifyQueryCmdInd::?relay` SYMBOL "?relay", bdb_ZclIdentifyQueryCmdInd
bdb_checkMatchingEndpoints SYMBOL "bdb_checkMatchingEndpoints"
`??bdb_checkMatchingEndpoints::?relay` SYMBOL "?relay", bdb_checkMatchingEndpoints
bdb_exitFindingBindingWStatus SYMBOL "bdb_exitFindingBindingWStatus"
`??bdb_exitFindingBindingWStatus::?relay` SYMBOL "?relay", bdb_exitFindingBindingWStatus
bdb_findRespondentNode SYMBOL "bdb_findRespondentNode"
`??bdb_findRespondentNode::?relay` SYMBOL "?relay", bdb_findRespondentNode
bdb_getRespondentRetry SYMBOL "bdb_getRespondentRetry"
`??bdb_getRespondentRetry::?relay` SYMBOL "?relay", bdb_getRespondentRetry
bdb_setEpDescListToActiveEndpoint SYMBOL "bdb_setEpDescListToActiveEndpoint"
`??bdb_setEpDescListToActiveEndpoint::?relay` SYMBOL "?relay", bdb_setEpDescListToActiveEndpoint
bdb_zclFindingBindingEpType SYMBOL "bdb_zclFindingBindingEpType"
`??bdb_zclFindingBindingEpType::?relay` SYMBOL "?relay", bdb_zclFindingBindingEpType

        EXTERN `??AddrMgrEntryUpdate::?relay`
        FUNCTION `??AddrMgrEntryUpdate::?relay`,00H
        EXTERN `??AddrMgrExtAddrLookup::?relay`
        FUNCTION `??AddrMgrExtAddrLookup::?relay`,00H
        EXTERN `??AddrMgrExtAddrSet::?relay`
        FUNCTION `??AddrMgrExtAddrSet::?relay`,00H
        EXTERN `??ZDO_AnyClusterMatches::?relay`
        FUNCTION `??ZDO_AnyClusterMatches::?relay`,00H
        EXTERN `??ZDO_ParseAddrRsp::?relay`
        FUNCTION `??ZDO_ParseAddrRsp::?relay`,00H
        EXTERN `??ZDO_ParseSimpleDescBuf::?relay`
        FUNCTION `??ZDO_ParseSimpleDescBuf::?relay`,00H
        EXTERN `??ZDP_IEEEAddrReq::?relay`
        FUNCTION `??ZDP_IEEEAddrReq::?relay`,00H
        EXTERN `??ZDP_SimpleDescReq::?relay`
        FUNCTION `??ZDP_SimpleDescReq::?relay`,00H
        EXTERN `??bdb_AddRespondentNode::?relay`
        FUNCTION `??bdb_AddRespondentNode::?relay`,00H
        EXTERN `??bdb_getZCLFrameCounter::?relay`
        FUNCTION `??bdb_getZCLFrameCounter::?relay`,00H
        EXTERN `??bdb_reportCommissioningState::?relay`
        FUNCTION `??bdb_reportCommissioningState::?relay`,00H
        EXTERN `??bdb_zclRespondentListClean::?relay`
        FUNCTION `??bdb_zclRespondentListClean::?relay`,00H
        EXTERN `??osal_get_timeoutEx::?relay`
        FUNCTION `??osal_get_timeoutEx::?relay`,00H
        EXTERN `??osal_mem_free::?relay`
        FUNCTION `??osal_mem_free::?relay`,00H
        EXTERN `??osal_set_event::?relay`
        FUNCTION `??osal_set_event::?relay`,00H
        EXTERN `??osal_start_timerEx::?relay`
        FUNCTION `??osal_start_timerEx::?relay`,00H
        EXTERN `??osal_stop_timerEx::?relay`
        FUNCTION `??osal_stop_timerEx::?relay`,00H
        EXTERN `??zcl_SendCommand::?relay`
        FUNCTION `??zcl_SendCommand::?relay`,00H
        EXTERN AddrMgrEntryUpdate
        FUNCTION AddrMgrEntryUpdate,0202H
        ARGFRAME ISTACK, 0, STACK
        ARGFRAME PSTACK, 0, STACK
        ARGFRAME XSTACK, 25, STACK
        ARGFRAME IOVERLAY, 0, STATIC
        ARGFRAME DOVERLAY, 0, STATIC
        EXTERN AddrMgrExtAddrLookup
        FUNCTION AddrMgrExtAddrLookup,0202H
        ARGFRAME ISTACK, 0, STACK
        ARGFRAME PSTACK, 0, STACK
        ARGFRAME XSTACK, 29, STACK
        ARGFRAME IOVERLAY, 0, STATIC
        ARGFRAME DOVERLAY, 0, STATIC
        EXTERN AddrMgrExtAddrSet
        FUNCTION AddrMgrExtAddrSet,0202H
        ARGFRAME ISTACK, 0, STACK
        ARGFRAME PSTACK, 0, STACK
        ARGFRAME XSTACK, 25, STACK
        ARGFRAME IOVERLAY, 0, STATIC
        ARGFRAME DOVERLAY, 0, STATIC
        EXTERN ZDO_AnyClusterMatches
        FUNCTION ZDO_AnyClusterMatches,0202H
        ARGFRAME ISTACK, 0, STACK
        ARGFRAME PSTACK, 0, STACK
        ARGFRAME XSTACK, 16, STACK
        ARGFRAME IOVERLAY, 0, STATIC
        ARGFRAME DOVERLAY, 0, STATIC
        EXTERN ZDO_ParseAddrRsp
        FUNCTION ZDO_ParseAddrRsp,0202H
        ARGFRAME ISTACK, 0, STACK
        ARGFRAME PSTACK, 0, STACK
        ARGFRAME XSTACK, 25, STACK
        ARGFRAME IOVERLAY, 0, STATIC
        ARGFRAME DOVERLAY, 0, STATIC
        EXTERN ZDO_ParseSimpleDescBuf
        FUNCTION ZDO_ParseSimpleDescBuf,0202H
        ARGFRAME ISTACK, 0, STACK
        ARGFRAME PSTACK, 0, STACK
        ARGFRAME XSTACK, 28, STACK
        ARGFRAME IOVERLAY, 0, STATIC
        ARGFRAME DOVERLAY, 0, STATIC
        EXTERN ZDP_IEEEAddrReq
        FUNCTION ZDP_IEEEAddrReq,0202H
        ARGFRAME ISTACK, 0, STACK
        ARGFRAME PSTACK, 0, STACK
        ARGFRAME XSTACK, 25, STACK
        ARGFRAME IOVERLAY, 0, STATIC
        ARGFRAME DOVERLAY, 0, STATIC
        EXTERN ZDP_SimpleDescReq
        FUNCTION ZDP_SimpleDescReq,0202H
        ARGFRAME ISTACK, 0, STACK
        ARGFRAME PSTACK, 0, STACK
        ARGFRAME XSTACK, 26, STACK
        ARGFRAME IOVERLAY, 0, STATIC
        ARGFRAME DOVERLAY, 0, STATIC
        EXTERN bdbAttributes
        EXTERN bdbCommissioningProcedureState
        EXTERN bdb_AddRespondentNode
        FUNCTION bdb_AddRespondentNode,0202H
        ARGFRAME ISTACK, 0, STACK
        ARGFRAME PSTACK, 0, STACK
        ARGFRAME XSTACK, 10, STACK
        ARGFRAME IOVERLAY, 0, STATIC
        ARGFRAME DOVERLAY, 0, STATIC
        EXTERN bdb_CurrEpDescriptorList
        EXTERN bdb_FB_InitiatorCurrentCyclesNumber
        EXTERN bdb_HeadEpDescriptorList
        EXTERN bdb_TaskID
        EXTERN bdb_getZCLFrameCounter
        FUNCTION bdb_getZCLFrameCounter,0202H
        ARGFRAME ISTACK, 0, STACK
        ARGFRAME PSTACK, 0, STACK
        ARGFRAME XSTACK, 22, STACK
        ARGFRAME IOVERLAY, 0, STATIC
        ARGFRAME DOVERLAY, 0, STATIC
        EXTERN bdb_reportCommissioningState
        FUNCTION bdb_reportCommissioningState,0202H
        ARGFRAME ISTACK, 0, STACK
        ARGFRAME PSTACK, 0, STACK
        ARGFRAME XSTACK, 9, STACK
        ARGFRAME IOVERLAY, 0, STATIC
        ARGFRAME DOVERLAY, 0, STATIC
        EXTERN bdb_zclRespondentListClean
        FUNCTION bdb_zclRespondentListClean,0202H
        ARGFRAME ISTACK, 2, STACK
        ARGFRAME PSTACK, 0, STACK
        ARGFRAME XSTACK, 0, STACK
        ARGFRAME IOVERLAY, 0, STATIC
        ARGFRAME DOVERLAY, 0, STATIC
        EXTERN osal_get_timeoutEx
        FUNCTION osal_get_timeoutEx,0202H
        ARGFRAME ISTACK, 0, STACK
        ARGFRAME PSTACK, 0, STACK
        ARGFRAME XSTACK, 20, STACK
        ARGFRAME IOVERLAY, 0, STATIC
        ARGFRAME DOVERLAY, 0, STATIC
        EXTERN osal_mem_free
        FUNCTION osal_mem_free,0202H
        ARGFRAME ISTACK, 0, STACK
        ARGFRAME PSTACK, 0, STACK
        ARGFRAME XSTACK, 25, STACK
        ARGFRAME IOVERLAY, 0, STATIC
        ARGFRAME DOVERLAY, 0, STATIC
        EXTERN osal_set_event
        FUNCTION osal_set_event,0202H
        ARGFRAME ISTACK, 0, STACK
        ARGFRAME PSTACK, 0, STACK
        ARGFRAME XSTACK, 10, STACK
        ARGFRAME IOVERLAY, 0, STATIC
        ARGFRAME DOVERLAY, 0, STATIC
        EXTERN osal_start_timerEx
        FUNCTION osal_start_timerEx,0202H
        ARGFRAME ISTACK, 0, STACK
        ARGFRAME PSTACK, 0, STACK
        ARGFRAME XSTACK, 29, STACK
        ARGFRAME IOVERLAY, 0, STATIC
        ARGFRAME DOVERLAY, 0, STATIC
        EXTERN osal_stop_timerEx
        FUNCTION osal_stop_timerEx,0202H
        ARGFRAME ISTACK, 2, STACK
        ARGFRAME PSTACK, 0, STACK
        ARGFRAME XSTACK, 29, STACK
        ARGFRAME IOVERLAY, 0, STATIC
        ARGFRAME DOVERLAY, 0, STATIC
        EXTERN pRespondentCurr
        EXTERN pRespondentHead
        EXTERN pRespondentNext
        EXTERN pbindAddEntry
        EXTERN zcl_SendCommand
        FUNCTION zcl_SendCommand,0202H
        ARGFRAME ISTACK, 0, STACK
        ARGFRAME PSTACK, 0, STACK
        ARGFRAME XSTACK, 33, STACK
        ARGFRAME IOVERLAY, 0, STATIC
        ARGFRAME DOVERLAY, 0, STATIC
        EXTERN zgPollRate

// C:\Texas Instruments\Z-Stack 3.0.2\Components\stack\bdb\bdb_FindingAndBinding.c
//    1 /**************************************************************************************************
//    2   Filename:       bdb_FindingAndBinding.c
//    3   Revised:        $Date: 2016-02-25 11:51:49 -0700 (Thu, 25 Feb 2016) $
//    4   Revision:       $Revision: - $
//    5 
//    6   Description:    This file contains the Base Device Behavior functions and attributes.
//    7 
//    8 
//    9   Copyright 2006-2015 Texas Instruments Incorporated. All rights reserved.
//   10 
//   11   IMPORTANT: Your use of this Software is limited to those specific rights
//   12   granted under the terms of a software license agreement between the user
//   13   who downloaded the software, his/her employer (which must be your employer)
//   14   and Texas Instruments Incorporated (the "License").  You may not use this
//   15   Software unless you agree to abide by the terms of the License. The License
//   16   limits your use, and you acknowledge, that the Software may not be modified,
//   17   copied or distributed unless embedded on a Texas Instruments microcontroller
//   18   or used solely and exclusively in conjunction with a Texas Instruments radio
//   19   frequency transceiver, which is integrated into your product.  Other than for
//   20   the foregoing purpose, you may not use, reproduce, copy, prepare derivative
//   21   works of, modify, distribute, perform, display or sell this Software and/or
//   22   its documentation for any purpose.
//   23 
//   24   YOU FURTHER ACKNOWLEDGE AND AGREE THAT THE SOFTWARE AND DOCUMENTATION ARE
//   25   PROVIDED "AS IS" WITHOUT WARRANTY OF ANY KIND, EITHER EXPRESS OR IMPLIED,
//   26   INCLUDING WITHOUT LIMITATION, ANY WARRANTY OF MERCHANTABILITY, TITLE,
//   27   NON-INFRINGEMENT AND FITNESS FOR A PARTICULAR PURPOSE. IN NO EVENT SHALL
//   28   TEXAS INSTRUMENTS OR ITS LICENSORS BE LIABLE OR OBLIGATED UNDER CONTRACT,
//   29   NEGLIGENCE, STRICT LIABILITY, CONTRIBUTION, BREACH OF WARRANTY, OR OTHER
//   30   LEGAL EQUITABLE THEORY ANY DIRECT OR INDIRECT DAMAGES OR EXPENSES
//   31   INCLUDING BUT NOT LIMITED TO ANY INCIDENTAL, SPECIAL, INDIRECT, PUNITIVE
//   32   OR CONSEQUENTIAL DAMAGES, LOST PROFITS OR LOST DATA, COST OF PROCUREMENT
//   33   OF SUBSTITUTE GOODS, TECHNOLOGY, SERVICES, OR ANY CLAIMS BY THIRD PARTIES
//   34   (INCLUDING BUT NOT LIMITED TO ANY DEFENSE THEREOF), OR OTHER SIMILAR COSTS.
//   35 
//   36   Should you have any questions regarding your right to use this Software,
//   37   contact Texas Instruments Incorporated at www.TI.com.
//   38 **************************************************************************************************/
//   39 
//   40 /*********************************************************************
//   41  * INCLUDES
//   42  */
//   43 
//   44 #include "bdb.h"
//   45 #include "ZDObject.h"
//   46 #include "bdb_interface.h"
//   47 #include "AddrMgr.h"
//   48    
//   49 #if (BDB_FINDING_BINDING_CAPABILITY_ENABLED==1)   
//   50    
//   51 /*********************************************************************
//   52  * MACROS
//   53  */
//   54 
//   55 
//   56 
//   57    
//   58 /*********************************************************************
//   59  * CONSTANTS
//   60  */
//   61 /*********************************************************************
//   62  * TYPEDEFS
//   63  */
//   64  
//   65  
//   66 /*********************************************************************
//   67  * GLOBAL VARIABLES
//   68  */
//   69 

        RSEG XDATA_I:XDATA:NOROOT(0)
//   70 uint8 grpName[6] = {'G','r','o','u','p','\0'};
grpName:
        DATA8
        DS 6
        REQUIRE `?<Initializer for grpName>`
        REQUIRE __INIT_XDATA_I

        RSEG XDATA_Z:XDATA:NOROOT(0)
        DATA16
//   71 bdbGCB_IdentifyTimeChange_t      pfnIdentifyTimeChangeCB = NULL; 
pfnIdentifyTimeChangeCB:
        DS 2
        REQUIRE __INIT_XDATA_Z

        RSEG XDATA_Z:XDATA:NOROOT(0)
        DATA16
//   72 bdbGCB_BindNotification_t        pfnBindNotificationCB = NULL;
pfnBindNotificationCB:
        DS 2
        REQUIRE __INIT_XDATA_Z
//   73 
//   74 /*********************************************************************
//   75  * EXTERNAL VARIABLES
//   76  */
//   77 
//   78 /*********************************************************************
//   79  * EXTERNAL FUNCTIONS
//   80  */
//   81 
//   82 
//   83 
//   84 /*********************************************************************
//   85  * LOCAL VARIABLES
//   86  */
//   87 

        RSEG XDATA_Z:XDATA:NOROOT(0)
        DATA8
//   88 SimpleDescriptionFormat_t  bdb_FindingBindingTargetSimpleDesc;
bdb_FindingBindingTargetSimpleDesc:
        DS 12
        REQUIRE __INIT_XDATA_Z
//   89 

        RSEG XDATA_I:XDATA:NOROOT(0)
//   90 uint8 bdbIndentifyActiveEndpoint  = 0xFF;
bdbIndentifyActiveEndpoint:
        DATA8
        DS 1
        REQUIRE `?<Initializer for bdbIndentifyActiveEndpoint>`
        REQUIRE __INIT_XDATA_I
//   91 
//   92 //Your JOB:
//   93 //Remove the clusters that your application do not use. This will save some flash and processing
//   94 //when looking into matching clusters during the finding & binding procedure

        RSEG XDATA_ROM_C:CONST:REORDER:NOROOT(0)
        DATA8
//   95 const cId_t bdb_ZclType1Clusters[] =
bdb_ZclType1Clusters:
        DATA16
        DW 5
        DW 6
        DW 8
        DW 9
        DW 22
        DW 258
        DW 514
        DW 515
        DW 768
        DW 769
        DW 1281
        DW 1282
        DW 1536
        DW 1537
        DW 2820
        DW 1556
        DW 1557
        DW 1559
        DW 1792
        DW 1793
        DW 1794
        DW 1795
        DW 2308
        DW 2304
//   96 {
//   97   ZCL_CLUSTER_ID_GEN_SCENES,
//   98   ZCL_CLUSTER_ID_GEN_ON_OFF,
//   99   ZCL_CLUSTER_ID_GEN_LEVEL_CONTROL,
//  100   ZCL_CLUSTER_ID_GEN_ALARMS,
//  101   ZCL_CLUSTER_ID_GEN_PARTITION,
//  102   ZCL_CLUSTER_ID_CLOSURES_WINDOW_COVERING,
//  103   ZCL_CLUSTER_ID_HVAC_FAN_CONTROL,
//  104   ZCL_CLUSTER_ID_HVAC_DIHUMIDIFICATION_CONTROL,
//  105   ZCL_CLUSTER_ID_LIGHTING_COLOR_CONTROL,
//  106   ZCL_CLUSTER_ID_LIGHTING_BALLAST_CONFIG,
//  107   ZCL_CLUSTER_ID_SS_IAS_ACE,
//  108   ZCL_CLUSTER_ID_SS_IAS_WD,
//  109   ZCL_CLUSTER_ID_PI_GENERIC_TUNNEL,
//  110   ZCL_CLUSTER_ID_PI_BACNET_PROTOCOL_TUNNEL,
//  111   ZCL_CLUSTER_ID_HA_ELECTRICAL_MEASUREMENT,
//  112   ZCL_CLUSTER_ID_PI_11073_PROTOCOL_TUNNEL,
//  113   ZCL_CLUSTER_ID_PI_ISO7818_PROTOCOL_TUNNEL,
//  114   ZCL_CLUSTER_ID_PI_RETAIL_TUNNEL,
//  115   ZCL_CLUSTER_ID_SE_PRICE,
//  116   ZCL_CLUSTER_ID_SE_DRLC,
//  117   ZCL_CLUSTER_ID_SE_METERING,
//  118   ZCL_CLUSTER_ID_SE_MESSAGING,
//  119   ZCL_CLUSTER_ID_TELECOMMUNICATIONS_VOICE_OVER_ZIGBEE,
//  120   ZCL_CLUSTER_ID_TELECOMMUNICATIONS_INFORMATION,
//  121 };
//  122 
//  123 //Your JOB:
//  124 //Remove the clusters that your application do not use. This will save some flash and processing
//  125 //when looking into matching clusters during the finding & binding procedure

        RSEG XDATA_ROM_C:CONST:REORDER:NOROOT(0)
        DATA8
//  126 const cId_t bdb_ZclType2Clusters[] =
bdb_ZclType2Clusters:
        DATA16
        DW 7
        DW 10
        DW 12
        DW 13
        DW 14
        DW 15
        DW 16
        DW 17
        DW 18
        DW 19
        DW 20
        DW 25
        DW 27
        DW 256
        DW 257
        DW 512
        DW 513
        DW 1026
        DW 1024
        DW 1025
        DW 1027
        DW 1028
        DW 1029
        DW 1030
        DW 1280
        DW 1538
        DW 1539
        DW 1540
        DW 1541
        DW 1542
        DW 1543
        DW 1544
        DW 1545
        DW 1546
        DW 1547
        DW 1548
        DW 1549
        DW 1550
        DW 1551
        DW 1552
        DW 1553
        DW 1554
        DW 1555
        DW 1796
        DW 2304
        DW 2816
        DW 2817
        DW 2818
        DW 2819
//  127 {
//  128   ZCL_CLUSTER_ID_GEN_ON_OFF_SWITCH_CONFIG,
//  129   ZCL_CLUSTER_ID_GEN_TIME,
//  130   ZCL_CLUSTER_ID_GEN_ANALOG_INPUT_BASIC,
//  131   ZCL_CLUSTER_ID_GEN_ANALOG_OUTPUT_BASIC,
//  132   ZCL_CLUSTER_ID_GEN_ANALOG_VALUE_BASIC,
//  133   ZCL_CLUSTER_ID_GEN_BINARY_INPUT_BASIC,
//  134   ZCL_CLUSTER_ID_GEN_BINARY_OUTPUT_BASIC,
//  135   ZCL_CLUSTER_ID_GEN_BINARY_VALUE_BASIC,
//  136   ZCL_CLUSTER_ID_GEN_MULTISTATE_INPUT_BASIC,
//  137   ZCL_CLUSTER_ID_GEN_MULTISTATE_OUTPUT_BASIC,
//  138   ZCL_CLUSTER_ID_GEN_MULTISTATE_VALUE_BASIC,
//  139   ZCL_CLUSTER_ID_OTA,
//  140   ZCL_CLUSTER_ID_GEN_APPLIANCE_CONTROL,
//  141   ZCL_CLUSTER_ID_CLOSURES_SHADE_CONFIG,
//  142   ZCL_CLUSTER_ID_CLOSURES_DOOR_LOCK,
//  143   ZCL_CLUSTER_ID_HVAC_PUMP_CONFIG_CONTROL,
//  144   ZCL_CLUSTER_ID_HVAC_THERMOSTAT,
//  145   ZCL_CLUSTER_ID_MS_TEMPERATURE_MEASUREMENT,
//  146   ZCL_CLUSTER_ID_MS_ILLUMINANCE_MEASUREMENT,
//  147   ZCL_CLUSTER_ID_MS_ILLUMINANCE_LEVEL_SENSING_CONFIG,
//  148   ZCL_CLUSTER_ID_MS_PRESSURE_MEASUREMENT,
//  149   ZCL_CLUSTER_ID_MS_FLOW_MEASUREMENT,
//  150   ZCL_CLUSTER_ID_MS_RELATIVE_HUMIDITY,
//  151   ZCL_CLUSTER_ID_MS_OCCUPANCY_SENSING,
//  152   ZCL_CLUSTER_ID_SS_IAS_ZONE,
//  153   ZCL_CLUSTER_ID_PI_ANALOG_INPUT_BACNET_REG,
//  154   ZCL_CLUSTER_ID_PI_ANALOG_INPUT_BACNET_EXT,
//  155   ZCL_CLUSTER_ID_PI_ANALOG_OUTPUT_BACNET_REG,
//  156   ZCL_CLUSTER_ID_PI_ANALOG_OUTPUT_BACNET_EXT,
//  157   ZCL_CLUSTER_ID_PI_ANALOG_VALUE_BACNET_REG,
//  158   ZCL_CLUSTER_ID_PI_ANALOG_VALUE_BACNET_EXT,
//  159   ZCL_CLUSTER_ID_PI_BINARY_INPUT_BACNET_REG,
//  160   ZCL_CLUSTER_ID_PI_BINARY_INPUT_BACNET_EXT,
//  161   ZCL_CLUSTER_ID_PI_BINARY_OUTPUT_BACNET_REG,
//  162   ZCL_CLUSTER_ID_PI_BINARY_OUTPUT_BACNET_EXT,
//  163   ZCL_CLUSTER_ID_PI_BINARY_VALUE_BACNET_REG,
//  164   ZCL_CLUSTER_ID_PI_BINARY_VALUE_BACNET_EXT,
//  165   ZCL_CLUSTER_ID_PI_MULTISTATE_INPUT_BACNET_REG,
//  166   ZCL_CLUSTER_ID_PI_MULTISTATE_INPUT_BACNET_EXT,
//  167   ZCL_CLUSTER_ID_PI_MULTISTATE_OUTPUT_BACNET_REG,
//  168   ZCL_CLUSTER_ID_PI_MULTISTATE_OUTPUT_BACNET_EXT,
//  169   ZCL_CLUSTER_ID_PI_MULTISTATE_VALUE_BACNET_REG,
//  170   ZCL_CLUSTER_ID_PI_MULTISTATE_VALUE_BACNET_EXT,
//  171   ZCL_CLUSTER_ID_SE_TUNNELING,
//  172   ZCL_CLUSTER_ID_TELECOMMUNICATIONS_INFORMATION,
//  173   ZCL_CLUSTER_ID_HA_APPLIANCE_IDENTIFICATION,
//  174   ZCL_CLUSTER_ID_HA_METER_IDENTIFICATION,
//  175   ZCL_CLUSTER_ID_HA_APPLIANCE_EVENTS_ALERTS,
//  176   ZCL_CLUSTER_ID_HA_APPLIANCE_STATISTICS,
//  177 };
//  178 
//  179 #ifdef ZCL_GROUPS
//  180 static zclOptionRec_t zcl_Groups_Options[] =
//  181 {
//  182   {
//  183     ZCL_CLUSTER_ID_GEN_GROUPS,
//  184     ( AF_ACK_REQUEST ),
//  185   },
//  186 };
//  187 #endif
//  188 
//  189 
//  190  /*********************************************************************
//  191  * LOCAL FUNCTIONS
//  192  */
//  193 static ZStatus_t bdb_zclFindingBindingAddBindEntry( byte SrcEndpInt,
//  194                                   uint16 BindClusterId,
//  195                                   byte Cnt,                 
//  196                                   uint16 * ClusterList,
//  197                                   zAddrType_t *DstAddr, byte DstEndpInt, uint8 addBind, uint8 isClusterOutput );
//  198 
//  199 uint8 bdb_FindIfAppCluster( cId_t ClusterId, uint8 isClusterOutput );
//  200 
//  201 
//  202 static void bdb_zclSimpleDescClusterListClean( SimpleDescriptionFormat_t *pSimpleDesc );
//  203 bdbFindingBindingRespondent_t* bdb_findRespondentNode(uint8 endpoint, uint16 shortAddress);
//  204 bdbFindingBindingRespondent_t* bdb_getRespondentRetry(bdbFindingBindingRespondent_t* pRespondentHead);
//  205 void bdb_checkMatchingEndpoints(uint8 bindIfMatch, uint16 shortAddress, bdbFindingBindingRespondent_t **pCurr);
//  206  /*********************************************************************
//  207  * PUBLIC FUNCTIONS
//  208  *********************************************************************/
//  209 
//  210 void bdb_ProcessSimpleDesc( zdoIncomingMsg_t *msgPtr );
//  211 void bdb_ProcessIEEEAddrRsp(zdoIncomingMsg_t *pMsg);
//  212 
//  213 /*********************************************************************
//  214  * @fn      bdb_SetIdentifyActiveEndpoint
//  215  *
//  216  * @brief   Set the endpoint which will perform the finding and binding (either Target or Initiator)
//  217  *
//  218  * @param   Active endpoint with which perform F&B. If set to 0xFF all endpoints with Identify will be attempted. The endpoint must be either Initiator or Target or Both
//  219  *
//  220  * @return  ZFailure - F&B commissioning mode already requested
//  221  *          ZInvalidParameter - Endpoint specified not found or reserved by Zigbee
//  222  *          ZSuccess - 
//  223  */

        RSEG BANKED_CODE:HUGECODE:NOROOT(0)
//  224 ZStatus_t bdb_SetIdentifyActiveEndpoint(uint8 activeEndpoint)
bdb_SetIdentifyActiveEndpoint:
          CFI Block cfiBlock0 Using cfiCommon0
          CFI Function bdb_SetIdentifyActiveEndpoint
        CODE
//  225 {
        PUSH      DPL
          CFI DPL0 Frame(CFA_SP, 4)
          CFI CFA_SP SP+-4
        PUSH      DPH
          CFI DPH0 Frame(CFA_SP, 5)
          CFI CFA_SP SP+-5
        ; Saved register size: 2
        ; Auto size: 0
        MOV       A,R1
        MOV       R4,A
//  226   epList_t *bdb_EpDescriptorListTemp = NULL;
//  227   
//  228   //Cannot process the request if no endpoints or F&B is under process
//  229   if(bdbAttributes.bdbCommissioningMode & BDB_COMMISSIONING_MODE_FINDING_BINDING)
        MOV       DPTR,#bdbAttributes + 11
        MOVX      A,@DPTR
        MOV       C,0xE0 /* A   */.3
        JNC       ??bdb_SetIdentifyActiveEndpoint_0
//  230   {
//  231     return ZFailure;
        MOV       R1,#0x1
        SJMP      ??bdb_SetIdentifyActiveEndpoint_1
//  232   }
//  233   
//  234   if(activeEndpoint == 0xFF)
??bdb_SetIdentifyActiveEndpoint_0:
        MOV       A,#-0x1
        XRL       A,R4
        JZ        ??bdb_SetIdentifyActiveEndpoint_2
//  235   {
//  236     bdbIndentifyActiveEndpoint = activeEndpoint;
//  237     return ZSuccess;
//  238   }
//  239   
//  240   if((activeEndpoint != 0) && (activeEndpoint < BDB_ZIGBEE_RESERVED_ENDPOINTS_START))
        MOV       A,R1
        JZ        ??bdb_SetIdentifyActiveEndpoint_3
        CLR       C
        SUBB      A,#-0xf
        JNC       ??bdb_SetIdentifyActiveEndpoint_3
//  241   {
//  242     bdb_EpDescriptorListTemp = bdb_HeadEpDescriptorList;
        MOV       DPTR,#bdb_HeadEpDescriptorList
        MOVX      A,@DPTR
        MOV       R2,A
        INC       DPTR
        MOVX      A,@DPTR
        SJMP      ??bdb_SetIdentifyActiveEndpoint_4
//  243     
//  244     while(bdb_EpDescriptorListTemp != NULL)
//  245     {
//  246       if(bdb_EpDescriptorListTemp->epDesc->endPoint == activeEndpoint)
//  247       {
//  248         if(bdb_EpDescriptorListTemp->epDesc->epType)
//  249         {
//  250           bdbIndentifyActiveEndpoint = activeEndpoint;
//  251           return ZSuccess;
//  252         }
//  253         else
//  254         {
//  255           return ZInvalidParameter;
//  256         }
//  257       }
//  258       bdb_EpDescriptorListTemp = bdb_EpDescriptorListTemp->nextDesc;
??bdb_SetIdentifyActiveEndpoint_5:
        MOV       DPL,R2
        MOV       DPH,R3
        LCALL     ?Subroutine22 & 0xFFFF
??CrossCallReturnLabel_26:
        MOV       A,R0
        MOV       R2,A
        MOV       A,R1
??bdb_SetIdentifyActiveEndpoint_4:
        MOV       R3,A
        MOV       A,R2
        ORL       A,R3
        JZ        ??bdb_SetIdentifyActiveEndpoint_3
        MOV       DPL,R2
        MOV       DPH,R3
        LCALL     ?Subroutine23 & 0xFFFF
??CrossCallReturnLabel_32:
        XRL       A,R4
        JNZ       ??bdb_SetIdentifyActiveEndpoint_5
        INC       DPTR
        MOVX      A,@DPTR
        JZ        ??bdb_SetIdentifyActiveEndpoint_3
??bdb_SetIdentifyActiveEndpoint_2:
        MOV       A,R4
        MOV       DPTR,#bdbIndentifyActiveEndpoint
        MOVX      @DPTR,A
        MOV       R1,#0x0
        SJMP      ??bdb_SetIdentifyActiveEndpoint_1
//  259     }
//  260   }
//  261   
//  262   return ZInvalidParameter;
??bdb_SetIdentifyActiveEndpoint_3:
        MOV       R1,#0x2
??bdb_SetIdentifyActiveEndpoint_1:
        SJMP      ??Subroutine37_0
//  263 }
          CFI EndBlock cfiBlock0
//  264 
//  265 
//  266 /*********************************************************************
//  267  * @fn      bdb_setEpDescListToActiveEndpoint
//  268  *
//  269  * @brief   Set the endpoint list to the active endpoint selected by the application for F&B process
//  270  *
//  271  * @return  Current endpoint descriptor
//  272  */
//  273 

        RSEG BANKED_CODE:HUGECODE:NOROOT(0)
//  274 endPointDesc_t* bdb_setEpDescListToActiveEndpoint(void)
bdb_setEpDescListToActiveEndpoint:
          CFI Block cfiBlock1 Using cfiCommon0
          CFI Function bdb_setEpDescListToActiveEndpoint
        CODE
//  275 {
        PUSH      DPL
          CFI DPL0 Frame(CFA_SP, 4)
          CFI CFA_SP SP+-4
        PUSH      DPH
          CFI DPH0 Frame(CFA_SP, 5)
          CFI CFA_SP SP+-5
        ; Saved register size: 2
        ; Auto size: 0
//  276   bdb_CurrEpDescriptorList = bdb_HeadEpDescriptorList;
        MOV       DPTR,#bdb_HeadEpDescriptorList
        LCALL     ?Subroutine22 & 0xFFFF
??CrossCallReturnLabel_27:
        LCALL     ?Subroutine33 & 0xFFFF
//  277  
//  278   //Check which active endpoit is being requested
//  279   if(bdbIndentifyActiveEndpoint != 0xFF)
??CrossCallReturnLabel_46:
        MOV       DPTR,#bdbIndentifyActiveEndpoint
        MOVX      A,@DPTR
        CPL       A
        JZ        ??CrossCallReturnLabel_1
//  280   {
//  281     //Search for an specific endpoint
//  282     while(bdb_CurrEpDescriptorList != NULL)
??bdb_setEpDescListToActiveEndpoint_0:
        MOV       DPTR,#bdb_CurrEpDescriptorList
        LCALL     ??Subroutine52_0 & 0xFFFF
??CrossCallReturnLabel_105:
        JZ        ??bdb_setEpDescListToActiveEndpoint_1
//  283     {
//  284       if(bdb_CurrEpDescriptorList->epDesc->endPoint == bdbIndentifyActiveEndpoint)
        LCALL     ?Subroutine12 & 0xFFFF
??CrossCallReturnLabel_14:
        MOV       R0,A
        MOV       DPTR,#bdbIndentifyActiveEndpoint
        MOVX      A,@DPTR
        XRL       A,R0
        JZ        ??bdb_setEpDescListToActiveEndpoint_2
//  285       {
//  286         return bdb_CurrEpDescriptorList->epDesc;
//  287       }
//  288       bdb_CurrEpDescriptorList = bdb_CurrEpDescriptorList->nextDesc;
        LCALL     ?Subroutine5 & 0xFFFF
//  289     }
//  290   }
??CrossCallReturnLabel_0:
        SJMP      ??bdb_setEpDescListToActiveEndpoint_0
//  291   else
//  292   {
//  293     //Look for the first endpoint that is either intiator or target to perform F&B. Is assumed that the endpoint supports Identify
//  294     while(bdb_CurrEpDescriptorList != NULL)
//  295     {
//  296       if((bdb_CurrEpDescriptorList->epDesc->endPoint != 0) && 
//  297          (bdb_CurrEpDescriptorList->epDesc->endPoint < BDB_ZIGBEE_RESERVED_ENDPOINTS_START) && 
//  298          (bdb_CurrEpDescriptorList->epDesc->epType))
//  299       {
//  300         return bdb_CurrEpDescriptorList->epDesc;
//  301       }
//  302       bdb_CurrEpDescriptorList = bdb_CurrEpDescriptorList->nextDesc;
??bdb_setEpDescListToActiveEndpoint_3:
        LCALL     ?Subroutine5 & 0xFFFF
??CrossCallReturnLabel_1:
        MOV       DPTR,#bdb_CurrEpDescriptorList
        LCALL     ??Subroutine52_0 & 0xFFFF
??CrossCallReturnLabel_106:
        JZ        ??bdb_setEpDescListToActiveEndpoint_1
        LCALL     ??Subroutine44_0 & 0xFFFF
??CrossCallReturnLabel_54:
        LCALL     ?Subroutine23 & 0xFFFF
??CrossCallReturnLabel_33:
        JZ        ??bdb_setEpDescListToActiveEndpoint_3
        CLR       C
        SUBB      A,#-0xf
        JNC       ??bdb_setEpDescListToActiveEndpoint_3
        INC       DPTR
        MOVX      A,@DPTR
        JZ        ??bdb_setEpDescListToActiveEndpoint_3
??bdb_setEpDescListToActiveEndpoint_2:
        LCALL     ?Subroutine11 & 0xFFFF
//  303     }
//  304   }
??CrossCallReturnLabel_11:
        MOV       R2,A
        INC       DPTR
        MOVX      A,@DPTR
        MOV       R3,A
        SJMP      ??bdb_setEpDescListToActiveEndpoint_4
//  305   //not found
//  306   return NULL;
??bdb_setEpDescListToActiveEndpoint_1:
        MOV       R2,#0x0
        MOV       R3,#0x0
??bdb_setEpDescListToActiveEndpoint_4:
        SJMP      ??Subroutine37_0
//  307 }
          CFI EndBlock cfiBlock1

        RSEG BANKED_CODE:HUGECODE:NOROOT(0)
?Subroutine23:
          CFI Block cfiCond2 Using cfiCommon0
          CFI Function bdb_SetIdentifyActiveEndpoint
          CFI Conditional ??CrossCallReturnLabel_32
          CFI DPL0 Frame(CFA_SP, 4)
          CFI DPH0 Frame(CFA_SP, 5)
          CFI CFA_SP SP+-7
          CFI Block cfiCond3 Using cfiCommon0
          CFI (cfiCond3) Function bdb_setEpDescListToActiveEndpoint
          CFI (cfiCond3) Conditional ??CrossCallReturnLabel_33
          CFI (cfiCond3) DPL0 Frame(CFA_SP, 4)
          CFI (cfiCond3) DPH0 Frame(CFA_SP, 5)
          CFI (cfiCond3) CFA_SP SP+-7
          CFI Block cfiPicker4 Using cfiCommon1
          CFI (cfiPicker4) NoFunction
          CFI (cfiPicker4) Picker
        INC       DPTR
        INC       DPTR
        LCALL     ?Subroutine31 & 0xFFFF
??CrossCallReturnLabel_116:
        MOV       DPL,R0
        MOV       DPH,A
        MOVX      A,@DPTR
        RET
          CFI EndBlock cfiCond2
          CFI EndBlock cfiCond3
          CFI EndBlock cfiPicker4

        RSEG BANKED_CODE:HUGECODE:NOROOT(0)
?Subroutine0:
          CFI Block cfiBlock5 Using cfiCommon0
          CFI NoFunction
          CFI CFA_SP SP+-5
          CFI DPL0 Frame(CFA_SP, 4)
          CFI DPH0 Frame(CFA_SP, 5)
        LCALL     ??Subroutine49_0 & 0xFFFF
??CrossCallReturnLabel_91:
          CFI EndBlock cfiBlock5
        REQUIRE ??Subroutine37_0
        ; // Fall through to label ??Subroutine37_0

        RSEG BANKED_CODE:HUGECODE:NOROOT(0)
??Subroutine37_0:
          CFI Block cfiBlock6 Using cfiCommon0
          CFI NoFunction
          CFI CFA_SP SP+-5
          CFI DPL0 Frame(CFA_SP, 4)
          CFI DPH0 Frame(CFA_SP, 5)
        POP       DPH
          CFI CFA_SP SP+-4
          CFI DPH0 SameValue
        POP       DPL
          CFI CFA_SP SP+-3
          CFI DPL0 SameValue
        LJMP      ?BRET
          CFI EndBlock cfiBlock6
//  308 
//  309 
//  310 /*********************************************************************
//  311  * @fn      bdb_ProcessIEEEAddrRsp
//  312  *
//  313  * @brief   Process IEEE addr response and mark the entry as done or remove the 
//  314  *          bind if not successful.
//  315  *
//  316  * @param   zdoIncomingMsg_t *pMsg
//  317  *
//  318  * @return  none
//  319  */

        RSEG BANKED_CODE:HUGECODE:NOROOT(0)
//  320 void bdb_ProcessIEEEAddrRsp(zdoIncomingMsg_t *pMsg)
bdb_ProcessIEEEAddrRsp:
          CFI Block cfiBlock7 Using cfiCommon0
          CFI Function bdb_ProcessIEEEAddrRsp
        CODE
//  321 {
        FUNCALL bdb_ProcessIEEEAddrRsp, ZDO_ParseAddrRsp
        LOCFRAME ISTACK, 0, STACK
        LOCFRAME PSTACK, 0, STACK
        LOCFRAME XSTACK, 25, STACK
        LOCFRAME IOVERLAY, 0, STATIC
        LOCFRAME DOVERLAY, 0, STATIC
        ARGFRAME ISTACK, 0, STACK
        ARGFRAME PSTACK, 0, STACK
        ARGFRAME XSTACK, 25, STACK
        ARGFRAME IOVERLAY, 0, STATIC
        ARGFRAME DOVERLAY, 0, STATIC
        FUNCALL bdb_ProcessIEEEAddrRsp, bdb_setEpDescListToActiveEndpoint
        LOCFRAME ISTACK, 0, STACK
        LOCFRAME PSTACK, 0, STACK
        LOCFRAME XSTACK, 25, STACK
        LOCFRAME IOVERLAY, 0, STATIC
        LOCFRAME DOVERLAY, 0, STATIC
        ARGFRAME ISTACK, 0, STACK
        ARGFRAME PSTACK, 0, STACK
        ARGFRAME XSTACK, 25, STACK
        ARGFRAME IOVERLAY, 0, STATIC
        ARGFRAME DOVERLAY, 0, STATIC
        FUNCALL bdb_ProcessIEEEAddrRsp, bdb_findRespondentNode
        LOCFRAME ISTACK, 0, STACK
        LOCFRAME PSTACK, 0, STACK
        LOCFRAME XSTACK, 25, STACK
        LOCFRAME IOVERLAY, 0, STATIC
        LOCFRAME DOVERLAY, 0, STATIC
        ARGFRAME ISTACK, 0, STACK
        ARGFRAME PSTACK, 0, STACK
        ARGFRAME XSTACK, 25, STACK
        ARGFRAME IOVERLAY, 0, STATIC
        ARGFRAME DOVERLAY, 0, STATIC
        FUNCALL bdb_ProcessIEEEAddrRsp, AddrMgrExtAddrSet
        LOCFRAME ISTACK, 0, STACK
        LOCFRAME PSTACK, 0, STACK
        LOCFRAME XSTACK, 25, STACK
        LOCFRAME IOVERLAY, 0, STATIC
        LOCFRAME DOVERLAY, 0, STATIC
        ARGFRAME ISTACK, 0, STACK
        ARGFRAME PSTACK, 0, STACK
        ARGFRAME XSTACK, 25, STACK
        ARGFRAME IOVERLAY, 0, STATIC
        ARGFRAME DOVERLAY, 0, STATIC
        FUNCALL bdb_ProcessIEEEAddrRsp, AddrMgrEntryUpdate
        LOCFRAME ISTACK, 0, STACK
        LOCFRAME PSTACK, 0, STACK
        LOCFRAME XSTACK, 25, STACK
        LOCFRAME IOVERLAY, 0, STATIC
        LOCFRAME DOVERLAY, 0, STATIC
        ARGFRAME ISTACK, 0, STACK
        ARGFRAME PSTACK, 0, STACK
        ARGFRAME XSTACK, 25, STACK
        ARGFRAME IOVERLAY, 0, STATIC
        ARGFRAME DOVERLAY, 0, STATIC
        FUNCALL bdb_ProcessIEEEAddrRsp, osal_stop_timerEx
        LOCFRAME ISTACK, 0, STACK
        LOCFRAME PSTACK, 0, STACK
        LOCFRAME XSTACK, 25, STACK
        LOCFRAME IOVERLAY, 0, STATIC
        LOCFRAME DOVERLAY, 0, STATIC
        ARGFRAME ISTACK, 0, STACK
        ARGFRAME PSTACK, 0, STACK
        ARGFRAME XSTACK, 25, STACK
        ARGFRAME IOVERLAY, 0, STATIC
        ARGFRAME DOVERLAY, 0, STATIC
        FUNCALL bdb_ProcessIEEEAddrRsp, bdb_zclSimpleDescClusterListClean
        LOCFRAME ISTACK, 0, STACK
        LOCFRAME PSTACK, 0, STACK
        LOCFRAME XSTACK, 25, STACK
        LOCFRAME IOVERLAY, 0, STATIC
        LOCFRAME DOVERLAY, 0, STATIC
        ARGFRAME ISTACK, 0, STACK
        ARGFRAME PSTACK, 0, STACK
        ARGFRAME XSTACK, 25, STACK
        ARGFRAME IOVERLAY, 0, STATIC
        ARGFRAME DOVERLAY, 0, STATIC
        FUNCALL bdb_ProcessIEEEAddrRsp, osal_stop_timerEx
        LOCFRAME ISTACK, 0, STACK
        LOCFRAME PSTACK, 0, STACK
        LOCFRAME XSTACK, 25, STACK
        LOCFRAME IOVERLAY, 0, STATIC
        LOCFRAME DOVERLAY, 0, STATIC
        ARGFRAME ISTACK, 0, STACK
        ARGFRAME PSTACK, 0, STACK
        ARGFRAME XSTACK, 25, STACK
        ARGFRAME IOVERLAY, 0, STATIC
        ARGFRAME DOVERLAY, 0, STATIC
        FUNCALL bdb_ProcessIEEEAddrRsp, bdb_exitFindingBindingWStatus
        LOCFRAME ISTACK, 0, STACK
        LOCFRAME PSTACK, 0, STACK
        LOCFRAME XSTACK, 25, STACK
        LOCFRAME IOVERLAY, 0, STATIC
        LOCFRAME DOVERLAY, 0, STATIC
        ARGFRAME ISTACK, 0, STACK
        ARGFRAME PSTACK, 0, STACK
        ARGFRAME XSTACK, 25, STACK
        ARGFRAME IOVERLAY, 0, STATIC
        ARGFRAME DOVERLAY, 0, STATIC
        FUNCALL bdb_ProcessIEEEAddrRsp, bdb_checkMatchingEndpoints
        LOCFRAME ISTACK, 0, STACK
        LOCFRAME PSTACK, 0, STACK
        LOCFRAME XSTACK, 25, STACK
        LOCFRAME IOVERLAY, 0, STATIC
        LOCFRAME DOVERLAY, 0, STATIC
        ARGFRAME ISTACK, 0, STACK
        ARGFRAME PSTACK, 0, STACK
        ARGFRAME XSTACK, 25, STACK
        ARGFRAME IOVERLAY, 0, STATIC
        ARGFRAME DOVERLAY, 0, STATIC
        FUNCALL bdb_ProcessIEEEAddrRsp, osal_mem_free
        LOCFRAME ISTACK, 0, STACK
        LOCFRAME PSTACK, 0, STACK
        LOCFRAME XSTACK, 25, STACK
        LOCFRAME IOVERLAY, 0, STATIC
        LOCFRAME DOVERLAY, 0, STATIC
        ARGFRAME ISTACK, 0, STACK
        ARGFRAME PSTACK, 0, STACK
        ARGFRAME XSTACK, 25, STACK
        ARGFRAME IOVERLAY, 0, STATIC
        ARGFRAME DOVERLAY, 0, STATIC
        REQUIRE ?V0
        REQUIRE ?V1
        MOV       A,#-0xa
        LCALL     ?BANKED_ENTER_XDATA
          CFI DPH0 load(1, XDATA, add(CFA_XSP16, literal(-1)))
          CFI DPL0 load(1, XDATA, add(CFA_XSP16, literal(-2)))
          CFI ?BRET_EXT load(1, XDATA, add(CFA_XSP16, literal(-3)))
          CFI ?RET_HIGH load(1, XDATA, add(CFA_XSP16, literal(-4)))
          CFI ?RET_LOW load(1, XDATA, add(CFA_XSP16, literal(-5)))
          CFI R7 load(1, XDATA, add(CFA_XSP16, literal(-6)))
          CFI V1 load(1, XDATA, add(CFA_XSP16, literal(-7)))
          CFI V0 load(1, XDATA, add(CFA_XSP16, literal(-8)))
          CFI VB load(1, XDATA, add(CFA_XSP16, literal(-9)))
          CFI R6 load(1, XDATA, add(CFA_XSP16, literal(-10)))
          CFI CFA_SP SP+0
          CFI CFA_XSP16 add(XSP16, 10)
        ; Saved register size: 10
        ; Auto size: 15
        MOV       A,#-0xf
        LCALL     ?ALLOC_XSTACK8
          CFI CFA_XSP16 add(XSP16, 25)
//  322   ZDO_NwkIEEEAddrResp_t *pAddrRsp = NULL;
//  323   bdbFindingBindingRespondent_t *pCurr = NULL;
        MOV       DPL,?XSP + 0
        MOV       DPH,?XSP + 1
        CLR       A
        MOVX      @DPTR,A
        INC       DPTR
        MOVX      @DPTR,A
//  324 
//  325   pAddrRsp = ZDO_ParseAddrRsp( pMsg );
        ; Setup parameters for call to function ZDO_ParseAddrRsp
        LCALL     `??ZDO_ParseAddrRsp::?relay`; Banked call to: ZDO_ParseAddrRsp
        MOV       ?V0,R2
        MOV       ?V1,R3
        MOV       R6,?V0
        MOV       R7,?V1
//  326   
//  327   if(pAddrRsp == NULL)
        MOV       A,R2
        ORL       A,R7
        JNZ       $+5
        LJMP      ??bdb_ProcessIEEEAddrRsp_0 & 0xFFFF
//  328   {
//  329     return;
//  330   }
//  331   
//  332   bdb_setEpDescListToActiveEndpoint();
        ; Setup parameters for call to function bdb_setEpDescListToActiveEndpoint
        LCALL     `??bdb_setEpDescListToActiveEndpoint::?relay`; Banked call to: bdb_setEpDescListToActiveEndpoint
//  333   
//  334   pCurr = bdb_findRespondentNode(bdb_FindingBindingTargetSimpleDesc.EndPoint, pAddrRsp->nwkAddr);
        MOV       DPL,R6
        MOV       DPH,R7
        INC       DPTR
        MOV       ?V0,DPL
        MOV       ?V1,DPH
        ; Setup parameters for call to function bdb_findRespondentNode
        LCALL     ?Subroutine4 & 0xFFFF
//  335   
//  336   //Does the entry exist and we were waiting an IEEE addr rsp from this device?
//  337   if((pCurr != NULL) && (pCurr->attempts > FINDING_AND_BINDING_MISSING_IEEE_ADDR))
??CrossCallReturnLabel_103:
        JZ        ??bdb_ProcessIEEEAddrRsp_1
        MOV       A,R0
        LCALL     ?Subroutine25 & 0xFFFF
??CrossCallReturnLabel_34:
        CLR       C
        SUBB      A,#-0x7f
        JC        ??bdb_ProcessIEEEAddrRsp_1
//  338   {
//  339     if(pAddrRsp->status == ZSuccess )
        MOV       DPL,R6
        MOV       DPH,R7
        MOVX      A,@DPTR
        JNZ       ??bdb_ProcessIEEEAddrRsp_2
//  340     {
//  341       uint8 extAddr[8]; 
//  342       AddrMgrEntry_t entry;
//  343       
//  344       entry.nwkAddr = pAddrRsp->nwkAddr;
        MOV       DPL,?V0
        MOV       DPH,?V1
        LCALL     ?Subroutine22 & 0xFFFF
??CrossCallReturnLabel_28:
        MOV       A,#0x3
        LCALL     ?XSTACK_DISP0_8
        LCALL     ??Subroutine38_0 & 0xFFFF
//  345       entry.user = ADDRMGR_USER_BINDING;
??CrossCallReturnLabel_42:
        MOV       A,#0x2
        LCALL     ?XSTACK_DISP0_8
        MOV       A,#0x4
        MOVX      @DPTR,A
//  346       AddrMgrExtAddrSet(entry.extAddr, pAddrRsp->extAddr);
        ; Setup parameters for call to function AddrMgrExtAddrSet
        MOV       A,R6
        ADD       A,#0x3
        MOV       R4,A
        CLR       A
        ADDC      A,R7
        MOV       R5,A
        MOV       A,#0x5
        LCALL     ?XSTACK_DISP0_8
        MOV       R2,DPL
        MOV       R3,DPH
        LCALL     `??AddrMgrExtAddrSet::?relay`; Banked call to: AddrMgrExtAddrSet
//  347       
//  348       //Add it as bind entry
//  349       if(AddrMgrEntryUpdate(&entry) == FALSE)
        ; Setup parameters for call to function AddrMgrEntryUpdate
        MOV       A,#0x2
        LCALL     ?XSTACK_DISP101_8
        LCALL     `??AddrMgrEntryUpdate::?relay`; Banked call to: AddrMgrEntryUpdate
        MOV       A,R1
        JNZ       ??bdb_ProcessIEEEAddrRsp_3
//  350       {
//  351         //No space, then report F&B table full
//  352         //If periodic was triggered, then finish it
//  353         if(FINDING_AND_BINDING_PERIODIC_ENABLE == TRUE)                                  
//  354         {
//  355           bdb_FB_InitiatorCurrentCyclesNumber = 0;
        LCALL     ?Subroutine7 & 0xFFFF
//  356           osal_stop_timerEx(bdb_TaskID, BDB_FINDING_AND_BINDING_PERIOD_TIMEOUT);
//  357         }
//  358         
//  359         bdb_zclSimpleDescClusterListClean( &bdb_FindingBindingTargetSimpleDesc );
//  360         osal_stop_timerEx( bdb_TaskID, BDB_RESPONDENT_PROCESS_TIMEOUT );
//  361         bdb_exitFindingBindingWStatus( BDB_COMMISSIONING_FB_BINDING_TABLE_FULL );
//  362         return;
??CrossCallReturnLabel_3:
        SJMP      ??bdb_ProcessIEEEAddrRsp_0
//  363       }
//  364 
//  365       //search for the matching clusters to be added this time as we have the IEEE addrs
//  366       bdb_checkMatchingEndpoints(TRUE, pAddrRsp->nwkAddr, &pCurr);
??bdb_ProcessIEEEAddrRsp_3:
        ; Setup parameters for call to function bdb_checkMatchingEndpoints
        MOV       R4,?XSP + 0
        MOV       R5,?XSP + 1
        MOV       DPL,?V0
        MOV       DPH,?V1
        LCALL     ??Subroutine45_0 & 0xFFFF
??CrossCallReturnLabel_61:
        MOV       R1,#0x1
        LCALL     `??bdb_checkMatchingEndpoints::?relay`; Banked call to: bdb_checkMatchingEndpoints
//  367       (void)extAddr;  //dummy
//  368     }
//  369     //Bind cannot be added if the device was not found
//  370     pCurr->attempts = FINDING_AND_BINDING_RESPONDENT_COMPLETE;
??bdb_ProcessIEEEAddrRsp_2:
        MOV       DPL,?XSP + 0
        MOV       DPH,?XSP + 1
        LCALL     ?Subroutine15 & 0xFFFF
//  371   }
??CrossCallReturnLabel_18:
        MOVX      @DPTR,A
//  372   
//  373   //release the memory
//  374   osal_mem_free( pAddrRsp );
??bdb_ProcessIEEEAddrRsp_1:
        ; Setup parameters for call to function osal_mem_free
        MOV       A,R6
        MOV       R2,A
        MOV       A,R7
        MOV       R3,A
        LCALL     `??osal_mem_free::?relay`; Banked call to: osal_mem_free
//  375 }
??bdb_ProcessIEEEAddrRsp_0:
        MOV       A,#0xf
        LJMP      ?Subroutine1 & 0xFFFF
          CFI EndBlock cfiBlock7
//  376 
//  377 
//  378 /*********************************************************************
//  379  * @fn      bdb_StopInitiatorFindingBinding
//  380  *
//  381  * @brief   Stops finding and binding for initiator devices.
//  382  *
//  383  * @param   none
//  384  *
//  385  * @return  none
//  386  */

        RSEG BANKED_CODE:HUGECODE:NOROOT(0)
//  387 void bdb_StopInitiatorFindingBinding(void)
bdb_StopInitiatorFindingBinding:
          CFI Block cfiBlock8 Using cfiCommon0
          CFI Function bdb_StopInitiatorFindingBinding
        CODE
//  388 {
        FUNCALL bdb_StopInitiatorFindingBinding, osal_stop_timerEx
        LOCFRAME ISTACK, 2, STACK
        LOCFRAME PSTACK, 0, STACK
        LOCFRAME XSTACK, 0, STACK
        LOCFRAME IOVERLAY, 0, STATIC
        LOCFRAME DOVERLAY, 0, STATIC
        ARGFRAME ISTACK, 2, STACK
        ARGFRAME PSTACK, 0, STACK
        ARGFRAME XSTACK, 0, STACK
        ARGFRAME IOVERLAY, 0, STATIC
        ARGFRAME DOVERLAY, 0, STATIC
        FUNCALL bdb_StopInitiatorFindingBinding, bdb_zclRespondentListClean
        LOCFRAME ISTACK, 2, STACK
        LOCFRAME PSTACK, 0, STACK
        LOCFRAME XSTACK, 0, STACK
        LOCFRAME IOVERLAY, 0, STATIC
        LOCFRAME DOVERLAY, 0, STATIC
        ARGFRAME ISTACK, 2, STACK
        ARGFRAME PSTACK, 0, STACK
        ARGFRAME XSTACK, 0, STACK
        ARGFRAME IOVERLAY, 0, STATIC
        ARGFRAME DOVERLAY, 0, STATIC
        FUNCALL bdb_StopInitiatorFindingBinding, osal_stop_timerEx
        LOCFRAME ISTACK, 2, STACK
        LOCFRAME PSTACK, 0, STACK
        LOCFRAME XSTACK, 0, STACK
        LOCFRAME IOVERLAY, 0, STATIC
        LOCFRAME DOVERLAY, 0, STATIC
        ARGFRAME ISTACK, 2, STACK
        ARGFRAME PSTACK, 0, STACK
        ARGFRAME XSTACK, 0, STACK
        ARGFRAME IOVERLAY, 0, STATIC
        ARGFRAME DOVERLAY, 0, STATIC
        FUNCALL bdb_StopInitiatorFindingBinding, bdb_exitFindingBindingWStatus
        LOCFRAME ISTACK, 2, STACK
        LOCFRAME PSTACK, 0, STACK
        LOCFRAME XSTACK, 0, STACK
        LOCFRAME IOVERLAY, 0, STATIC
        LOCFRAME DOVERLAY, 0, STATIC
        ARGFRAME ISTACK, 2, STACK
        ARGFRAME PSTACK, 0, STACK
        ARGFRAME XSTACK, 0, STACK
        ARGFRAME IOVERLAY, 0, STATIC
        ARGFRAME DOVERLAY, 0, STATIC
        PUSH      DPL
          CFI DPL0 Frame(CFA_SP, 4)
          CFI CFA_SP SP+-4
        PUSH      DPH
          CFI DPH0 Frame(CFA_SP, 5)
          CFI CFA_SP SP+-5
        ; Saved register size: 2
        ; Auto size: 0
//  389   //If periodic was triggered, then finish it
//  390   if(FINDING_AND_BINDING_PERIODIC_ENABLE == TRUE)                                  
//  391   {
//  392     bdb_FB_InitiatorCurrentCyclesNumber = 0;
        MOV       DPTR,#bdb_FB_InitiatorCurrentCyclesNumber
        CLR       A
        MOVX      @DPTR,A
//  393     osal_stop_timerEx(bdb_TaskID, BDB_FINDING_AND_BINDING_PERIOD_TIMEOUT);
        ; Setup parameters for call to function osal_stop_timerEx
        MOV       R2,#0x40
        MOV       R3,A
        LCALL     ??Subroutine47_0 & 0xFFFF
//  394   }      
//  395   //Clean the respondent list and stop its timer
//  396   bdb_zclRespondentListClean( &pRespondentHead );
??CrossCallReturnLabel_79:
        ; Setup parameters for call to function bdb_zclRespondentListClean
        MOV       R2,#pRespondentHead & 0xff
        MOV       R3,#(pRespondentHead >> 8) & 0xff
        LCALL     `??bdb_zclRespondentListClean::?relay`; Banked call to: bdb_zclRespondentListClean
//  397   osal_stop_timerEx( bdb_TaskID, BDB_RESPONDENT_PROCESS_TIMEOUT );
        ; Setup parameters for call to function osal_stop_timerEx
        LCALL     ?Subroutine24 & 0xFFFF
//  398   
//  399   //Notify status
//  400   bdb_exitFindingBindingWStatus( BDB_COMMISSIONING_FB_NO_IDENTIFY_QUERY_RESPONSE );
??CrossCallReturnLabel_77:
        ; Setup parameters for call to function bdb_exitFindingBindingWStatus
        MOV       R1,#0xb
        LCALL     `??bdb_exitFindingBindingWStatus::?relay`; Banked call to: bdb_exitFindingBindingWStatus
//  401 
//  402 }
        LJMP      ??Subroutine37_0 & 0xFFFF
          CFI EndBlock cfiBlock8
//  403 
//  404 
//  405 /*********************************************************************
//  406  * @fn      bdb_checkMatchingEndpoints
//  407  *
//  408  * @brief   Check active endpoints for F&B and the respondant simple descriptor 
//  409  *          for matching application clusters
//  410  *
//  411  * @param   pRespondant - Respondant to be process
//  412  * @param   bindIfMatch - Flag to indicate that binds for matching cluster must 
//  413  *                        be done
//  414  *
//  415  * @return  status - Result of the operation
//  416  */

        RSEG BANKED_CODE:HUGECODE:NOROOT(0)
//  417 void bdb_checkMatchingEndpoints(uint8 bindIfMatch, uint16 shortAddr, bdbFindingBindingRespondent_t **pCurr)
bdb_checkMatchingEndpoints:
          CFI Block cfiBlock9 Using cfiCommon0
          CFI Function bdb_checkMatchingEndpoints
        CODE
//  418 {
        FUNCALL bdb_checkMatchingEndpoints, AddrMgrExtAddrLookup
        LOCFRAME ISTACK, 0, STACK
        LOCFRAME PSTACK, 0, STACK
        LOCFRAME XSTACK, 29, STACK
        LOCFRAME IOVERLAY, 0, STATIC
        LOCFRAME DOVERLAY, 0, STATIC
        ARGFRAME ISTACK, 0, STACK
        ARGFRAME PSTACK, 0, STACK
        ARGFRAME XSTACK, 29, STACK
        ARGFRAME IOVERLAY, 0, STATIC
        ARGFRAME DOVERLAY, 0, STATIC
        FUNCALL bdb_checkMatchingEndpoints, bdb_zclFindingBindingAddBindEntry
        LOCFRAME ISTACK, 0, STACK
        LOCFRAME PSTACK, 0, STACK
        LOCFRAME XSTACK, 35, STACK
        LOCFRAME IOVERLAY, 0, STATIC
        LOCFRAME DOVERLAY, 0, STATIC
        ARGFRAME ISTACK, 0, STACK
        ARGFRAME PSTACK, 0, STACK
        ARGFRAME XSTACK, 35, STACK
        ARGFRAME IOVERLAY, 0, STATIC
        ARGFRAME DOVERLAY, 0, STATIC
        FUNCALL bdb_checkMatchingEndpoints, bdb_zclFindingBindingAddBindEntry
        LOCFRAME ISTACK, 0, STACK
        LOCFRAME PSTACK, 0, STACK
        LOCFRAME XSTACK, 35, STACK
        LOCFRAME IOVERLAY, 0, STATIC
        LOCFRAME DOVERLAY, 0, STATIC
        ARGFRAME ISTACK, 0, STACK
        ARGFRAME PSTACK, 0, STACK
        ARGFRAME XSTACK, 35, STACK
        ARGFRAME IOVERLAY, 0, STATIC
        ARGFRAME DOVERLAY, 0, STATIC
        FUNCALL bdb_checkMatchingEndpoints, osal_stop_timerEx
        LOCFRAME ISTACK, 0, STACK
        LOCFRAME PSTACK, 0, STACK
        LOCFRAME XSTACK, 29, STACK
        LOCFRAME IOVERLAY, 0, STATIC
        LOCFRAME DOVERLAY, 0, STATIC
        ARGFRAME ISTACK, 0, STACK
        ARGFRAME PSTACK, 0, STACK
        ARGFRAME XSTACK, 29, STACK
        ARGFRAME IOVERLAY, 0, STATIC
        ARGFRAME DOVERLAY, 0, STATIC
        FUNCALL bdb_checkMatchingEndpoints, bdb_zclSimpleDescClusterListClean
        LOCFRAME ISTACK, 0, STACK
        LOCFRAME PSTACK, 0, STACK
        LOCFRAME XSTACK, 29, STACK
        LOCFRAME IOVERLAY, 0, STATIC
        LOCFRAME DOVERLAY, 0, STATIC
        ARGFRAME ISTACK, 0, STACK
        ARGFRAME PSTACK, 0, STACK
        ARGFRAME XSTACK, 29, STACK
        ARGFRAME IOVERLAY, 0, STATIC
        ARGFRAME DOVERLAY, 0, STATIC
        FUNCALL bdb_checkMatchingEndpoints, osal_stop_timerEx
        LOCFRAME ISTACK, 0, STACK
        LOCFRAME PSTACK, 0, STACK
        LOCFRAME XSTACK, 29, STACK
        LOCFRAME IOVERLAY, 0, STATIC
        LOCFRAME DOVERLAY, 0, STATIC
        ARGFRAME ISTACK, 0, STACK
        ARGFRAME PSTACK, 0, STACK
        ARGFRAME XSTACK, 29, STACK
        ARGFRAME IOVERLAY, 0, STATIC
        ARGFRAME DOVERLAY, 0, STATIC
        FUNCALL bdb_checkMatchingEndpoints, bdb_exitFindingBindingWStatus
        LOCFRAME ISTACK, 0, STACK
        LOCFRAME PSTACK, 0, STACK
        LOCFRAME XSTACK, 29, STACK
        LOCFRAME IOVERLAY, 0, STATIC
        LOCFRAME DOVERLAY, 0, STATIC
        ARGFRAME ISTACK, 0, STACK
        ARGFRAME PSTACK, 0, STACK
        ARGFRAME XSTACK, 29, STACK
        ARGFRAME IOVERLAY, 0, STATIC
        ARGFRAME DOVERLAY, 0, STATIC
        REQUIRE ?V0
        REQUIRE ?V1
        REQUIRE ?V2
        REQUIRE ?V3
        REQUIRE ?V4
        REQUIRE ?V5
        REQUIRE ?V6
        REQUIRE ?V7
        REQUIRE ?V8
        REQUIRE ?V9
        REQUIRE ?V10
        REQUIRE ?V11
        MOV       A,#-0x14
        LCALL     ?BANKED_ENTER_XDATA
          CFI DPH0 load(1, XDATA, add(CFA_XSP16, literal(-1)))
          CFI DPL0 load(1, XDATA, add(CFA_XSP16, literal(-2)))
          CFI ?BRET_EXT load(1, XDATA, add(CFA_XSP16, literal(-3)))
          CFI ?RET_HIGH load(1, XDATA, add(CFA_XSP16, literal(-4)))
          CFI ?RET_LOW load(1, XDATA, add(CFA_XSP16, literal(-5)))
          CFI R7 load(1, XDATA, add(CFA_XSP16, literal(-6)))
          CFI V11 load(1, XDATA, add(CFA_XSP16, literal(-7)))
          CFI V10 load(1, XDATA, add(CFA_XSP16, literal(-8)))
          CFI V9 load(1, XDATA, add(CFA_XSP16, literal(-9)))
          CFI V8 load(1, XDATA, add(CFA_XSP16, literal(-10)))
          CFI V7 load(1, XDATA, add(CFA_XSP16, literal(-11)))
          CFI V6 load(1, XDATA, add(CFA_XSP16, literal(-12)))
          CFI V5 load(1, XDATA, add(CFA_XSP16, literal(-13)))
          CFI V4 load(1, XDATA, add(CFA_XSP16, literal(-14)))
          CFI V3 load(1, XDATA, add(CFA_XSP16, literal(-15)))
          CFI V2 load(1, XDATA, add(CFA_XSP16, literal(-16)))
          CFI V1 load(1, XDATA, add(CFA_XSP16, literal(-17)))
          CFI V0 load(1, XDATA, add(CFA_XSP16, literal(-18)))
          CFI VB load(1, XDATA, add(CFA_XSP16, literal(-19)))
          CFI R6 load(1, XDATA, add(CFA_XSP16, literal(-20)))
          CFI CFA_SP SP+0
          CFI CFA_XSP16 add(XSP16, 20)
        ; Saved register size: 20
        ; Auto size: 9
        MOV       A,#-0x9
        LCALL     ?ALLOC_XSTACK8
          CFI CFA_XSP16 add(XSP16, 29)
        MOV       A,R1
        MOV       R7,A
        MOV       ?V10,R2
        MOV       ?V11,R3
        MOV       ?V6,R4
        MOV       ?V7,R5
//  419   uint8 matchFound;
//  420   endPointDesc_t *bdb_CurrEpDescriptor;
//  421   uint8 i, status;
//  422   zAddrType_t dstAddr;
//  423 #ifdef ZCL_GROUPS
//  424   afAddrType_t afDstAddr;
//  425 #endif  
//  426   
//  427   //Check all the endpoints active for F&B
//  428   while(bdb_CurrEpDescriptorList != NULL)
        MOV       DPTR,#bdb_CurrEpDescriptorList
        LCALL     ??Subroutine52_0 & 0xFFFF
??CrossCallReturnLabel_107:
        JNZ       $+5
        LJMP      ??bdb_checkMatchingEndpoints_0 & 0xFFFF
//  429   {
//  430     matchFound = FALSE;
??bdb_checkMatchingEndpoints_1:
        MOV       R6,#0x0
//  431 
//  432     bdb_CurrEpDescriptor = bdb_CurrEpDescriptorList->epDesc;
        LCALL     ?Subroutine11 & 0xFFFF
??CrossCallReturnLabel_12:
        MOV       ?V2,A
        INC       DPTR
        MOVX      A,@DPTR
        MOV       ?V3,A
//  433 
//  434 #ifdef ZCL_GROUPS
//  435     if ( bdbAttributes.bdbCommissioningGroupID != 0xFFFF )    
//  436     {
//  437       zcl_registerClusterOptionList(bdb_CurrEpDescriptor->endPoint,1,zcl_Groups_Options);      
//  438       
//  439       dstAddr.addr.shortAddr = bdbAttributes.bdbCommissioningGroupID;
//  440       dstAddr.addrMode = AddrGroup;
//  441     }
//  442     else
//  443 #endif
//  444     {
//  445       dstAddr.addrMode = Addr64Bit;
        MOV       A,#0x8
        LCALL     ?XSTACK_DISP0_8
        MOV       A,#0x3
        MOVX      @DPTR,A
//  446       if(bindIfMatch)
        MOV       A,R7
        JZ        ??bdb_checkMatchingEndpoints_2
//  447       {
//  448         //if bind is to be created, then we should have the ext address in addr mgr
//  449         AddrMgrExtAddrLookup( shortAddr, dstAddr.addr.extAddr );
        ; Setup parameters for call to function AddrMgrExtAddrLookup
        MOV       R4,?XSP + 0
        MOV       R5,?XSP + 1
        MOV       R2,?V10
        MOV       R3,?V11
        LCALL     `??AddrMgrExtAddrLookup::?relay`; Banked call to: AddrMgrExtAddrLookup
//  450       }
//  451     }
//  452     for(i = 0; i < bdb_CurrEpDescriptor->simpleDesc->AppNumOutClusters; i++)
??bdb_checkMatchingEndpoints_2:
        MOV       ?V0,#0x0
        MOV       A,?V2
        ADD       A,#0x4
        MOV       ?V4,A
        CLR       A
        ADDC      A,?V3
        MOV       ?V5,A
        SJMP      ??bdb_checkMatchingEndpoints_3
//  453     {
//  454       //Filter for Application clusters (to bind app clusters only)
//  455       status = bdb_zclFindingBindingAddBindEntry( bdb_CurrEpDescriptor->endPoint,
//  456                               bdb_CurrEpDescriptor->simpleDesc->pAppOutClusterList[i],
//  457                               bdb_FindingBindingTargetSimpleDesc.AppNumInClusters,
//  458                               bdb_FindingBindingTargetSimpleDesc.pAppInClusterList,
//  459                               &dstAddr, bdb_FindingBindingTargetSimpleDesc.EndPoint, bindIfMatch, TRUE );
??bdb_checkMatchingEndpoints_4:
        ; Setup parameters for call to function bdb_zclFindingBindingAddBindEntry
        MOV       ?V1,#0x1
        MOV       R0,#?V1
        LCALL     ?PUSH_XSTACK_I_ONE
          CFI CFA_XSP16 add(XSP16, 30)
        MOV       A,R7
        MOV       ?V1,A
        MOV       R0,#?V1
        LCALL     ?PUSH_XSTACK_I_ONE
          CFI CFA_XSP16 add(XSP16, 31)
        MOV       A,#0x2
        LCALL     ?XSTACK_DISP100_8
        MOV       ?V8,R0
        MOV       ?V9,R1
        MOV       R0,#?V8
        LCALL     ?PUSH_XSTACK_I_TWO
          CFI CFA_XSP16 add(XSP16, 33)
        MOV       DPTR,#bdb_FindingBindingTargetSimpleDesc + 7
        LCALL     ?PUSH_XSTACK8_X_TWO
          CFI CFA_XSP16 add(XSP16, 35)
        MOV       DPTR,#bdb_FindingBindingTargetSimpleDesc
        MOVX      A,@DPTR
        MOV       R5,A
        MOV       DPTR,#bdb_FindingBindingTargetSimpleDesc + 6
        LCALL     ?Subroutine17 & 0xFFFF
??CrossCallReturnLabel_20:
        INC       DPTR
        INC       DPTR
        INC       DPTR
        LCALL     ?Subroutine8 & 0xFFFF
??CrossCallReturnLabel_5:
        LCALL     ?DEALLOC_XSTACK8
          CFI CFA_XSP16 add(XSP16, 29)
        MOV       A,R1
        MOV       ?V1,A
//  460       
//  461       if ( status == ZApsTableFull )
        MOV       A,#-0x4e
        XRL       A,R1
        JZ        ??bdb_checkMatchingEndpoints_5
//  462       {
//  463         break;
//  464       }
//  465       else if(status == ZSuccess)
        MOV       A,R1
        JNZ       ??bdb_checkMatchingEndpoints_6
//  466       {
//  467         matchFound = TRUE;
        MOV       R6,#0x1
//  468         //If a match is found and we are not adding due to lack of IEEE addrs, then skip looking
//  469         if(!bindIfMatch)
        MOV       A,R7
        JZ        ??bdb_checkMatchingEndpoints_7
//  470         {
//  471           break;
//  472         }
//  473       }
//  474     }
??bdb_checkMatchingEndpoints_6:
        INC       ?V0
??bdb_checkMatchingEndpoints_3:
        LCALL     ?Subroutine13 & 0xFFFF
??CrossCallReturnLabel_16:
        INC       DPTR
        INC       DPTR
        INC       DPTR
        MOVX      A,@DPTR
        MOV       R0,A
        MOV       A,?V0
        CLR       C
        SUBB      A,R0
        JC        ??bdb_checkMatchingEndpoints_4
//  475     
//  476     //Only search for other matches if the table is not full and we have not 
//  477     //found any match or we have to add bind as many as we can
//  478     if( (status != ZApsTableFull) && (!matchFound || bindIfMatch) )      
        MOV       A,#-0x4e
        XRL       A,?V1
        JZ        ??bdb_checkMatchingEndpoints_5
        MOV       A,R6
        MOV       C,0xE0 /* A   */.0
        JNC       ??bdb_checkMatchingEndpoints_8
        MOV       A,R7
        JZ        ??bdb_checkMatchingEndpoints_5
//  479     {
//  480       for(i = 0; i < bdb_CurrEpDescriptor->simpleDesc->AppNumInClusters; i++)
??bdb_checkMatchingEndpoints_8:
        MOV       ?V0,#0x0
        SJMP      ??bdb_checkMatchingEndpoints_9
//  481       {
//  482         //Filter for Application clusters (to bind app clusters only)
//  483         status = bdb_zclFindingBindingAddBindEntry( bdb_CurrEpDescriptor->endPoint,
//  484                                 bdb_CurrEpDescriptor->simpleDesc->pAppInClusterList[i],
//  485                                 bdb_FindingBindingTargetSimpleDesc.AppNumOutClusters,
//  486                                 bdb_FindingBindingTargetSimpleDesc.pAppOutClusterList,
//  487                                 &dstAddr, bdb_FindingBindingTargetSimpleDesc.EndPoint, bindIfMatch, FALSE );
//  488 
//  489         if ( status == ZApsTableFull )
//  490         {
//  491           break;
//  492         }
//  493         else if(status == ZSuccess)
??bdb_checkMatchingEndpoints_10:
        MOV       A,R1
        JNZ       ??bdb_checkMatchingEndpoints_11
//  494         {
//  495           matchFound = TRUE;
        MOV       R6,#0x1
//  496           
//  497           //If a match is found and we are not adding due to lack of IEEE addrs, then skip looking
//  498           if(!bindIfMatch)
        MOV       A,R7
        JZ        ??bdb_checkMatchingEndpoints_7
//  499           {
//  500             break;
//  501           }
//  502         }
??bdb_checkMatchingEndpoints_11:
        INC       ?V0
??bdb_checkMatchingEndpoints_9:
        LCALL     ?Subroutine13 & 0xFFFF
??CrossCallReturnLabel_17:
        MOVX      A,@DPTR
        MOV       R0,A
        MOV       A,?V0
        CLR       C
        SUBB      A,R0
        JNC       ??bdb_checkMatchingEndpoints_5
        ; Setup parameters for call to function bdb_zclFindingBindingAddBindEntry
        MOV       ?V1,#0x0
        MOV       R0,#?V1
        LCALL     ?PUSH_XSTACK_I_ONE
          CFI CFA_XSP16 add(XSP16, 30)
        MOV       A,R7
        MOV       ?V1,A
        MOV       R0,#?V1
        LCALL     ?PUSH_XSTACK_I_ONE
          CFI CFA_XSP16 add(XSP16, 31)
        MOV       A,#0x2
        LCALL     ?XSTACK_DISP100_8
        MOV       ?V8,R0
        MOV       ?V9,R1
        MOV       R0,#?V8
        LCALL     ?PUSH_XSTACK_I_TWO
          CFI CFA_XSP16 add(XSP16, 33)
        MOV       DPTR,#bdb_FindingBindingTargetSimpleDesc + 10
        LCALL     ?PUSH_XSTACK8_X_TWO
          CFI CFA_XSP16 add(XSP16, 35)
        MOV       DPTR,#bdb_FindingBindingTargetSimpleDesc
        MOVX      A,@DPTR
        MOV       R5,A
        MOV       DPTR,#bdb_FindingBindingTargetSimpleDesc + 9
        LCALL     ?Subroutine17 & 0xFFFF
??CrossCallReturnLabel_21:
        LCALL     ?Subroutine8 & 0xFFFF
??CrossCallReturnLabel_6:
        LCALL     ?DEALLOC_XSTACK8
          CFI CFA_XSP16 add(XSP16, 29)
        MOV       A,R1
        MOV       ?V1,A
        MOV       A,#-0x4e
        XRL       A,R1
        JNZ       ??bdb_checkMatchingEndpoints_10
//  503       }
//  504     }
//  505     
//  506     //Check if we have found any match
//  507     if( matchFound == TRUE )
??bdb_checkMatchingEndpoints_5:
        MOV       A,R6
        MOV       C,0xE0 /* A   */.0
        JNC       ??bdb_checkMatchingEndpoints_12
//  508     {
//  509       if(bindIfMatch)
        MOV       A,R7
        JNZ       ??bdb_checkMatchingEndpoints_12
//  510       {
//  511         //Mark respondent as complete as simple desc has been process and we do 
//  512         //have IEEE addrs
//  513         (*pCurr)->attempts = FINDING_AND_BINDING_RESPONDENT_COMPLETE;
//  514       }
//  515       else
//  516       {
//  517         //Mark as we need IEEE addrs
//  518         (*pCurr)->attempts = FINDING_AND_BINDING_MISSING_IEEE_ADDR;
??bdb_checkMatchingEndpoints_7:
        MOV       DPL,?V6
        MOV       DPH,?V7
        LCALL     ??Subroutine48_0 & 0xFFFF
//  519       }
//  520 
//  521 #ifdef ZCL_GROUPS
//  522       if ( bdbAttributes.bdbCommissioningGroupID != 0xFFFF )
//  523       {
//  524         afDstAddr.addr.shortAddr = shortAddr;
//  525         afDstAddr.addrMode = afAddr16Bit;
//  526         afDstAddr.endPoint = bdb_FindingBindingTargetSimpleDesc.EndPoint;
//  527             
//  528         zclGeneral_SendAddGroupRequest( bdb_CurrEpDescriptor->endPoint, &afDstAddr,
//  529                                     COMMAND_GROUP_ADD, bdbAttributes.bdbCommissioningGroupID, grpName,
//  530                                     TRUE, 0x00 );
//  531       }
//  532 #endif
//  533     }
??CrossCallReturnLabel_83:
        LCALL     ?Subroutine36 & 0xFFFF
??CrossCallReturnLabel_101:
        MOV       A,#-0x80
        SJMP      ??CrossCallReturnLabel_19
//  534     else
//  535     {
//  536       //No matching cluster, then we are done with this respondent
//  537       (*pCurr)->attempts = FINDING_AND_BINDING_RESPONDENT_COMPLETE;
??bdb_checkMatchingEndpoints_12:
        MOV       DPL,?V6
        MOV       DPH,?V7
        LCALL     ?Subroutine15 & 0xFFFF
//  538     }
??CrossCallReturnLabel_19:
        MOVX      @DPTR,A
//  539     
//  540     if ( status == ZApsTableFull )
        MOV       A,#-0x4e
        XRL       A,?V1
        JNZ       ??bdb_checkMatchingEndpoints_13
//  541     {
//  542       //If periodic was triggered, then finish it
//  543       if(FINDING_AND_BINDING_PERIODIC_ENABLE == TRUE)                                  
//  544       {
//  545         bdb_FB_InitiatorCurrentCyclesNumber = 0;
        LCALL     ?Subroutine7 & 0xFFFF
//  546         osal_stop_timerEx(bdb_TaskID, BDB_FINDING_AND_BINDING_PERIOD_TIMEOUT);
//  547       }      
//  548       
//  549       bdb_zclSimpleDescClusterListClean( &bdb_FindingBindingTargetSimpleDesc );
//  550       osal_stop_timerEx( bdb_TaskID, BDB_RESPONDENT_PROCESS_TIMEOUT );
//  551       bdb_exitFindingBindingWStatus( BDB_COMMISSIONING_FB_BINDING_TABLE_FULL );
//  552       
//  553       return;
??CrossCallReturnLabel_4:
        SJMP      ??bdb_checkMatchingEndpoints_0
//  554     }
//  555     
//  556     //If an specific endpoint was requested, then don't go trough the rest of 
//  557     //the endpoints
//  558     if( bdbIndentifyActiveEndpoint != 0xFF )
??bdb_checkMatchingEndpoints_13:
        MOV       DPTR,#bdbIndentifyActiveEndpoint
        MOVX      A,@DPTR
        CPL       A
        JNZ       ??bdb_checkMatchingEndpoints_0
//  559     {
//  560       break;
//  561     }
//  562     else
//  563     {
//  564       //If active endpoints 'all' is attempted, then process the next endpoint in 
//  565       //the list
//  566       bdb_CurrEpDescriptorList = bdb_CurrEpDescriptorList->nextDesc;
        SJMP      ??bdb_checkMatchingEndpoints_14
//  567 
//  568       while(bdb_CurrEpDescriptorList != NULL)
//  569       {
//  570         //It has to be different from 0 or reserved for Zigbee
//  571         if((bdb_CurrEpDescriptorList->epDesc->endPoint != 0) && (bdb_CurrEpDescriptorList->epDesc->endPoint < BDB_ZIGBEE_RESERVED_ENDPOINTS_START))
??bdb_checkMatchingEndpoints_15:
        LCALL     ?Subroutine12 & 0xFFFF
??CrossCallReturnLabel_15:
        JZ        ??bdb_checkMatchingEndpoints_14
        CLR       C
        SUBB      A,#-0xf
        JNC       $+5
        LJMP      ??bdb_checkMatchingEndpoints_1 & 0xFFFF
//  572         {
//  573           break;
//  574         }
//  575         bdb_CurrEpDescriptorList = bdb_CurrEpDescriptorList->nextDesc;
??bdb_checkMatchingEndpoints_14:
        LCALL     ?Subroutine5 & 0xFFFF
//  576       }
??CrossCallReturnLabel_2:
        MOV       DPTR,#bdb_CurrEpDescriptorList
        LCALL     ??Subroutine52_0 & 0xFFFF
//  577     }
//  578   }
??CrossCallReturnLabel_108:
        JNZ       ??bdb_checkMatchingEndpoints_15
//  579 }
??bdb_checkMatchingEndpoints_0:
        MOV       A,#0x9
        LCALL     ?DEALLOC_XSTACK8
          CFI EndBlock cfiBlock9
        REQUIRE ?Subroutine2
        ; // Fall through to label ?Subroutine2

        RSEG BANKED_CODE:HUGECODE:NOROOT(0)
?Subroutine2:
          CFI Block cfiBlock10 Using cfiCommon0
          CFI NoFunction
          CFI CFA_SP SP+0
          CFI CFA_XSP16 add(XSP16, 20)
          CFI VB load(1, XDATA, add(CFA_XSP16, literal(-19)))
          CFI DPL0 load(1, XDATA, add(CFA_XSP16, literal(-2)))
          CFI DPH0 load(1, XDATA, add(CFA_XSP16, literal(-1)))
          CFI R6 load(1, XDATA, add(CFA_XSP16, literal(-20)))
          CFI R7 load(1, XDATA, add(CFA_XSP16, literal(-6)))
          CFI V0 load(1, XDATA, add(CFA_XSP16, literal(-18)))
          CFI V1 load(1, XDATA, add(CFA_XSP16, literal(-17)))
          CFI V2 load(1, XDATA, add(CFA_XSP16, literal(-16)))
          CFI V3 load(1, XDATA, add(CFA_XSP16, literal(-15)))
          CFI V4 load(1, XDATA, add(CFA_XSP16, literal(-14)))
          CFI V5 load(1, XDATA, add(CFA_XSP16, literal(-13)))
          CFI V6 load(1, XDATA, add(CFA_XSP16, literal(-12)))
          CFI V7 load(1, XDATA, add(CFA_XSP16, literal(-11)))
          CFI V8 load(1, XDATA, add(CFA_XSP16, literal(-10)))
          CFI V9 load(1, XDATA, add(CFA_XSP16, literal(-9)))
          CFI V10 load(1, XDATA, add(CFA_XSP16, literal(-8)))
          CFI V11 load(1, XDATA, add(CFA_XSP16, literal(-7)))
          CFI ?BRET_EXT load(1, XDATA, add(CFA_XSP16, literal(-3)))
          CFI ?RET_HIGH load(1, XDATA, add(CFA_XSP16, literal(-4)))
          CFI ?RET_LOW load(1, XDATA, add(CFA_XSP16, literal(-5)))
        MOV       R7,#0xc
        LJMP      ?BANKED_LEAVE_XDATA
          CFI EndBlock cfiBlock10

        RSEG BANKED_CODE:HUGECODE:NOROOT(0)
?Subroutine17:
          CFI Block cfiCond11 Using cfiCommon0
          CFI Function bdb_checkMatchingEndpoints
          CFI Conditional ??CrossCallReturnLabel_20
          CFI R6 load(1, XDATA, add(CFA_XSP16, literal(-20)))
          CFI VB load(1, XDATA, add(CFA_XSP16, literal(-19)))
          CFI V0 load(1, XDATA, add(CFA_XSP16, literal(-18)))
          CFI V1 load(1, XDATA, add(CFA_XSP16, literal(-17)))
          CFI V2 load(1, XDATA, add(CFA_XSP16, literal(-16)))
          CFI V3 load(1, XDATA, add(CFA_XSP16, literal(-15)))
          CFI V4 load(1, XDATA, add(CFA_XSP16, literal(-14)))
          CFI V5 load(1, XDATA, add(CFA_XSP16, literal(-13)))
          CFI V6 load(1, XDATA, add(CFA_XSP16, literal(-12)))
          CFI V7 load(1, XDATA, add(CFA_XSP16, literal(-11)))
          CFI V8 load(1, XDATA, add(CFA_XSP16, literal(-10)))
          CFI V9 load(1, XDATA, add(CFA_XSP16, literal(-9)))
          CFI V10 load(1, XDATA, add(CFA_XSP16, literal(-8)))
          CFI V11 load(1, XDATA, add(CFA_XSP16, literal(-7)))
          CFI R7 load(1, XDATA, add(CFA_XSP16, literal(-6)))
          CFI ?RET_LOW load(1, XDATA, add(CFA_XSP16, literal(-5)))
          CFI ?RET_HIGH load(1, XDATA, add(CFA_XSP16, literal(-4)))
          CFI ?BRET_EXT load(1, XDATA, add(CFA_XSP16, literal(-3)))
          CFI DPL0 load(1, XDATA, add(CFA_XSP16, literal(-2)))
          CFI DPH0 load(1, XDATA, add(CFA_XSP16, literal(-1)))
          CFI CFA_SP SP+-2
          CFI CFA_XSP16 add(XSP16, 35)
          CFI Block cfiCond12 Using cfiCommon0
          CFI (cfiCond12) Function bdb_checkMatchingEndpoints
          CFI (cfiCond12) Conditional ??CrossCallReturnLabel_21
          CFI (cfiCond12) R6 load(1, XDATA, add(CFA_XSP16, literal(-20)))
          CFI (cfiCond12) VB load(1, XDATA, add(CFA_XSP16, literal(-19)))
          CFI (cfiCond12) V0 load(1, XDATA, add(CFA_XSP16, literal(-18)))
          CFI (cfiCond12) V1 load(1, XDATA, add(CFA_XSP16, literal(-17)))
          CFI (cfiCond12) V2 load(1, XDATA, add(CFA_XSP16, literal(-16)))
          CFI (cfiCond12) V3 load(1, XDATA, add(CFA_XSP16, literal(-15)))
          CFI (cfiCond12) V4 load(1, XDATA, add(CFA_XSP16, literal(-14)))
          CFI (cfiCond12) V5 load(1, XDATA, add(CFA_XSP16, literal(-13)))
          CFI (cfiCond12) V6 load(1, XDATA, add(CFA_XSP16, literal(-12)))
          CFI (cfiCond12) V7 load(1, XDATA, add(CFA_XSP16, literal(-11)))
          CFI (cfiCond12) V8 load(1, XDATA, add(CFA_XSP16, literal(-10)))
          CFI (cfiCond12) V9 load(1, XDATA, add(CFA_XSP16, literal(-9)))
          CFI (cfiCond12) V10 load(1, XDATA, add(CFA_XSP16, literal(-8)))
          CFI (cfiCond12) V11 load(1, XDATA, add(CFA_XSP16, literal(-7)))
          CFI (cfiCond12) R7 load(1, XDATA, add(CFA_XSP16, literal(-6)))
          CFI (cfiCond12) ?RET_LOW load(1, XDATA, add(CFA_XSP16, literal(-5)))
          CFI (cfiCond12) ?RET_HIGH load(1, XDATA, add(CFA_XSP16, literal(-4)))
          CFI (cfiCond12) ?BRET_EXT load(1, XDATA, add(CFA_XSP16, literal(-3)))
          CFI (cfiCond12) DPL0 load(1, XDATA, add(CFA_XSP16, literal(-2)))
          CFI (cfiCond12) DPH0 load(1, XDATA, add(CFA_XSP16, literal(-1)))
          CFI (cfiCond12) CFA_SP SP+-2
          CFI (cfiCond12) CFA_XSP16 add(XSP16, 35)
          CFI Block cfiPicker13 Using cfiCommon1
          CFI (cfiPicker13) NoFunction
          CFI (cfiPicker13) Picker
        MOVX      A,@DPTR
        MOV       R4,A
        MOV       R0,?V0
        MOV       A,R0
        ADD       A,R0
        MOV       R0,A
        CLR       A
        RLC       A
        MOV       R1,A
        MOV       DPL,R2
        MOV       DPH,R3
        RET
          CFI EndBlock cfiCond11
          CFI EndBlock cfiCond12
          CFI EndBlock cfiPicker13

        RSEG BANKED_CODE:HUGECODE:NOROOT(0)
?Subroutine15:
          CFI Block cfiCond14 Using cfiCommon0
          CFI Function bdb_ProcessIEEEAddrRsp
          CFI Conditional ??CrossCallReturnLabel_18
          CFI R6 load(1, XDATA, add(CFA_XSP16, literal(-10)))
          CFI VB load(1, XDATA, add(CFA_XSP16, literal(-9)))
          CFI V0 load(1, XDATA, add(CFA_XSP16, literal(-8)))
          CFI V1 load(1, XDATA, add(CFA_XSP16, literal(-7)))
          CFI R7 load(1, XDATA, add(CFA_XSP16, literal(-6)))
          CFI ?RET_LOW load(1, XDATA, add(CFA_XSP16, literal(-5)))
          CFI ?RET_HIGH load(1, XDATA, add(CFA_XSP16, literal(-4)))
          CFI ?BRET_EXT load(1, XDATA, add(CFA_XSP16, literal(-3)))
          CFI DPL0 load(1, XDATA, add(CFA_XSP16, literal(-2)))
          CFI DPH0 load(1, XDATA, add(CFA_XSP16, literal(-1)))
          CFI CFA_SP SP+-2
          CFI CFA_XSP16 add(XSP16, 25)
          CFI Block cfiCond15 Using cfiCommon0
          CFI (cfiCond15) Function bdb_checkMatchingEndpoints
          CFI (cfiCond15) Conditional ??CrossCallReturnLabel_19
          CFI (cfiCond15) R6 load(1, XDATA, add(CFA_XSP16, literal(-20)))
          CFI (cfiCond15) VB load(1, XDATA, add(CFA_XSP16, literal(-19)))
          CFI (cfiCond15) V0 load(1, XDATA, add(CFA_XSP16, literal(-18)))
          CFI (cfiCond15) V1 load(1, XDATA, add(CFA_XSP16, literal(-17)))
          CFI (cfiCond15) V2 load(1, XDATA, add(CFA_XSP16, literal(-16)))
          CFI (cfiCond15) V3 load(1, XDATA, add(CFA_XSP16, literal(-15)))
          CFI (cfiCond15) V4 load(1, XDATA, add(CFA_XSP16, literal(-14)))
          CFI (cfiCond15) V5 load(1, XDATA, add(CFA_XSP16, literal(-13)))
          CFI (cfiCond15) V6 load(1, XDATA, add(CFA_XSP16, literal(-12)))
          CFI (cfiCond15) V7 load(1, XDATA, add(CFA_XSP16, literal(-11)))
          CFI (cfiCond15) V8 load(1, XDATA, add(CFA_XSP16, literal(-10)))
          CFI (cfiCond15) V9 load(1, XDATA, add(CFA_XSP16, literal(-9)))
          CFI (cfiCond15) V10 load(1, XDATA, add(CFA_XSP16, literal(-8)))
          CFI (cfiCond15) V11 load(1, XDATA, add(CFA_XSP16, literal(-7)))
          CFI (cfiCond15) R7 load(1, XDATA, add(CFA_XSP16, literal(-6)))
          CFI (cfiCond15) ?RET_LOW load(1, XDATA, add(CFA_XSP16, literal(-5)))
          CFI (cfiCond15) ?RET_HIGH load(1, XDATA, add(CFA_XSP16, literal(-4)))
          CFI (cfiCond15) ?BRET_EXT load(1, XDATA, add(CFA_XSP16, literal(-3)))
          CFI (cfiCond15) DPL0 load(1, XDATA, add(CFA_XSP16, literal(-2)))
          CFI (cfiCond15) DPH0 load(1, XDATA, add(CFA_XSP16, literal(-1)))
          CFI (cfiCond15) CFA_SP SP+-2
          CFI (cfiCond15) CFA_XSP16 add(XSP16, 29)
          CFI Block cfiPicker16 Using cfiCommon1
          CFI (cfiPicker16) NoFunction
          CFI (cfiPicker16) Picker
        LCALL     ?Subroutine26 & 0xFFFF
??CrossCallReturnLabel_99:
        MOV       A,#-0x1
        RET
          CFI EndBlock cfiCond14
          CFI EndBlock cfiCond15
          CFI EndBlock cfiPicker16

        RSEG BANKED_CODE:HUGECODE:NOROOT(0)
?Subroutine13:
          CFI Block cfiCond17 Using cfiCommon0
          CFI Function bdb_checkMatchingEndpoints
          CFI Conditional ??CrossCallReturnLabel_16
          CFI R6 load(1, XDATA, add(CFA_XSP16, literal(-20)))
          CFI VB load(1, XDATA, add(CFA_XSP16, literal(-19)))
          CFI V0 load(1, XDATA, add(CFA_XSP16, literal(-18)))
          CFI V1 load(1, XDATA, add(CFA_XSP16, literal(-17)))
          CFI V2 load(1, XDATA, add(CFA_XSP16, literal(-16)))
          CFI V3 load(1, XDATA, add(CFA_XSP16, literal(-15)))
          CFI V4 load(1, XDATA, add(CFA_XSP16, literal(-14)))
          CFI V5 load(1, XDATA, add(CFA_XSP16, literal(-13)))
          CFI V6 load(1, XDATA, add(CFA_XSP16, literal(-12)))
          CFI V7 load(1, XDATA, add(CFA_XSP16, literal(-11)))
          CFI V8 load(1, XDATA, add(CFA_XSP16, literal(-10)))
          CFI V9 load(1, XDATA, add(CFA_XSP16, literal(-9)))
          CFI V10 load(1, XDATA, add(CFA_XSP16, literal(-8)))
          CFI V11 load(1, XDATA, add(CFA_XSP16, literal(-7)))
          CFI R7 load(1, XDATA, add(CFA_XSP16, literal(-6)))
          CFI ?RET_LOW load(1, XDATA, add(CFA_XSP16, literal(-5)))
          CFI ?RET_HIGH load(1, XDATA, add(CFA_XSP16, literal(-4)))
          CFI ?BRET_EXT load(1, XDATA, add(CFA_XSP16, literal(-3)))
          CFI DPL0 load(1, XDATA, add(CFA_XSP16, literal(-2)))
          CFI DPH0 load(1, XDATA, add(CFA_XSP16, literal(-1)))
          CFI CFA_SP SP+-2
          CFI CFA_XSP16 add(XSP16, 29)
          CFI Block cfiCond18 Using cfiCommon0
          CFI (cfiCond18) Function bdb_checkMatchingEndpoints
          CFI (cfiCond18) Conditional ??CrossCallReturnLabel_17
          CFI (cfiCond18) R6 load(1, XDATA, add(CFA_XSP16, literal(-20)))
          CFI (cfiCond18) VB load(1, XDATA, add(CFA_XSP16, literal(-19)))
          CFI (cfiCond18) V0 load(1, XDATA, add(CFA_XSP16, literal(-18)))
          CFI (cfiCond18) V1 load(1, XDATA, add(CFA_XSP16, literal(-17)))
          CFI (cfiCond18) V2 load(1, XDATA, add(CFA_XSP16, literal(-16)))
          CFI (cfiCond18) V3 load(1, XDATA, add(CFA_XSP16, literal(-15)))
          CFI (cfiCond18) V4 load(1, XDATA, add(CFA_XSP16, literal(-14)))
          CFI (cfiCond18) V5 load(1, XDATA, add(CFA_XSP16, literal(-13)))
          CFI (cfiCond18) V6 load(1, XDATA, add(CFA_XSP16, literal(-12)))
          CFI (cfiCond18) V7 load(1, XDATA, add(CFA_XSP16, literal(-11)))
          CFI (cfiCond18) V8 load(1, XDATA, add(CFA_XSP16, literal(-10)))
          CFI (cfiCond18) V9 load(1, XDATA, add(CFA_XSP16, literal(-9)))
          CFI (cfiCond18) V10 load(1, XDATA, add(CFA_XSP16, literal(-8)))
          CFI (cfiCond18) V11 load(1, XDATA, add(CFA_XSP16, literal(-7)))
          CFI (cfiCond18) R7 load(1, XDATA, add(CFA_XSP16, literal(-6)))
          CFI (cfiCond18) ?RET_LOW load(1, XDATA, add(CFA_XSP16, literal(-5)))
          CFI (cfiCond18) ?RET_HIGH load(1, XDATA, add(CFA_XSP16, literal(-4)))
          CFI (cfiCond18) ?BRET_EXT load(1, XDATA, add(CFA_XSP16, literal(-3)))
          CFI (cfiCond18) DPL0 load(1, XDATA, add(CFA_XSP16, literal(-2)))
          CFI (cfiCond18) DPH0 load(1, XDATA, add(CFA_XSP16, literal(-1)))
          CFI (cfiCond18) CFA_SP SP+-2
          CFI (cfiCond18) CFA_XSP16 add(XSP16, 29)
          CFI Block cfiPicker19 Using cfiCommon1
          CFI (cfiPicker19) NoFunction
          CFI (cfiPicker19) Picker
        MOV       DPL,?V4
        MOV       DPH,?V5
        LCALL     ?Subroutine29 & 0xFFFF
??CrossCallReturnLabel_75:
        MOV       DPL,R2
        MOV       DPH,A
        INC       DPTR
        INC       DPTR
        INC       DPTR
        INC       DPTR
        INC       DPTR
        INC       DPTR
        RET
          CFI EndBlock cfiCond17
          CFI EndBlock cfiCond18
          CFI EndBlock cfiPicker19

        RSEG BANKED_CODE:HUGECODE:NOROOT(0)
?Subroutine12:
          CFI Block cfiCond20 Using cfiCommon0
          CFI Function bdb_setEpDescListToActiveEndpoint
          CFI Conditional ??CrossCallReturnLabel_14
          CFI DPL0 Frame(CFA_SP, 4)
          CFI DPH0 Frame(CFA_SP, 5)
          CFI CFA_SP SP+-7
          CFI Block cfiCond21 Using cfiCommon0
          CFI (cfiCond21) Function bdb_checkMatchingEndpoints
          CFI (cfiCond21) Conditional ??CrossCallReturnLabel_15
          CFI (cfiCond21) R6 load(1, XDATA, add(CFA_XSP16, literal(-20)))
          CFI (cfiCond21) VB load(1, XDATA, add(CFA_XSP16, literal(-19)))
          CFI (cfiCond21) V0 load(1, XDATA, add(CFA_XSP16, literal(-18)))
          CFI (cfiCond21) V1 load(1, XDATA, add(CFA_XSP16, literal(-17)))
          CFI (cfiCond21) V2 load(1, XDATA, add(CFA_XSP16, literal(-16)))
          CFI (cfiCond21) V3 load(1, XDATA, add(CFA_XSP16, literal(-15)))
          CFI (cfiCond21) V4 load(1, XDATA, add(CFA_XSP16, literal(-14)))
          CFI (cfiCond21) V5 load(1, XDATA, add(CFA_XSP16, literal(-13)))
          CFI (cfiCond21) V6 load(1, XDATA, add(CFA_XSP16, literal(-12)))
          CFI (cfiCond21) V7 load(1, XDATA, add(CFA_XSP16, literal(-11)))
          CFI (cfiCond21) V8 load(1, XDATA, add(CFA_XSP16, literal(-10)))
          CFI (cfiCond21) V9 load(1, XDATA, add(CFA_XSP16, literal(-9)))
          CFI (cfiCond21) V10 load(1, XDATA, add(CFA_XSP16, literal(-8)))
          CFI (cfiCond21) V11 load(1, XDATA, add(CFA_XSP16, literal(-7)))
          CFI (cfiCond21) R7 load(1, XDATA, add(CFA_XSP16, literal(-6)))
          CFI (cfiCond21) ?RET_LOW load(1, XDATA, add(CFA_XSP16, literal(-5)))
          CFI (cfiCond21) ?RET_HIGH load(1, XDATA, add(CFA_XSP16, literal(-4)))
          CFI (cfiCond21) ?BRET_EXT load(1, XDATA, add(CFA_XSP16, literal(-3)))
          CFI (cfiCond21) DPL0 load(1, XDATA, add(CFA_XSP16, literal(-2)))
          CFI (cfiCond21) DPH0 load(1, XDATA, add(CFA_XSP16, literal(-1)))
          CFI (cfiCond21) CFA_SP SP+-2
          CFI (cfiCond21) CFA_XSP16 add(XSP16, 29)
          CFI Block cfiPicker22 Using cfiCommon1
          CFI (cfiPicker22) NoFunction
          CFI (cfiPicker22) Picker
        MOVX      A,@DPTR
        MOV       DPH,A
        MOV       DPL,R0
        INC       DPTR
        INC       DPTR
        LCALL     ?Subroutine30 & 0xFFFF
??CrossCallReturnLabel_39:
        RET
          CFI EndBlock cfiCond20
          CFI EndBlock cfiCond21
          CFI EndBlock cfiPicker22

        RSEG BANKED_CODE:HUGECODE:NOROOT(0)
?Subroutine30:
          CFI Block cfiCond23 Using cfiCommon0
          CFI Function bdb_setEpDescListToActiveEndpoint
          CFI Conditional ??CrossCallReturnLabel_39, ??CrossCallReturnLabel_14
          CFI DPL0 Frame(CFA_SP, 4)
          CFI DPH0 Frame(CFA_SP, 5)
          CFI CFA_SP SP+-9
          CFI Block cfiCond24 Using cfiCommon0
          CFI (cfiCond24) Function bdb_checkMatchingEndpoints
          CFI (cfiCond24) Conditional ??CrossCallReturnLabel_39, ??CrossCallReturnLabel_15
          CFI (cfiCond24) R6 load(1, XDATA, add(CFA_XSP16, literal(-20)))
          CFI (cfiCond24) VB load(1, XDATA, add(CFA_XSP16, literal(-19)))
          CFI (cfiCond24) V0 load(1, XDATA, add(CFA_XSP16, literal(-18)))
          CFI (cfiCond24) V1 load(1, XDATA, add(CFA_XSP16, literal(-17)))
          CFI (cfiCond24) V2 load(1, XDATA, add(CFA_XSP16, literal(-16)))
          CFI (cfiCond24) V3 load(1, XDATA, add(CFA_XSP16, literal(-15)))
          CFI (cfiCond24) V4 load(1, XDATA, add(CFA_XSP16, literal(-14)))
          CFI (cfiCond24) V5 load(1, XDATA, add(CFA_XSP16, literal(-13)))
          CFI (cfiCond24) V6 load(1, XDATA, add(CFA_XSP16, literal(-12)))
          CFI (cfiCond24) V7 load(1, XDATA, add(CFA_XSP16, literal(-11)))
          CFI (cfiCond24) V8 load(1, XDATA, add(CFA_XSP16, literal(-10)))
          CFI (cfiCond24) V9 load(1, XDATA, add(CFA_XSP16, literal(-9)))
          CFI (cfiCond24) V10 load(1, XDATA, add(CFA_XSP16, literal(-8)))
          CFI (cfiCond24) V11 load(1, XDATA, add(CFA_XSP16, literal(-7)))
          CFI (cfiCond24) R7 load(1, XDATA, add(CFA_XSP16, literal(-6)))
          CFI (cfiCond24) ?RET_LOW load(1, XDATA, add(CFA_XSP16, literal(-5)))
          CFI (cfiCond24) ?RET_HIGH load(1, XDATA, add(CFA_XSP16, literal(-4)))
          CFI (cfiCond24) ?BRET_EXT load(1, XDATA, add(CFA_XSP16, literal(-3)))
          CFI (cfiCond24) DPL0 load(1, XDATA, add(CFA_XSP16, literal(-2)))
          CFI (cfiCond24) DPH0 load(1, XDATA, add(CFA_XSP16, literal(-1)))
          CFI (cfiCond24) CFA_SP SP+-4
          CFI (cfiCond24) CFA_XSP16 add(XSP16, 29)
          CFI Block cfiCond25 Using cfiCommon0
          CFI (cfiCond25) Function bdb_setEpDescListToActiveEndpoint
          CFI (cfiCond25) Conditional ??CrossCallReturnLabel_38, ??CrossCallReturnLabel_0
          CFI (cfiCond25) DPL0 Frame(CFA_SP, 4)
          CFI (cfiCond25) DPH0 Frame(CFA_SP, 5)
          CFI (cfiCond25) CFA_SP SP+-9
          CFI Block cfiCond26 Using cfiCommon0
          CFI (cfiCond26) Function bdb_setEpDescListToActiveEndpoint
          CFI (cfiCond26) Conditional ??CrossCallReturnLabel_38, ??CrossCallReturnLabel_1
          CFI (cfiCond26) DPL0 Frame(CFA_SP, 4)
          CFI (cfiCond26) DPH0 Frame(CFA_SP, 5)
          CFI (cfiCond26) CFA_SP SP+-9
          CFI Block cfiCond27 Using cfiCommon0
          CFI (cfiCond27) Function bdb_checkMatchingEndpoints
          CFI (cfiCond27) Conditional ??CrossCallReturnLabel_38, ??CrossCallReturnLabel_2
          CFI (cfiCond27) R6 load(1, XDATA, add(CFA_XSP16, literal(-20)))
          CFI (cfiCond27) VB load(1, XDATA, add(CFA_XSP16, literal(-19)))
          CFI (cfiCond27) V0 load(1, XDATA, add(CFA_XSP16, literal(-18)))
          CFI (cfiCond27) V1 load(1, XDATA, add(CFA_XSP16, literal(-17)))
          CFI (cfiCond27) V2 load(1, XDATA, add(CFA_XSP16, literal(-16)))
          CFI (cfiCond27) V3 load(1, XDATA, add(CFA_XSP16, literal(-15)))
          CFI (cfiCond27) V4 load(1, XDATA, add(CFA_XSP16, literal(-14)))
          CFI (cfiCond27) V5 load(1, XDATA, add(CFA_XSP16, literal(-13)))
          CFI (cfiCond27) V6 load(1, XDATA, add(CFA_XSP16, literal(-12)))
          CFI (cfiCond27) V7 load(1, XDATA, add(CFA_XSP16, literal(-11)))
          CFI (cfiCond27) V8 load(1, XDATA, add(CFA_XSP16, literal(-10)))
          CFI (cfiCond27) V9 load(1, XDATA, add(CFA_XSP16, literal(-9)))
          CFI (cfiCond27) V10 load(1, XDATA, add(CFA_XSP16, literal(-8)))
          CFI (cfiCond27) V11 load(1, XDATA, add(CFA_XSP16, literal(-7)))
          CFI (cfiCond27) R7 load(1, XDATA, add(CFA_XSP16, literal(-6)))
          CFI (cfiCond27) ?RET_LOW load(1, XDATA, add(CFA_XSP16, literal(-5)))
          CFI (cfiCond27) ?RET_HIGH load(1, XDATA, add(CFA_XSP16, literal(-4)))
          CFI (cfiCond27) ?BRET_EXT load(1, XDATA, add(CFA_XSP16, literal(-3)))
          CFI (cfiCond27) DPL0 load(1, XDATA, add(CFA_XSP16, literal(-2)))
          CFI (cfiCond27) DPH0 load(1, XDATA, add(CFA_XSP16, literal(-1)))
          CFI (cfiCond27) CFA_SP SP+-4
          CFI (cfiCond27) CFA_XSP16 add(XSP16, 29)
          CFI Block cfiPicker28 Using cfiCommon1
          CFI (cfiPicker28) NoFunction
          CFI (cfiPicker28) Picker
        MOVX      A,@DPTR
        MOV       R0,A
        INC       DPTR
        MOVX      A,@DPTR
        MOV       DPH,A
        MOV       DPL,R0
        MOVX      A,@DPTR
        RET
          CFI EndBlock cfiCond23
          CFI EndBlock cfiCond24
          CFI EndBlock cfiCond25
          CFI EndBlock cfiCond26
          CFI EndBlock cfiCond27
          CFI EndBlock cfiPicker28

        RSEG BANKED_CODE:HUGECODE:NOROOT(0)
?Subroutine11:
          CFI Block cfiCond29 Using cfiCommon0
          CFI Function bdb_setEpDescListToActiveEndpoint
          CFI Conditional ??CrossCallReturnLabel_11
          CFI DPL0 Frame(CFA_SP, 4)
          CFI DPH0 Frame(CFA_SP, 5)
          CFI CFA_SP SP+-7
          CFI Block cfiCond30 Using cfiCommon0
          CFI (cfiCond30) Function bdb_checkMatchingEndpoints
          CFI (cfiCond30) Conditional ??CrossCallReturnLabel_12
          CFI (cfiCond30) R6 load(1, XDATA, add(CFA_XSP16, literal(-20)))
          CFI (cfiCond30) VB load(1, XDATA, add(CFA_XSP16, literal(-19)))
          CFI (cfiCond30) V0 load(1, XDATA, add(CFA_XSP16, literal(-18)))
          CFI (cfiCond30) V1 load(1, XDATA, add(CFA_XSP16, literal(-17)))
          CFI (cfiCond30) V2 load(1, XDATA, add(CFA_XSP16, literal(-16)))
          CFI (cfiCond30) V3 load(1, XDATA, add(CFA_XSP16, literal(-15)))
          CFI (cfiCond30) V4 load(1, XDATA, add(CFA_XSP16, literal(-14)))
          CFI (cfiCond30) V5 load(1, XDATA, add(CFA_XSP16, literal(-13)))
          CFI (cfiCond30) V6 load(1, XDATA, add(CFA_XSP16, literal(-12)))
          CFI (cfiCond30) V7 load(1, XDATA, add(CFA_XSP16, literal(-11)))
          CFI (cfiCond30) V8 load(1, XDATA, add(CFA_XSP16, literal(-10)))
          CFI (cfiCond30) V9 load(1, XDATA, add(CFA_XSP16, literal(-9)))
          CFI (cfiCond30) V10 load(1, XDATA, add(CFA_XSP16, literal(-8)))
          CFI (cfiCond30) V11 load(1, XDATA, add(CFA_XSP16, literal(-7)))
          CFI (cfiCond30) R7 load(1, XDATA, add(CFA_XSP16, literal(-6)))
          CFI (cfiCond30) ?RET_LOW load(1, XDATA, add(CFA_XSP16, literal(-5)))
          CFI (cfiCond30) ?RET_HIGH load(1, XDATA, add(CFA_XSP16, literal(-4)))
          CFI (cfiCond30) ?BRET_EXT load(1, XDATA, add(CFA_XSP16, literal(-3)))
          CFI (cfiCond30) DPL0 load(1, XDATA, add(CFA_XSP16, literal(-2)))
          CFI (cfiCond30) DPH0 load(1, XDATA, add(CFA_XSP16, literal(-1)))
          CFI (cfiCond30) CFA_SP SP+-2
          CFI (cfiCond30) CFA_XSP16 add(XSP16, 29)
          CFI Block cfiCond31 Using cfiCommon0
          CFI (cfiCond31) Function bdb_ProcessSimpleDesc
          CFI (cfiCond31) Conditional ??CrossCallReturnLabel_13
          CFI (cfiCond31) R6 load(1, XDATA, add(CFA_XSP16, literal(-9)))
          CFI (cfiCond31) VB load(1, XDATA, add(CFA_XSP16, literal(-8)))
          CFI (cfiCond31) V0 load(1, XDATA, add(CFA_XSP16, literal(-7)))
          CFI (cfiCond31) R7 load(1, XDATA, add(CFA_XSP16, literal(-6)))
          CFI (cfiCond31) ?RET_LOW load(1, XDATA, add(CFA_XSP16, literal(-5)))
          CFI (cfiCond31) ?RET_HIGH load(1, XDATA, add(CFA_XSP16, literal(-4)))
          CFI (cfiCond31) ?BRET_EXT load(1, XDATA, add(CFA_XSP16, literal(-3)))
          CFI (cfiCond31) DPL0 load(1, XDATA, add(CFA_XSP16, literal(-2)))
          CFI (cfiCond31) DPH0 load(1, XDATA, add(CFA_XSP16, literal(-1)))
          CFI (cfiCond31) CFA_SP SP+-2
          CFI (cfiCond31) CFA_XSP16 add(XSP16, 28)
          CFI Block cfiPicker32 Using cfiCommon1
          CFI (cfiPicker32) NoFunction
          CFI (cfiPicker32) Picker
        MOV       DPTR,#bdb_CurrEpDescriptorList
        LCALL     ?Subroutine31 & 0xFFFF
??CrossCallReturnLabel_113:
        MOV       DPH,A
        MOV       DPL,R0
        INC       DPTR
        INC       DPTR
        MOVX      A,@DPTR
        RET
          CFI EndBlock cfiCond29
          CFI EndBlock cfiCond30
          CFI EndBlock cfiCond31
          CFI EndBlock cfiPicker32

        RSEG BANKED_CODE:HUGECODE:NOROOT(0)
?Subroutine8:
          CFI Block cfiCond33 Using cfiCommon0
          CFI Function bdb_checkMatchingEndpoints
          CFI Conditional ??CrossCallReturnLabel_5
          CFI R6 load(1, XDATA, add(CFA_XSP16, literal(-20)))
          CFI VB load(1, XDATA, add(CFA_XSP16, literal(-19)))
          CFI V0 load(1, XDATA, add(CFA_XSP16, literal(-18)))
          CFI V1 load(1, XDATA, add(CFA_XSP16, literal(-17)))
          CFI V2 load(1, XDATA, add(CFA_XSP16, literal(-16)))
          CFI V3 load(1, XDATA, add(CFA_XSP16, literal(-15)))
          CFI V4 load(1, XDATA, add(CFA_XSP16, literal(-14)))
          CFI V5 load(1, XDATA, add(CFA_XSP16, literal(-13)))
          CFI V6 load(1, XDATA, add(CFA_XSP16, literal(-12)))
          CFI V7 load(1, XDATA, add(CFA_XSP16, literal(-11)))
          CFI V8 load(1, XDATA, add(CFA_XSP16, literal(-10)))
          CFI V9 load(1, XDATA, add(CFA_XSP16, literal(-9)))
          CFI V10 load(1, XDATA, add(CFA_XSP16, literal(-8)))
          CFI V11 load(1, XDATA, add(CFA_XSP16, literal(-7)))
          CFI R7 load(1, XDATA, add(CFA_XSP16, literal(-6)))
          CFI ?RET_LOW load(1, XDATA, add(CFA_XSP16, literal(-5)))
          CFI ?RET_HIGH load(1, XDATA, add(CFA_XSP16, literal(-4)))
          CFI ?BRET_EXT load(1, XDATA, add(CFA_XSP16, literal(-3)))
          CFI DPL0 load(1, XDATA, add(CFA_XSP16, literal(-2)))
          CFI DPH0 load(1, XDATA, add(CFA_XSP16, literal(-1)))
          CFI CFA_SP SP+-2
          CFI CFA_XSP16 add(XSP16, 35)
          CFI Block cfiCond34 Using cfiCommon0
          CFI (cfiCond34) Function bdb_checkMatchingEndpoints
          CFI (cfiCond34) Conditional ??CrossCallReturnLabel_6
          CFI (cfiCond34) R6 load(1, XDATA, add(CFA_XSP16, literal(-20)))
          CFI (cfiCond34) VB load(1, XDATA, add(CFA_XSP16, literal(-19)))
          CFI (cfiCond34) V0 load(1, XDATA, add(CFA_XSP16, literal(-18)))
          CFI (cfiCond34) V1 load(1, XDATA, add(CFA_XSP16, literal(-17)))
          CFI (cfiCond34) V2 load(1, XDATA, add(CFA_XSP16, literal(-16)))
          CFI (cfiCond34) V3 load(1, XDATA, add(CFA_XSP16, literal(-15)))
          CFI (cfiCond34) V4 load(1, XDATA, add(CFA_XSP16, literal(-14)))
          CFI (cfiCond34) V5 load(1, XDATA, add(CFA_XSP16, literal(-13)))
          CFI (cfiCond34) V6 load(1, XDATA, add(CFA_XSP16, literal(-12)))
          CFI (cfiCond34) V7 load(1, XDATA, add(CFA_XSP16, literal(-11)))
          CFI (cfiCond34) V8 load(1, XDATA, add(CFA_XSP16, literal(-10)))
          CFI (cfiCond34) V9 load(1, XDATA, add(CFA_XSP16, literal(-9)))
          CFI (cfiCond34) V10 load(1, XDATA, add(CFA_XSP16, literal(-8)))
          CFI (cfiCond34) V11 load(1, XDATA, add(CFA_XSP16, literal(-7)))
          CFI (cfiCond34) R7 load(1, XDATA, add(CFA_XSP16, literal(-6)))
          CFI (cfiCond34) ?RET_LOW load(1, XDATA, add(CFA_XSP16, literal(-5)))
          CFI (cfiCond34) ?RET_HIGH load(1, XDATA, add(CFA_XSP16, literal(-4)))
          CFI (cfiCond34) ?BRET_EXT load(1, XDATA, add(CFA_XSP16, literal(-3)))
          CFI (cfiCond34) DPL0 load(1, XDATA, add(CFA_XSP16, literal(-2)))
          CFI (cfiCond34) DPH0 load(1, XDATA, add(CFA_XSP16, literal(-1)))
          CFI (cfiCond34) CFA_SP SP+-2
          CFI (cfiCond34) CFA_XSP16 add(XSP16, 35)
          CFI Block cfiPicker35 Using cfiCommon1
          CFI (cfiPicker35) NoFunction
          CFI (cfiPicker35) Picker
        INC       DPTR
        INC       DPTR
        INC       DPTR
        INC       DPTR
        INC       DPTR
        INC       DPTR
        INC       DPTR
        MOVX      A,@DPTR
        ADD       A,R0
        MOV       R2,A
        INC       DPTR
        MOVX      A,@DPTR
        ADDC      A,R1
        MOV       DPL,R2
        MOV       DPH,A
        LCALL     ?Subroutine27 & 0xFFFF
??CrossCallReturnLabel_36:
        MOVX      A,@DPTR
        MOV       R1,A
        LCALL     `??bdb_zclFindingBindingAddBindEntry::?relay`; Banked call to: bdb_zclFindingBindingAddBindEntry
        MOV       A,#0x6
        RET
          CFI EndBlock cfiCond33
          CFI EndBlock cfiCond34
          CFI EndBlock cfiPicker35

        RSEG BANKED_CODE:HUGECODE:NOROOT(0)
?Subroutine7:
          CFI Block cfiCond36 Using cfiCommon0
          CFI Function bdb_ProcessIEEEAddrRsp
          CFI Conditional ??CrossCallReturnLabel_3
          CFI R6 load(1, XDATA, add(CFA_XSP16, literal(-10)))
          CFI VB load(1, XDATA, add(CFA_XSP16, literal(-9)))
          CFI V0 load(1, XDATA, add(CFA_XSP16, literal(-8)))
          CFI V1 load(1, XDATA, add(CFA_XSP16, literal(-7)))
          CFI R7 load(1, XDATA, add(CFA_XSP16, literal(-6)))
          CFI ?RET_LOW load(1, XDATA, add(CFA_XSP16, literal(-5)))
          CFI ?RET_HIGH load(1, XDATA, add(CFA_XSP16, literal(-4)))
          CFI ?BRET_EXT load(1, XDATA, add(CFA_XSP16, literal(-3)))
          CFI DPL0 load(1, XDATA, add(CFA_XSP16, literal(-2)))
          CFI DPH0 load(1, XDATA, add(CFA_XSP16, literal(-1)))
          CFI CFA_SP SP+-2
          CFI CFA_XSP16 add(XSP16, 25)
          CFI Block cfiCond37 Using cfiCommon0
          CFI (cfiCond37) Function bdb_checkMatchingEndpoints
          CFI (cfiCond37) Conditional ??CrossCallReturnLabel_4
          CFI (cfiCond37) R6 load(1, XDATA, add(CFA_XSP16, literal(-20)))
          CFI (cfiCond37) VB load(1, XDATA, add(CFA_XSP16, literal(-19)))
          CFI (cfiCond37) V0 load(1, XDATA, add(CFA_XSP16, literal(-18)))
          CFI (cfiCond37) V1 load(1, XDATA, add(CFA_XSP16, literal(-17)))
          CFI (cfiCond37) V2 load(1, XDATA, add(CFA_XSP16, literal(-16)))
          CFI (cfiCond37) V3 load(1, XDATA, add(CFA_XSP16, literal(-15)))
          CFI (cfiCond37) V4 load(1, XDATA, add(CFA_XSP16, literal(-14)))
          CFI (cfiCond37) V5 load(1, XDATA, add(CFA_XSP16, literal(-13)))
          CFI (cfiCond37) V6 load(1, XDATA, add(CFA_XSP16, literal(-12)))
          CFI (cfiCond37) V7 load(1, XDATA, add(CFA_XSP16, literal(-11)))
          CFI (cfiCond37) V8 load(1, XDATA, add(CFA_XSP16, literal(-10)))
          CFI (cfiCond37) V9 load(1, XDATA, add(CFA_XSP16, literal(-9)))
          CFI (cfiCond37) V10 load(1, XDATA, add(CFA_XSP16, literal(-8)))
          CFI (cfiCond37) V11 load(1, XDATA, add(CFA_XSP16, literal(-7)))
          CFI (cfiCond37) R7 load(1, XDATA, add(CFA_XSP16, literal(-6)))
          CFI (cfiCond37) ?RET_LOW load(1, XDATA, add(CFA_XSP16, literal(-5)))
          CFI (cfiCond37) ?RET_HIGH load(1, XDATA, add(CFA_XSP16, literal(-4)))
          CFI (cfiCond37) ?BRET_EXT load(1, XDATA, add(CFA_XSP16, literal(-3)))
          CFI (cfiCond37) DPL0 load(1, XDATA, add(CFA_XSP16, literal(-2)))
          CFI (cfiCond37) DPH0 load(1, XDATA, add(CFA_XSP16, literal(-1)))
          CFI (cfiCond37) CFA_SP SP+-2
          CFI (cfiCond37) CFA_XSP16 add(XSP16, 29)
          CFI Block cfiPicker38 Using cfiCommon1
          CFI (cfiPicker38) NoFunction
          CFI (cfiPicker38) Picker
        MOV       DPTR,#bdb_FB_InitiatorCurrentCyclesNumber
        CLR       A
        MOVX      @DPTR,A
        ; Setup parameters for call to function osal_stop_timerEx
        ; Setup parameters for call to function osal_stop_timerEx
        MOV       R2,#0x40
        MOV       R3,A
        LCALL     ?Subroutine32 & 0xFFFF
??CrossCallReturnLabel_80:
        ; Setup parameters for call to function bdb_zclSimpleDescClusterListClean
        ; Setup parameters for call to function bdb_zclSimpleDescClusterListClean
        MOV       R2,#bdb_FindingBindingTargetSimpleDesc & 0xff
        MOV       R3,#(bdb_FindingBindingTargetSimpleDesc >> 8) & 0xff
        LCALL     `??bdb_zclSimpleDescClusterListClean::?relay`; Banked call to: bdb_zclSimpleDescClusterListClean
        ; Setup parameters for call to function osal_stop_timerEx
        ; Setup parameters for call to function osal_stop_timerEx
        MOV       R2,#0x0
        MOV       R3,#0x40
        LCALL     ?Subroutine32 & 0xFFFF
??CrossCallReturnLabel_81:
        ; Setup parameters for call to function bdb_exitFindingBindingWStatus
        ; Setup parameters for call to function bdb_exitFindingBindingWStatus
        MOV       R1,#0xc
        LCALL     `??bdb_exitFindingBindingWStatus::?relay`; Banked call to: bdb_exitFindingBindingWStatus
        RET
          CFI EndBlock cfiCond36
          CFI EndBlock cfiCond37
          CFI EndBlock cfiPicker38

        RSEG BANKED_CODE:HUGECODE:NOROOT(0)
?Subroutine5:
          CFI Block cfiCond39 Using cfiCommon0
          CFI Function bdb_setEpDescListToActiveEndpoint
          CFI Conditional ??CrossCallReturnLabel_0
          CFI DPL0 Frame(CFA_SP, 4)
          CFI DPH0 Frame(CFA_SP, 5)
          CFI CFA_SP SP+-7
          CFI Block cfiCond40 Using cfiCommon0
          CFI (cfiCond40) Function bdb_setEpDescListToActiveEndpoint
          CFI (cfiCond40) Conditional ??CrossCallReturnLabel_1
          CFI (cfiCond40) DPL0 Frame(CFA_SP, 4)
          CFI (cfiCond40) DPH0 Frame(CFA_SP, 5)
          CFI (cfiCond40) CFA_SP SP+-7
          CFI Block cfiCond41 Using cfiCommon0
          CFI (cfiCond41) Function bdb_checkMatchingEndpoints
          CFI (cfiCond41) Conditional ??CrossCallReturnLabel_2
          CFI (cfiCond41) R6 load(1, XDATA, add(CFA_XSP16, literal(-20)))
          CFI (cfiCond41) VB load(1, XDATA, add(CFA_XSP16, literal(-19)))
          CFI (cfiCond41) V0 load(1, XDATA, add(CFA_XSP16, literal(-18)))
          CFI (cfiCond41) V1 load(1, XDATA, add(CFA_XSP16, literal(-17)))
          CFI (cfiCond41) V2 load(1, XDATA, add(CFA_XSP16, literal(-16)))
          CFI (cfiCond41) V3 load(1, XDATA, add(CFA_XSP16, literal(-15)))
          CFI (cfiCond41) V4 load(1, XDATA, add(CFA_XSP16, literal(-14)))
          CFI (cfiCond41) V5 load(1, XDATA, add(CFA_XSP16, literal(-13)))
          CFI (cfiCond41) V6 load(1, XDATA, add(CFA_XSP16, literal(-12)))
          CFI (cfiCond41) V7 load(1, XDATA, add(CFA_XSP16, literal(-11)))
          CFI (cfiCond41) V8 load(1, XDATA, add(CFA_XSP16, literal(-10)))
          CFI (cfiCond41) V9 load(1, XDATA, add(CFA_XSP16, literal(-9)))
          CFI (cfiCond41) V10 load(1, XDATA, add(CFA_XSP16, literal(-8)))
          CFI (cfiCond41) V11 load(1, XDATA, add(CFA_XSP16, literal(-7)))
          CFI (cfiCond41) R7 load(1, XDATA, add(CFA_XSP16, literal(-6)))
          CFI (cfiCond41) ?RET_LOW load(1, XDATA, add(CFA_XSP16, literal(-5)))
          CFI (cfiCond41) ?RET_HIGH load(1, XDATA, add(CFA_XSP16, literal(-4)))
          CFI (cfiCond41) ?BRET_EXT load(1, XDATA, add(CFA_XSP16, literal(-3)))
          CFI (cfiCond41) DPL0 load(1, XDATA, add(CFA_XSP16, literal(-2)))
          CFI (cfiCond41) DPH0 load(1, XDATA, add(CFA_XSP16, literal(-1)))
          CFI (cfiCond41) CFA_SP SP+-2
          CFI (cfiCond41) CFA_XSP16 add(XSP16, 29)
          CFI Block cfiPicker42 Using cfiCommon1
          CFI (cfiPicker42) NoFunction
          CFI (cfiPicker42) Picker
        MOV       DPTR,#bdb_CurrEpDescriptorList
        LCALL     ?Subroutine30 & 0xFFFF
??CrossCallReturnLabel_38:
        MOV       R0,A
        INC       DPTR
        MOVX      A,@DPTR
        MOV       R1,A
        LCALL     ?Subroutine33 & 0xFFFF
??CrossCallReturnLabel_47:
        RET
          CFI EndBlock cfiCond39
          CFI EndBlock cfiCond40
          CFI EndBlock cfiCond41
          CFI EndBlock cfiPicker42

        RSEG BANKED_CODE:HUGECODE:NOROOT(0)
?Subroutine33:
          CFI Block cfiCond43 Using cfiCommon0
          CFI Function bdb_setEpDescListToActiveEndpoint
          CFI Conditional ??CrossCallReturnLabel_46
          CFI DPL0 Frame(CFA_SP, 4)
          CFI DPH0 Frame(CFA_SP, 5)
          CFI CFA_SP SP+-7
          CFI Block cfiCond44 Using cfiCommon0
          CFI (cfiCond44) Function bdb_setEpDescListToActiveEndpoint
          CFI (cfiCond44) Conditional ??CrossCallReturnLabel_47, ??CrossCallReturnLabel_0
          CFI (cfiCond44) DPL0 Frame(CFA_SP, 4)
          CFI (cfiCond44) DPH0 Frame(CFA_SP, 5)
          CFI (cfiCond44) CFA_SP SP+-9
          CFI Block cfiCond45 Using cfiCommon0
          CFI (cfiCond45) Function bdb_setEpDescListToActiveEndpoint
          CFI (cfiCond45) Conditional ??CrossCallReturnLabel_47, ??CrossCallReturnLabel_1
          CFI (cfiCond45) DPL0 Frame(CFA_SP, 4)
          CFI (cfiCond45) DPH0 Frame(CFA_SP, 5)
          CFI (cfiCond45) CFA_SP SP+-9
          CFI Block cfiCond46 Using cfiCommon0
          CFI (cfiCond46) Function bdb_checkMatchingEndpoints
          CFI (cfiCond46) Conditional ??CrossCallReturnLabel_47, ??CrossCallReturnLabel_2
          CFI (cfiCond46) R6 load(1, XDATA, add(CFA_XSP16, literal(-20)))
          CFI (cfiCond46) VB load(1, XDATA, add(CFA_XSP16, literal(-19)))
          CFI (cfiCond46) V0 load(1, XDATA, add(CFA_XSP16, literal(-18)))
          CFI (cfiCond46) V1 load(1, XDATA, add(CFA_XSP16, literal(-17)))
          CFI (cfiCond46) V2 load(1, XDATA, add(CFA_XSP16, literal(-16)))
          CFI (cfiCond46) V3 load(1, XDATA, add(CFA_XSP16, literal(-15)))
          CFI (cfiCond46) V4 load(1, XDATA, add(CFA_XSP16, literal(-14)))
          CFI (cfiCond46) V5 load(1, XDATA, add(CFA_XSP16, literal(-13)))
          CFI (cfiCond46) V6 load(1, XDATA, add(CFA_XSP16, literal(-12)))
          CFI (cfiCond46) V7 load(1, XDATA, add(CFA_XSP16, literal(-11)))
          CFI (cfiCond46) V8 load(1, XDATA, add(CFA_XSP16, literal(-10)))
          CFI (cfiCond46) V9 load(1, XDATA, add(CFA_XSP16, literal(-9)))
          CFI (cfiCond46) V10 load(1, XDATA, add(CFA_XSP16, literal(-8)))
          CFI (cfiCond46) V11 load(1, XDATA, add(CFA_XSP16, literal(-7)))
          CFI (cfiCond46) R7 load(1, XDATA, add(CFA_XSP16, literal(-6)))
          CFI (cfiCond46) ?RET_LOW load(1, XDATA, add(CFA_XSP16, literal(-5)))
          CFI (cfiCond46) ?RET_HIGH load(1, XDATA, add(CFA_XSP16, literal(-4)))
          CFI (cfiCond46) ?BRET_EXT load(1, XDATA, add(CFA_XSP16, literal(-3)))
          CFI (cfiCond46) DPL0 load(1, XDATA, add(CFA_XSP16, literal(-2)))
          CFI (cfiCond46) DPH0 load(1, XDATA, add(CFA_XSP16, literal(-1)))
          CFI (cfiCond46) CFA_SP SP+-4
          CFI (cfiCond46) CFA_XSP16 add(XSP16, 29)
          CFI Block cfiPicker47 Using cfiCommon1
          CFI (cfiPicker47) NoFunction
          CFI (cfiPicker47) Picker
        MOV       DPTR,#bdb_CurrEpDescriptorList
          CFI EndBlock cfiCond43
          CFI EndBlock cfiCond44
          CFI EndBlock cfiCond45
          CFI EndBlock cfiCond46
          CFI EndBlock cfiPicker47
        REQUIRE ??Subroutine38_0
        ; // Fall through to label ??Subroutine38_0

        RSEG BANKED_CODE:HUGECODE:NOROOT(0)
??Subroutine38_0:
          CFI Block cfiCond48 Using cfiCommon0
          CFI Function bdb_ProcessIEEEAddrRsp
          CFI Conditional ??CrossCallReturnLabel_42
          CFI R6 load(1, XDATA, add(CFA_XSP16, literal(-10)))
          CFI VB load(1, XDATA, add(CFA_XSP16, literal(-9)))
          CFI V0 load(1, XDATA, add(CFA_XSP16, literal(-8)))
          CFI V1 load(1, XDATA, add(CFA_XSP16, literal(-7)))
          CFI R7 load(1, XDATA, add(CFA_XSP16, literal(-6)))
          CFI ?RET_LOW load(1, XDATA, add(CFA_XSP16, literal(-5)))
          CFI ?RET_HIGH load(1, XDATA, add(CFA_XSP16, literal(-4)))
          CFI ?BRET_EXT load(1, XDATA, add(CFA_XSP16, literal(-3)))
          CFI DPL0 load(1, XDATA, add(CFA_XSP16, literal(-2)))
          CFI DPH0 load(1, XDATA, add(CFA_XSP16, literal(-1)))
          CFI CFA_SP SP+-2
          CFI CFA_XSP16 add(XSP16, 25)
          CFI Block cfiCond49 Using cfiCommon0
          CFI (cfiCond49) Function bdb_ZclIdentifyQueryCmdInd
          CFI (cfiCond49) Conditional ??CrossCallReturnLabel_43
          CFI (cfiCond49) R6 load(1, XDATA, add(CFA_XSP16, literal(-10)))
          CFI (cfiCond49) VB load(1, XDATA, add(CFA_XSP16, literal(-9)))
          CFI (cfiCond49) V0 load(1, XDATA, add(CFA_XSP16, literal(-8)))
          CFI (cfiCond49) V1 load(1, XDATA, add(CFA_XSP16, literal(-7)))
          CFI (cfiCond49) R7 load(1, XDATA, add(CFA_XSP16, literal(-6)))
          CFI (cfiCond49) ?RET_LOW load(1, XDATA, add(CFA_XSP16, literal(-5)))
          CFI (cfiCond49) ?RET_HIGH load(1, XDATA, add(CFA_XSP16, literal(-4)))
          CFI (cfiCond49) ?BRET_EXT load(1, XDATA, add(CFA_XSP16, literal(-3)))
          CFI (cfiCond49) DPL0 load(1, XDATA, add(CFA_XSP16, literal(-2)))
          CFI (cfiCond49) DPH0 load(1, XDATA, add(CFA_XSP16, literal(-1)))
          CFI (cfiCond49) CFA_SP SP+-2
          CFI (cfiCond49) CFA_XSP16 add(XSP16, 10)
          CFI Block cfiCond50 Using cfiCommon0
          CFI (cfiCond50) Function bdb_ProcessRespondentList
          CFI (cfiCond50) Conditional ??CrossCallReturnLabel_44
          CFI (cfiCond50) R6 load(1, XDATA, add(CFA_XSP16, literal(-16)))
          CFI (cfiCond50) VB load(1, XDATA, add(CFA_XSP16, literal(-15)))
          CFI (cfiCond50) V0 load(1, XDATA, add(CFA_XSP16, literal(-14)))
          CFI (cfiCond50) V1 load(1, XDATA, add(CFA_XSP16, literal(-13)))
          CFI (cfiCond50) V2 load(1, XDATA, add(CFA_XSP16, literal(-12)))
          CFI (cfiCond50) V3 load(1, XDATA, add(CFA_XSP16, literal(-11)))
          CFI (cfiCond50) V4 load(1, XDATA, add(CFA_XSP16, literal(-10)))
          CFI (cfiCond50) V5 load(1, XDATA, add(CFA_XSP16, literal(-9)))
          CFI (cfiCond50) V6 load(1, XDATA, add(CFA_XSP16, literal(-8)))
          CFI (cfiCond50) V7 load(1, XDATA, add(CFA_XSP16, literal(-7)))
          CFI (cfiCond50) R7 load(1, XDATA, add(CFA_XSP16, literal(-6)))
          CFI (cfiCond50) ?RET_LOW load(1, XDATA, add(CFA_XSP16, literal(-5)))
          CFI (cfiCond50) ?RET_HIGH load(1, XDATA, add(CFA_XSP16, literal(-4)))
          CFI (cfiCond50) ?BRET_EXT load(1, XDATA, add(CFA_XSP16, literal(-3)))
          CFI (cfiCond50) DPL0 load(1, XDATA, add(CFA_XSP16, literal(-2)))
          CFI (cfiCond50) DPH0 load(1, XDATA, add(CFA_XSP16, literal(-1)))
          CFI (cfiCond50) CFA_SP SP+-2
          CFI (cfiCond50) CFA_XSP16 add(XSP16, 25)
          CFI Block cfiCond51 Using cfiCommon0
          CFI (cfiCond51) Function bdb_ProcessRespondentList
          CFI (cfiCond51) Conditional ??CrossCallReturnLabel_45
          CFI (cfiCond51) R6 load(1, XDATA, add(CFA_XSP16, literal(-16)))
          CFI (cfiCond51) VB load(1, XDATA, add(CFA_XSP16, literal(-15)))
          CFI (cfiCond51) V0 load(1, XDATA, add(CFA_XSP16, literal(-14)))
          CFI (cfiCond51) V1 load(1, XDATA, add(CFA_XSP16, literal(-13)))
          CFI (cfiCond51) V2 load(1, XDATA, add(CFA_XSP16, literal(-12)))
          CFI (cfiCond51) V3 load(1, XDATA, add(CFA_XSP16, literal(-11)))
          CFI (cfiCond51) V4 load(1, XDATA, add(CFA_XSP16, literal(-10)))
          CFI (cfiCond51) V5 load(1, XDATA, add(CFA_XSP16, literal(-9)))
          CFI (cfiCond51) V6 load(1, XDATA, add(CFA_XSP16, literal(-8)))
          CFI (cfiCond51) V7 load(1, XDATA, add(CFA_XSP16, literal(-7)))
          CFI (cfiCond51) R7 load(1, XDATA, add(CFA_XSP16, literal(-6)))
          CFI (cfiCond51) ?RET_LOW load(1, XDATA, add(CFA_XSP16, literal(-5)))
          CFI (cfiCond51) ?RET_HIGH load(1, XDATA, add(CFA_XSP16, literal(-4)))
          CFI (cfiCond51) ?BRET_EXT load(1, XDATA, add(CFA_XSP16, literal(-3)))
          CFI (cfiCond51) DPL0 load(1, XDATA, add(CFA_XSP16, literal(-2)))
          CFI (cfiCond51) DPH0 load(1, XDATA, add(CFA_XSP16, literal(-1)))
          CFI (cfiCond51) CFA_SP SP+-2
          CFI (cfiCond51) CFA_XSP16 add(XSP16, 25)
          CFI Block cfiCond52 Using cfiCommon0
          CFI (cfiCond52) Function bdb_setEpDescListToActiveEndpoint
          CFI (cfiCond52) Conditional ??CrossCallReturnLabel_46
          CFI (cfiCond52) DPL0 Frame(CFA_SP, 4)
          CFI (cfiCond52) DPH0 Frame(CFA_SP, 5)
          CFI (cfiCond52) CFA_SP SP+-7
          CFI Block cfiCond53 Using cfiCommon0
          CFI (cfiCond53) Function bdb_setEpDescListToActiveEndpoint
          CFI (cfiCond53) Conditional ??CrossCallReturnLabel_47, ??CrossCallReturnLabel_0
          CFI (cfiCond53) DPL0 Frame(CFA_SP, 4)
          CFI (cfiCond53) DPH0 Frame(CFA_SP, 5)
          CFI (cfiCond53) CFA_SP SP+-9
          CFI Block cfiCond54 Using cfiCommon0
          CFI (cfiCond54) Function bdb_setEpDescListToActiveEndpoint
          CFI (cfiCond54) Conditional ??CrossCallReturnLabel_47, ??CrossCallReturnLabel_1
          CFI (cfiCond54) DPL0 Frame(CFA_SP, 4)
          CFI (cfiCond54) DPH0 Frame(CFA_SP, 5)
          CFI (cfiCond54) CFA_SP SP+-9
          CFI Block cfiCond55 Using cfiCommon0
          CFI (cfiCond55) Function bdb_checkMatchingEndpoints
          CFI (cfiCond55) Conditional ??CrossCallReturnLabel_47, ??CrossCallReturnLabel_2
          CFI (cfiCond55) R6 load(1, XDATA, add(CFA_XSP16, literal(-20)))
          CFI (cfiCond55) VB load(1, XDATA, add(CFA_XSP16, literal(-19)))
          CFI (cfiCond55) V0 load(1, XDATA, add(CFA_XSP16, literal(-18)))
          CFI (cfiCond55) V1 load(1, XDATA, add(CFA_XSP16, literal(-17)))
          CFI (cfiCond55) V2 load(1, XDATA, add(CFA_XSP16, literal(-16)))
          CFI (cfiCond55) V3 load(1, XDATA, add(CFA_XSP16, literal(-15)))
          CFI (cfiCond55) V4 load(1, XDATA, add(CFA_XSP16, literal(-14)))
          CFI (cfiCond55) V5 load(1, XDATA, add(CFA_XSP16, literal(-13)))
          CFI (cfiCond55) V6 load(1, XDATA, add(CFA_XSP16, literal(-12)))
          CFI (cfiCond55) V7 load(1, XDATA, add(CFA_XSP16, literal(-11)))
          CFI (cfiCond55) V8 load(1, XDATA, add(CFA_XSP16, literal(-10)))
          CFI (cfiCond55) V9 load(1, XDATA, add(CFA_XSP16, literal(-9)))
          CFI (cfiCond55) V10 load(1, XDATA, add(CFA_XSP16, literal(-8)))
          CFI (cfiCond55) V11 load(1, XDATA, add(CFA_XSP16, literal(-7)))
          CFI (cfiCond55) R7 load(1, XDATA, add(CFA_XSP16, literal(-6)))
          CFI (cfiCond55) ?RET_LOW load(1, XDATA, add(CFA_XSP16, literal(-5)))
          CFI (cfiCond55) ?RET_HIGH load(1, XDATA, add(CFA_XSP16, literal(-4)))
          CFI (cfiCond55) ?BRET_EXT load(1, XDATA, add(CFA_XSP16, literal(-3)))
          CFI (cfiCond55) DPL0 load(1, XDATA, add(CFA_XSP16, literal(-2)))
          CFI (cfiCond55) DPH0 load(1, XDATA, add(CFA_XSP16, literal(-1)))
          CFI (cfiCond55) CFA_SP SP+-4
          CFI (cfiCond55) CFA_XSP16 add(XSP16, 29)
          CFI Block cfiPicker56 Using cfiCommon1
          CFI (cfiPicker56) NoFunction
          CFI (cfiPicker56) Picker
        MOV       A,R0
        MOVX      @DPTR,A
        INC       DPTR
        MOV       A,R1
        MOVX      @DPTR,A
        RET
          CFI EndBlock cfiCond48
          CFI EndBlock cfiCond49
          CFI EndBlock cfiCond50
          CFI EndBlock cfiCond51
          CFI EndBlock cfiCond52
          CFI EndBlock cfiCond53
          CFI EndBlock cfiCond54
          CFI EndBlock cfiCond55
          CFI EndBlock cfiPicker56
//  580 
//  581 
//  582 
//  583 /*********************************************************************
//  584  * @fn      bdb_ProcessSimpleDesc
//  585  *
//  586  * @brief   Process simple descriptor requested by F&B. Binds will be added if 
//  587  *          matching cluster is found and if IEEE addrs of the device is already 
//  588  *          stored
//  589  *
//  590  * @param   msgPtr - pointer to simple descriptor response indication message
//  591  *
//  592  * @return  none
//  593  */

        RSEG BANKED_CODE:HUGECODE:NOROOT(0)
//  594 void bdb_ProcessSimpleDesc( zdoIncomingMsg_t *msgPtr )
bdb_ProcessSimpleDesc:
          CFI Block cfiBlock57 Using cfiCommon0
          CFI Function bdb_ProcessSimpleDesc
        CODE
//  595 {
        FUNCALL bdb_ProcessSimpleDesc, bdb_setEpDescListToActiveEndpoint
        LOCFRAME ISTACK, 0, STACK
        LOCFRAME PSTACK, 0, STACK
        LOCFRAME XSTACK, 28, STACK
        LOCFRAME IOVERLAY, 0, STATIC
        LOCFRAME DOVERLAY, 0, STATIC
        ARGFRAME ISTACK, 0, STACK
        ARGFRAME PSTACK, 0, STACK
        ARGFRAME XSTACK, 28, STACK
        ARGFRAME IOVERLAY, 0, STATIC
        ARGFRAME DOVERLAY, 0, STATIC
        FUNCALL bdb_ProcessSimpleDesc, ZDO_ParseSimpleDescBuf
        LOCFRAME ISTACK, 0, STACK
        LOCFRAME PSTACK, 0, STACK
        LOCFRAME XSTACK, 28, STACK
        LOCFRAME IOVERLAY, 0, STATIC
        LOCFRAME DOVERLAY, 0, STATIC
        ARGFRAME ISTACK, 0, STACK
        ARGFRAME PSTACK, 0, STACK
        ARGFRAME XSTACK, 28, STACK
        ARGFRAME IOVERLAY, 0, STATIC
        ARGFRAME DOVERLAY, 0, STATIC
        FUNCALL bdb_ProcessSimpleDesc, bdb_findRespondentNode
        LOCFRAME ISTACK, 0, STACK
        LOCFRAME PSTACK, 0, STACK
        LOCFRAME XSTACK, 28, STACK
        LOCFRAME IOVERLAY, 0, STATIC
        LOCFRAME DOVERLAY, 0, STATIC
        ARGFRAME ISTACK, 0, STACK
        ARGFRAME PSTACK, 0, STACK
        ARGFRAME XSTACK, 28, STACK
        ARGFRAME IOVERLAY, 0, STATIC
        ARGFRAME DOVERLAY, 0, STATIC
        FUNCALL bdb_ProcessSimpleDesc, AddrMgrExtAddrLookup
        LOCFRAME ISTACK, 0, STACK
        LOCFRAME PSTACK, 0, STACK
        LOCFRAME XSTACK, 28, STACK
        LOCFRAME IOVERLAY, 0, STATIC
        LOCFRAME DOVERLAY, 0, STATIC
        ARGFRAME ISTACK, 0, STACK
        ARGFRAME PSTACK, 0, STACK
        ARGFRAME XSTACK, 28, STACK
        ARGFRAME IOVERLAY, 0, STATIC
        ARGFRAME DOVERLAY, 0, STATIC
        FUNCALL bdb_ProcessSimpleDesc, bdb_checkMatchingEndpoints
        LOCFRAME ISTACK, 0, STACK
        LOCFRAME PSTACK, 0, STACK
        LOCFRAME XSTACK, 28, STACK
        LOCFRAME IOVERLAY, 0, STATIC
        LOCFRAME DOVERLAY, 0, STATIC
        ARGFRAME ISTACK, 0, STACK
        ARGFRAME PSTACK, 0, STACK
        ARGFRAME XSTACK, 28, STACK
        ARGFRAME IOVERLAY, 0, STATIC
        ARGFRAME DOVERLAY, 0, STATIC
        FUNCALL bdb_ProcessSimpleDesc, bdb_zclSimpleDescClusterListClean
        LOCFRAME ISTACK, 0, STACK
        LOCFRAME PSTACK, 0, STACK
        LOCFRAME XSTACK, 28, STACK
        LOCFRAME IOVERLAY, 0, STATIC
        LOCFRAME DOVERLAY, 0, STATIC
        ARGFRAME ISTACK, 0, STACK
        ARGFRAME PSTACK, 0, STACK
        ARGFRAME XSTACK, 28, STACK
        ARGFRAME IOVERLAY, 0, STATIC
        ARGFRAME DOVERLAY, 0, STATIC
        REQUIRE ?V0
        MOV       A,#-0x9
        LCALL     ?BANKED_ENTER_XDATA
          CFI DPH0 load(1, XDATA, add(CFA_XSP16, literal(-1)))
          CFI DPL0 load(1, XDATA, add(CFA_XSP16, literal(-2)))
          CFI ?BRET_EXT load(1, XDATA, add(CFA_XSP16, literal(-3)))
          CFI ?RET_HIGH load(1, XDATA, add(CFA_XSP16, literal(-4)))
          CFI ?RET_LOW load(1, XDATA, add(CFA_XSP16, literal(-5)))
          CFI R7 load(1, XDATA, add(CFA_XSP16, literal(-6)))
          CFI V0 load(1, XDATA, add(CFA_XSP16, literal(-7)))
          CFI VB load(1, XDATA, add(CFA_XSP16, literal(-8)))
          CFI R6 load(1, XDATA, add(CFA_XSP16, literal(-9)))
          CFI CFA_SP SP+0
          CFI CFA_XSP16 add(XSP16, 9)
        ; Saved register size: 9
        ; Auto size: 19
        MOV       A,#-0x13
        LCALL     ?ALLOC_XSTACK8
          CFI CFA_XSP16 add(XSP16, 28)
        MOV       A,R2
        MOV       R6,A
        MOV       A,R3
        MOV       R7,A
//  596   zAddrType_t dstAddr;
//  597   bdbFindingBindingRespondent_t *pCurr = NULL;
        MOV       DPL,?XSP + 0
        MOV       DPH,?XSP + 1
        CLR       A
        MOVX      @DPTR,A
        INC       DPTR
        MOVX      @DPTR,A
//  598   uint8 isRespondantReadyToBeAdded = FALSE;
        MOV       ?V0,#0x0
//  599 
//  600   bdb_setEpDescListToActiveEndpoint();
        ; Setup parameters for call to function bdb_setEpDescListToActiveEndpoint
        LCALL     `??bdb_setEpDescListToActiveEndpoint::?relay`; Banked call to: bdb_setEpDescListToActiveEndpoint
//  601   
//  602   if ( !(bdb_CurrEpDescriptorList->epDesc->epType & BDB_FINDING_AND_BINDING_INITIATOR )) 
        LCALL     ?Subroutine11 & 0xFFFF
??CrossCallReturnLabel_13:
        LCALL     ??Subroutine42_0 & 0xFFFF
??CrossCallReturnLabel_56:
        INC       DPTR
        MOVX      A,@DPTR
        MOV       C,0xE0 /* A   */.0
        JC        $+5
        LJMP      ??bdb_ProcessSimpleDesc_0 & 0xFFFF
//  603   {  
//  604     //We should not be processing these commands as we are not initiator
//  605     return;
//  606   }
//  607   
//  608   dstAddr.addr.shortAddr = BUILD_UINT16( msgPtr->asdu[1], msgPtr->asdu[2] );
        MOV       A,R6
        ADD       A,#0x13
        MOV       DPL,A
        CLR       A
        ADDC      A,R7
        MOV       DPH,A
        LCALL     ?Subroutine21 & 0xFFFF
??CrossCallReturnLabel_24:
        INC       DPTR
        MOVX      A,@DPTR
        MOV       R4,A
        MOV       DPL,R0
        MOV       DPH,R1
        INC       DPTR
        INC       DPTR
        MOVX      A,@DPTR
        MOV       R3,A
        MOV       A,#0x2
        LCALL     ?XSTACK_DISP0_8
        MOV       A,R4
        LCALL     ??Subroutine50_0 & 0xFFFF
//  609   dstAddr.addrMode = Addr16Bit;
??CrossCallReturnLabel_89:
        MOV       A,#0xa
        LCALL     ?XSTACK_DISP0_8
        MOV       A,#0x2
        MOVX      @DPTR,A
//  610   
//  611   ZDO_ParseSimpleDescBuf( &msgPtr->asdu[4], &bdb_FindingBindingTargetSimpleDesc );
        ; Setup parameters for call to function ZDO_ParseSimpleDescBuf
        MOV       R4,#bdb_FindingBindingTargetSimpleDesc & 0xff
        MOV       R5,#(bdb_FindingBindingTargetSimpleDesc >> 8) & 0xff
        MOV       A,R0
        ADD       A,#0x4
        MOV       R2,A
        CLR       A
        ADDC      A,R1
        MOV       R3,A
        LCALL     `??ZDO_ParseSimpleDescBuf::?relay`; Banked call to: ZDO_ParseSimpleDescBuf
//  612   
//  613   pCurr = bdb_findRespondentNode(bdb_FindingBindingTargetSimpleDesc.EndPoint, dstAddr.addr.shortAddr);
        ; Setup parameters for call to function bdb_findRespondentNode
        MOV       A,#0x2
        LCALL     ?XSTACK_DISP0_8
        LCALL     ?Subroutine4 & 0xFFFF
//  614   
//  615   //Just for safety check this is a valid entry
//  616   if(pCurr != NULL) 
??CrossCallReturnLabel_104:
        JZ        ??bdb_ProcessSimpleDesc_0
//  617   {
//  618     uint8 extAddr[Z_EXTADDR_LEN]; 
//  619     
//  620     if(AddrMgrExtAddrLookup( pCurr->data.addr.shortAddr, extAddr ))
        ; Setup parameters for call to function AddrMgrExtAddrLookup
        MOV       A,#0xb
        LCALL     ?XSTACK_DISP102_8
        MOV       DPL,?XSP + 0
        MOV       DPH,?XSP + 1
        LCALL     ??Subroutine43_0 & 0xFFFF
??CrossCallReturnLabel_55:
        LCALL     ??Subroutine45_0 & 0xFFFF
??CrossCallReturnLabel_62:
        LCALL     `??AddrMgrExtAddrLookup::?relay`; Banked call to: AddrMgrExtAddrLookup
        MOV       A,R1
        JZ        ??bdb_ProcessSimpleDesc_1
//  621     {
//  622       isRespondantReadyToBeAdded = TRUE;
        MOV       ?V0,#0x1
        SJMP      ??bdb_ProcessSimpleDesc_2
//  623     }
//  624     else
//  625     {
//  626       //Save the simple desc to don't ask for it again
//  627       pCurr->SimpleDescriptor = &bdb_FindingBindingTargetSimpleDesc;
??bdb_ProcessSimpleDesc_1:
        MOV       DPL,?XSP + 0
        MOV       DPH,?XSP + 1
        LCALL     ??Subroutine48_0 & 0xFFFF
//  628     }
??CrossCallReturnLabel_84:
        ADD       A,#0xd
        MOV       DPL,A
        CLR       A
        ADDC      A,R0
        MOV       DPH,A
        MOV       A,#bdb_FindingBindingTargetSimpleDesc & 0xff
        MOVX      @DPTR,A
        INC       DPTR
        MOV       A,#(bdb_FindingBindingTargetSimpleDesc >> 8) & 0xff
        MOVX      @DPTR,A
//  629     (void)extAddr;  //dummy
//  630   }
//  631   else
//  632   {
//  633     //This simple desc rsp was not requested by BDB F&B
//  634     return;
//  635   } 
//  636   
//  637   bdb_checkMatchingEndpoints(isRespondantReadyToBeAdded, dstAddr.addr.shortAddr, &pCurr);
??bdb_ProcessSimpleDesc_2:
        ; Setup parameters for call to function bdb_checkMatchingEndpoints
        MOV       R4,?XSP + 0
        MOV       R5,?XSP + 1
        MOV       A,#0x2
        LCALL     ?XSTACK_DISP0_8
        LCALL     ??Subroutine45_0 & 0xFFFF
??CrossCallReturnLabel_63:
        MOV       R1,?V0
        LCALL     `??bdb_checkMatchingEndpoints::?relay`; Banked call to: bdb_checkMatchingEndpoints
//  638   
//  639   //If the respondent got process complete, then release the entry
//  640   if(pCurr->attempts == FINDING_AND_BINDING_RESPONDENT_COMPLETE)
        MOV       DPL,?XSP + 0
        MOV       DPH,?XSP + 1
        LCALL     ??Subroutine51_0 & 0xFFFF
??CrossCallReturnLabel_97:
        CPL       A
        JNZ       ??bdb_ProcessSimpleDesc_0
//  641   {
//  642     bdb_zclSimpleDescClusterListClean( &bdb_FindingBindingTargetSimpleDesc );  
        ; Setup parameters for call to function bdb_zclSimpleDescClusterListClean
        MOV       R2,#bdb_FindingBindingTargetSimpleDesc & 0xff
        MOV       R3,#(bdb_FindingBindingTargetSimpleDesc >> 8) & 0xff
        LCALL     `??bdb_zclSimpleDescClusterListClean::?relay`; Banked call to: bdb_zclSimpleDescClusterListClean
//  643   }
//  644 }
??bdb_ProcessSimpleDesc_0:
        MOV       A,#0x13
        LCALL     ?DEALLOC_XSTACK8
          CFI EndBlock cfiBlock57
        REQUIRE ?Subroutine3
        ; // Fall through to label ?Subroutine3

        RSEG BANKED_CODE:HUGECODE:NOROOT(0)
?Subroutine3:
          CFI Block cfiBlock58 Using cfiCommon0
          CFI NoFunction
          CFI CFA_SP SP+0
          CFI CFA_XSP16 add(XSP16, 9)
          CFI VB load(1, XDATA, add(CFA_XSP16, literal(-8)))
          CFI DPL0 load(1, XDATA, add(CFA_XSP16, literal(-2)))
          CFI DPH0 load(1, XDATA, add(CFA_XSP16, literal(-1)))
          CFI R6 load(1, XDATA, add(CFA_XSP16, literal(-9)))
          CFI R7 load(1, XDATA, add(CFA_XSP16, literal(-6)))
          CFI V0 load(1, XDATA, add(CFA_XSP16, literal(-7)))
          CFI ?BRET_EXT load(1, XDATA, add(CFA_XSP16, literal(-3)))
          CFI ?RET_HIGH load(1, XDATA, add(CFA_XSP16, literal(-4)))
          CFI ?RET_LOW load(1, XDATA, add(CFA_XSP16, literal(-5)))
        MOV       R7,#0x1
        LJMP      ?BANKED_LEAVE_XDATA
          CFI EndBlock cfiBlock58
//  645 
//  646 /*********************************************************************
//  647  * @fn      bdb_zclFindingBindingEpType
//  648  *
//  649  * @brief   Gives the Ep Type according to application clusters in
//  650  *          simple descriptor
//  651  *
//  652  * @return  epType - If Target, Initiator or both
//  653  */

        RSEG BANKED_CODE:HUGECODE:NOROOT(0)
//  654 uint8 bdb_zclFindingBindingEpType( endPointDesc_t *epDesc )
bdb_zclFindingBindingEpType:
          CFI Block cfiBlock59 Using cfiCommon0
          CFI Function bdb_zclFindingBindingEpType
        CODE
//  655 {
        FUNCALL bdb_zclFindingBindingEpType, ZDO_AnyClusterMatches
        LOCFRAME ISTACK, 0, STACK
        LOCFRAME PSTACK, 0, STACK
        LOCFRAME XSTACK, 16, STACK
        LOCFRAME IOVERLAY, 0, STATIC
        LOCFRAME DOVERLAY, 0, STATIC
        ARGFRAME ISTACK, 0, STACK
        ARGFRAME PSTACK, 0, STACK
        ARGFRAME XSTACK, 16, STACK
        ARGFRAME IOVERLAY, 0, STATIC
        ARGFRAME DOVERLAY, 0, STATIC
        FUNCALL bdb_zclFindingBindingEpType, ZDO_AnyClusterMatches
        LOCFRAME ISTACK, 0, STACK
        LOCFRAME PSTACK, 0, STACK
        LOCFRAME XSTACK, 16, STACK
        LOCFRAME IOVERLAY, 0, STATIC
        LOCFRAME DOVERLAY, 0, STATIC
        ARGFRAME ISTACK, 0, STACK
        ARGFRAME PSTACK, 0, STACK
        ARGFRAME XSTACK, 16, STACK
        ARGFRAME IOVERLAY, 0, STATIC
        ARGFRAME DOVERLAY, 0, STATIC
        FUNCALL bdb_zclFindingBindingEpType, ZDO_AnyClusterMatches
        LOCFRAME ISTACK, 0, STACK
        LOCFRAME PSTACK, 0, STACK
        LOCFRAME XSTACK, 16, STACK
        LOCFRAME IOVERLAY, 0, STATIC
        LOCFRAME DOVERLAY, 0, STATIC
        ARGFRAME ISTACK, 0, STACK
        ARGFRAME PSTACK, 0, STACK
        ARGFRAME XSTACK, 16, STACK
        ARGFRAME IOVERLAY, 0, STATIC
        ARGFRAME DOVERLAY, 0, STATIC
        FUNCALL bdb_zclFindingBindingEpType, ZDO_AnyClusterMatches
        LOCFRAME ISTACK, 0, STACK
        LOCFRAME PSTACK, 0, STACK
        LOCFRAME XSTACK, 16, STACK
        LOCFRAME IOVERLAY, 0, STATIC
        LOCFRAME DOVERLAY, 0, STATIC
        ARGFRAME ISTACK, 0, STACK
        ARGFRAME PSTACK, 0, STACK
        ARGFRAME XSTACK, 16, STACK
        ARGFRAME IOVERLAY, 0, STATIC
        ARGFRAME DOVERLAY, 0, STATIC
        REQUIRE ?V0
        REQUIRE ?V2
        REQUIRE ?V3
        REQUIRE ?V4
        REQUIRE ?V5
        MOV       A,#-0xe
        LCALL     ?BANKED_ENTER_XDATA
          CFI DPH0 load(1, XDATA, add(CFA_XSP16, literal(-1)))
          CFI DPL0 load(1, XDATA, add(CFA_XSP16, literal(-2)))
          CFI ?BRET_EXT load(1, XDATA, add(CFA_XSP16, literal(-3)))
          CFI ?RET_HIGH load(1, XDATA, add(CFA_XSP16, literal(-4)))
          CFI ?RET_LOW load(1, XDATA, add(CFA_XSP16, literal(-5)))
          CFI R7 load(1, XDATA, add(CFA_XSP16, literal(-6)))
          CFI V5 load(1, XDATA, add(CFA_XSP16, literal(-7)))
          CFI V4 load(1, XDATA, add(CFA_XSP16, literal(-8)))
          CFI V3 load(1, XDATA, add(CFA_XSP16, literal(-9)))
          CFI V2 load(1, XDATA, add(CFA_XSP16, literal(-10)))
          CFI V1 load(1, XDATA, add(CFA_XSP16, literal(-11)))
          CFI V0 load(1, XDATA, add(CFA_XSP16, literal(-12)))
          CFI VB load(1, XDATA, add(CFA_XSP16, literal(-13)))
          CFI R6 load(1, XDATA, add(CFA_XSP16, literal(-14)))
          CFI CFA_SP SP+0
          CFI CFA_XSP16 add(XSP16, 14)
        ; Saved register size: 14
        ; Auto size: 0
//  656   uint8 epType = 0;
        MOV       ?V0,#0x0
//  657   uint8 status;
//  658   uint8 type1ClusterCnt;
//  659   uint8 type2ClusterCnt;
//  660   
//  661   type1ClusterCnt = sizeof( bdb_ZclType1Clusters )/sizeof( uint16 );
//  662   type2ClusterCnt = sizeof( bdb_ZclType2Clusters )/sizeof( uint16 );
//  663   
//  664 
//  665   // Are there matching type 1 on server side?
//  666   status = ZDO_AnyClusterMatches( epDesc->simpleDesc->AppNumInClusters, 
//  667                                   epDesc->simpleDesc->pAppInClusterList,
//  668                                   type1ClusterCnt,
//  669                                   (uint16*)bdb_ZclType1Clusters);
//  670   
//  671   if( status == TRUE )
        MOV       A,R2
        ADD       A,#0x4
        MOV       R6,A
        CLR       A
        ADDC      A,R3
        MOV       R7,A
        MOV       DPL,R6
        MOV       DPH,A
        LCALL     ??Subroutine40_0 & 0xFFFF
??CrossCallReturnLabel_51:
        MOV       ?V4,#bdb_ZclType1Clusters & 0xff
        MOV       ?V5,#(bdb_ZclType1Clusters >> 8) & 0xff
        ; Setup parameters for call to function ZDO_AnyClusterMatches
        MOV       R0,#?V4
        LCALL     ?PUSH_XSTACK_I_TWO
          CFI CFA_XSP16 add(XSP16, 16)
        MOV       R4,#0x18
        LCALL     ?Subroutine9 & 0xFFFF
??CrossCallReturnLabel_7:
        LCALL     ?DEALLOC_XSTACK8
          CFI CFA_XSP16 add(XSP16, 14)
        MOV       A,R1
        XRL       A,#0x1
        JNZ       ??bdb_zclFindingBindingEpType_0
//  672   {
//  673     epType |= BDB_FINDING_AND_BINDING_TARGET;
        MOV       ?V0,#0x2
//  674   }
//  675   
//  676   // Are there matching type 1 on client side?
//  677   status = ZDO_AnyClusterMatches( epDesc->simpleDesc->AppNumOutClusters, 
//  678                                   epDesc->simpleDesc->pAppOutClusterList,
//  679                                   type1ClusterCnt,
//  680                                   (uint16*)bdb_ZclType1Clusters);
//  681   
//  682   if( status == TRUE )
??bdb_zclFindingBindingEpType_0:
        LCALL     ?Subroutine19 & 0xFFFF
??CrossCallReturnLabel_52:
        ; Setup parameters for call to function ZDO_AnyClusterMatches
        MOV       R0,#?V4
        LCALL     ?PUSH_XSTACK_I_TWO
          CFI CFA_XSP16 add(XSP16, 16)
        MOV       R4,#0x18
        MOV       DPL,?V2
        MOV       DPH,?V3
        LCALL     ?Subroutine14 & 0xFFFF
??CrossCallReturnLabel_71:
        MOV       DPL,?V2
        MOV       DPH,?V3
        LCALL     ?Subroutine28 & 0xFFFF
??CrossCallReturnLabel_48:
        LCALL     ?DEALLOC_XSTACK8
          CFI CFA_XSP16 add(XSP16, 14)
        MOV       A,R1
        XRL       A,#0x1
        JNZ       ??bdb_zclFindingBindingEpType_1
//  683   {
//  684     epType |= BDB_FINDING_AND_BINDING_INITIATOR;
        MOV       A,?V0
        SETB      0xE0 /* A   */.0
        MOV       ?V0,A
//  685   }
//  686   
//  687   // Are there matching type 2 on server side?
//  688   status = ZDO_AnyClusterMatches( epDesc->simpleDesc->AppNumInClusters, 
//  689                                   epDesc->simpleDesc->pAppInClusterList,
//  690                                   type2ClusterCnt,
//  691                                   (uint16*)bdb_ZclType2Clusters);
//  692   
//  693   if( status == TRUE )
??bdb_zclFindingBindingEpType_1:
        LCALL     ?Subroutine19 & 0xFFFF
??CrossCallReturnLabel_53:
        MOV       ?V4,#bdb_ZclType2Clusters & 0xff
        MOV       ?V5,#(bdb_ZclType2Clusters >> 8) & 0xff
        ; Setup parameters for call to function ZDO_AnyClusterMatches
        MOV       R0,#?V4
        LCALL     ?PUSH_XSTACK_I_TWO
          CFI CFA_XSP16 add(XSP16, 16)
        MOV       R4,#0x31
        LCALL     ?Subroutine9 & 0xFFFF
??CrossCallReturnLabel_8:
        LCALL     ?DEALLOC_XSTACK8
          CFI CFA_XSP16 add(XSP16, 14)
        MOV       A,R1
        XRL       A,#0x1
        JNZ       ??bdb_zclFindingBindingEpType_2
//  694   {
//  695     epType |= BDB_FINDING_AND_BINDING_INITIATOR;
        MOV       A,?V0
        SETB      0xE0 /* A   */.0
        MOV       ?V0,A
//  696   }
//  697   
//  698   // Are there matching type 2 on client side?
//  699   status = ZDO_AnyClusterMatches( epDesc->simpleDesc->AppNumOutClusters, 
//  700                                   epDesc->simpleDesc->pAppOutClusterList,
//  701                                   type2ClusterCnt,
//  702                                   (uint16*)bdb_ZclType2Clusters);
//  703   
//  704   if( status == TRUE )
??bdb_zclFindingBindingEpType_2:
        MOV       DPL,R6
        MOV       DPH,R7
        LCALL     ?Subroutine22 & 0xFFFF
??CrossCallReturnLabel_29:
        MOV       A,R0
        MOV       R6,A
        ; Setup parameters for call to function ZDO_AnyClusterMatches
        MOV       R0,#?V4
        LCALL     ?PUSH_XSTACK_I_TWO
          CFI CFA_XSP16 add(XSP16, 16)
        MOV       R4,#0x31
        MOV       DPL,R6
        MOV       DPH,R1
        LCALL     ?Subroutine14 & 0xFFFF
??CrossCallReturnLabel_72:
        MOV       DPL,R6
        MOV       DPH,R1
        LCALL     ?Subroutine28 & 0xFFFF
??CrossCallReturnLabel_49:
        LCALL     ?DEALLOC_XSTACK8
          CFI CFA_XSP16 add(XSP16, 14)
        MOV       A,R1
        XRL       A,#0x1
        JNZ       ??bdb_zclFindingBindingEpType_3
//  705   {
//  706     epType |= BDB_FINDING_AND_BINDING_TARGET;
        MOV       A,?V0
        SETB      0xE0 /* A   */.1
        MOV       ?V0,A
//  707   }
//  708 
//  709   return epType;
??bdb_zclFindingBindingEpType_3:
        MOV       R1,?V0
        MOV       R7,#0x6
        LJMP      ?BANKED_LEAVE_XDATA
//  710 
//  711 }
          CFI EndBlock cfiBlock59

        RSEG BANKED_CODE:HUGECODE:NOROOT(0)
?Subroutine28:
          CFI Block cfiCond60 Using cfiCommon0
          CFI Function bdb_zclFindingBindingEpType
          CFI Conditional ??CrossCallReturnLabel_48
          CFI R6 load(1, XDATA, add(CFA_XSP16, literal(-14)))
          CFI VB load(1, XDATA, add(CFA_XSP16, literal(-13)))
          CFI V0 load(1, XDATA, add(CFA_XSP16, literal(-12)))
          CFI V1 load(1, XDATA, add(CFA_XSP16, literal(-11)))
          CFI V2 load(1, XDATA, add(CFA_XSP16, literal(-10)))
          CFI V3 load(1, XDATA, add(CFA_XSP16, literal(-9)))
          CFI V4 load(1, XDATA, add(CFA_XSP16, literal(-8)))
          CFI V5 load(1, XDATA, add(CFA_XSP16, literal(-7)))
          CFI R7 load(1, XDATA, add(CFA_XSP16, literal(-6)))
          CFI ?RET_LOW load(1, XDATA, add(CFA_XSP16, literal(-5)))
          CFI ?RET_HIGH load(1, XDATA, add(CFA_XSP16, literal(-4)))
          CFI ?BRET_EXT load(1, XDATA, add(CFA_XSP16, literal(-3)))
          CFI DPL0 load(1, XDATA, add(CFA_XSP16, literal(-2)))
          CFI DPH0 load(1, XDATA, add(CFA_XSP16, literal(-1)))
          CFI CFA_SP SP+-2
          CFI CFA_XSP16 add(XSP16, 16)
          CFI Block cfiCond61 Using cfiCommon0
          CFI (cfiCond61) Function bdb_zclFindingBindingEpType
          CFI (cfiCond61) Conditional ??CrossCallReturnLabel_49
          CFI (cfiCond61) R6 load(1, XDATA, add(CFA_XSP16, literal(-14)))
          CFI (cfiCond61) VB load(1, XDATA, add(CFA_XSP16, literal(-13)))
          CFI (cfiCond61) V0 load(1, XDATA, add(CFA_XSP16, literal(-12)))
          CFI (cfiCond61) V1 load(1, XDATA, add(CFA_XSP16, literal(-11)))
          CFI (cfiCond61) V2 load(1, XDATA, add(CFA_XSP16, literal(-10)))
          CFI (cfiCond61) V3 load(1, XDATA, add(CFA_XSP16, literal(-9)))
          CFI (cfiCond61) V4 load(1, XDATA, add(CFA_XSP16, literal(-8)))
          CFI (cfiCond61) V5 load(1, XDATA, add(CFA_XSP16, literal(-7)))
          CFI (cfiCond61) R7 load(1, XDATA, add(CFA_XSP16, literal(-6)))
          CFI (cfiCond61) ?RET_LOW load(1, XDATA, add(CFA_XSP16, literal(-5)))
          CFI (cfiCond61) ?RET_HIGH load(1, XDATA, add(CFA_XSP16, literal(-4)))
          CFI (cfiCond61) ?BRET_EXT load(1, XDATA, add(CFA_XSP16, literal(-3)))
          CFI (cfiCond61) DPL0 load(1, XDATA, add(CFA_XSP16, literal(-2)))
          CFI (cfiCond61) DPH0 load(1, XDATA, add(CFA_XSP16, literal(-1)))
          CFI (cfiCond61) CFA_SP SP+-2
          CFI (cfiCond61) CFA_XSP16 add(XSP16, 16)
          CFI Block cfiPicker62 Using cfiCommon1
          CFI (cfiPicker62) NoFunction
          CFI (cfiPicker62) Picker
        INC       DPTR
        INC       DPTR
        INC       DPTR
          CFI EndBlock cfiCond60
          CFI EndBlock cfiCond61
          CFI EndBlock cfiPicker62
        REQUIRE ??Subroutine39_0
        ; // Fall through to label ??Subroutine39_0

        RSEG BANKED_CODE:HUGECODE:NOROOT(0)
??Subroutine39_0:
          CFI Block cfiCond63 Using cfiCommon0
          CFI Function bdb_zclFindingBindingEpType
          CFI Conditional ??CrossCallReturnLabel_50, ??CrossCallReturnLabel_7
          CFI R6 load(1, XDATA, add(CFA_XSP16, literal(-14)))
          CFI VB load(1, XDATA, add(CFA_XSP16, literal(-13)))
          CFI V0 load(1, XDATA, add(CFA_XSP16, literal(-12)))
          CFI V1 load(1, XDATA, add(CFA_XSP16, literal(-11)))
          CFI V2 load(1, XDATA, add(CFA_XSP16, literal(-10)))
          CFI V3 load(1, XDATA, add(CFA_XSP16, literal(-9)))
          CFI V4 load(1, XDATA, add(CFA_XSP16, literal(-8)))
          CFI V5 load(1, XDATA, add(CFA_XSP16, literal(-7)))
          CFI R7 load(1, XDATA, add(CFA_XSP16, literal(-6)))
          CFI ?RET_LOW load(1, XDATA, add(CFA_XSP16, literal(-5)))
          CFI ?RET_HIGH load(1, XDATA, add(CFA_XSP16, literal(-4)))
          CFI ?BRET_EXT load(1, XDATA, add(CFA_XSP16, literal(-3)))
          CFI DPL0 load(1, XDATA, add(CFA_XSP16, literal(-2)))
          CFI DPH0 load(1, XDATA, add(CFA_XSP16, literal(-1)))
          CFI CFA_SP SP+-4
          CFI CFA_XSP16 add(XSP16, 16)
          CFI Block cfiCond64 Using cfiCommon0
          CFI (cfiCond64) Function bdb_zclFindingBindingEpType
          CFI (cfiCond64) Conditional ??CrossCallReturnLabel_50, ??CrossCallReturnLabel_8
          CFI (cfiCond64) R6 load(1, XDATA, add(CFA_XSP16, literal(-14)))
          CFI (cfiCond64) VB load(1, XDATA, add(CFA_XSP16, literal(-13)))
          CFI (cfiCond64) V0 load(1, XDATA, add(CFA_XSP16, literal(-12)))
          CFI (cfiCond64) V1 load(1, XDATA, add(CFA_XSP16, literal(-11)))
          CFI (cfiCond64) V2 load(1, XDATA, add(CFA_XSP16, literal(-10)))
          CFI (cfiCond64) V3 load(1, XDATA, add(CFA_XSP16, literal(-9)))
          CFI (cfiCond64) V4 load(1, XDATA, add(CFA_XSP16, literal(-8)))
          CFI (cfiCond64) V5 load(1, XDATA, add(CFA_XSP16, literal(-7)))
          CFI (cfiCond64) R7 load(1, XDATA, add(CFA_XSP16, literal(-6)))
          CFI (cfiCond64) ?RET_LOW load(1, XDATA, add(CFA_XSP16, literal(-5)))
          CFI (cfiCond64) ?RET_HIGH load(1, XDATA, add(CFA_XSP16, literal(-4)))
          CFI (cfiCond64) ?BRET_EXT load(1, XDATA, add(CFA_XSP16, literal(-3)))
          CFI (cfiCond64) DPL0 load(1, XDATA, add(CFA_XSP16, literal(-2)))
          CFI (cfiCond64) DPH0 load(1, XDATA, add(CFA_XSP16, literal(-1)))
          CFI (cfiCond64) CFA_SP SP+-4
          CFI (cfiCond64) CFA_XSP16 add(XSP16, 16)
          CFI Block cfiCond65 Using cfiCommon0
          CFI (cfiCond65) Function bdb_zclFindingBindingEpType
          CFI (cfiCond65) Conditional ??CrossCallReturnLabel_48
          CFI (cfiCond65) R6 load(1, XDATA, add(CFA_XSP16, literal(-14)))
          CFI (cfiCond65) VB load(1, XDATA, add(CFA_XSP16, literal(-13)))
          CFI (cfiCond65) V0 load(1, XDATA, add(CFA_XSP16, literal(-12)))
          CFI (cfiCond65) V1 load(1, XDATA, add(CFA_XSP16, literal(-11)))
          CFI (cfiCond65) V2 load(1, XDATA, add(CFA_XSP16, literal(-10)))
          CFI (cfiCond65) V3 load(1, XDATA, add(CFA_XSP16, literal(-9)))
          CFI (cfiCond65) V4 load(1, XDATA, add(CFA_XSP16, literal(-8)))
          CFI (cfiCond65) V5 load(1, XDATA, add(CFA_XSP16, literal(-7)))
          CFI (cfiCond65) R7 load(1, XDATA, add(CFA_XSP16, literal(-6)))
          CFI (cfiCond65) ?RET_LOW load(1, XDATA, add(CFA_XSP16, literal(-5)))
          CFI (cfiCond65) ?RET_HIGH load(1, XDATA, add(CFA_XSP16, literal(-4)))
          CFI (cfiCond65) ?BRET_EXT load(1, XDATA, add(CFA_XSP16, literal(-3)))
          CFI (cfiCond65) DPL0 load(1, XDATA, add(CFA_XSP16, literal(-2)))
          CFI (cfiCond65) DPH0 load(1, XDATA, add(CFA_XSP16, literal(-1)))
          CFI (cfiCond65) CFA_SP SP+-2
          CFI (cfiCond65) CFA_XSP16 add(XSP16, 16)
          CFI Block cfiCond66 Using cfiCommon0
          CFI (cfiCond66) Function bdb_zclFindingBindingEpType
          CFI (cfiCond66) Conditional ??CrossCallReturnLabel_49
          CFI (cfiCond66) R6 load(1, XDATA, add(CFA_XSP16, literal(-14)))
          CFI (cfiCond66) VB load(1, XDATA, add(CFA_XSP16, literal(-13)))
          CFI (cfiCond66) V0 load(1, XDATA, add(CFA_XSP16, literal(-12)))
          CFI (cfiCond66) V1 load(1, XDATA, add(CFA_XSP16, literal(-11)))
          CFI (cfiCond66) V2 load(1, XDATA, add(CFA_XSP16, literal(-10)))
          CFI (cfiCond66) V3 load(1, XDATA, add(CFA_XSP16, literal(-9)))
          CFI (cfiCond66) V4 load(1, XDATA, add(CFA_XSP16, literal(-8)))
          CFI (cfiCond66) V5 load(1, XDATA, add(CFA_XSP16, literal(-7)))
          CFI (cfiCond66) R7 load(1, XDATA, add(CFA_XSP16, literal(-6)))
          CFI (cfiCond66) ?RET_LOW load(1, XDATA, add(CFA_XSP16, literal(-5)))
          CFI (cfiCond66) ?RET_HIGH load(1, XDATA, add(CFA_XSP16, literal(-4)))
          CFI (cfiCond66) ?BRET_EXT load(1, XDATA, add(CFA_XSP16, literal(-3)))
          CFI (cfiCond66) DPL0 load(1, XDATA, add(CFA_XSP16, literal(-2)))
          CFI (cfiCond66) DPH0 load(1, XDATA, add(CFA_XSP16, literal(-1)))
          CFI (cfiCond66) CFA_SP SP+-2
          CFI (cfiCond66) CFA_XSP16 add(XSP16, 16)
          CFI Block cfiPicker67 Using cfiCommon1
          CFI (cfiPicker67) NoFunction
          CFI (cfiPicker67) Picker
        INC       DPTR
        INC       DPTR
        INC       DPTR
        INC       DPTR
        INC       DPTR
        INC       DPTR
        MOVX      A,@DPTR
        MOV       R1,A
        LCALL     `??ZDO_AnyClusterMatches::?relay`; Banked call to: ZDO_AnyClusterMatches
        MOV       A,#0x2
        RET
          CFI EndBlock cfiCond63
          CFI EndBlock cfiCond64
          CFI EndBlock cfiCond65
          CFI EndBlock cfiCond66
          CFI EndBlock cfiPicker67

        RSEG BANKED_CODE:HUGECODE:NOROOT(0)
?Subroutine22:
          CFI Block cfiCond68 Using cfiCommon0
          CFI Function bdb_SetIdentifyActiveEndpoint
          CFI Conditional ??CrossCallReturnLabel_26
          CFI DPL0 Frame(CFA_SP, 4)
          CFI DPH0 Frame(CFA_SP, 5)
          CFI CFA_SP SP+-7
          CFI Block cfiCond69 Using cfiCommon0
          CFI (cfiCond69) Function bdb_setEpDescListToActiveEndpoint
          CFI (cfiCond69) Conditional ??CrossCallReturnLabel_27
          CFI (cfiCond69) DPL0 Frame(CFA_SP, 4)
          CFI (cfiCond69) DPH0 Frame(CFA_SP, 5)
          CFI (cfiCond69) CFA_SP SP+-7
          CFI Block cfiCond70 Using cfiCommon0
          CFI (cfiCond70) Function bdb_ProcessIEEEAddrRsp
          CFI (cfiCond70) Conditional ??CrossCallReturnLabel_28
          CFI (cfiCond70) R6 load(1, XDATA, add(CFA_XSP16, literal(-10)))
          CFI (cfiCond70) VB load(1, XDATA, add(CFA_XSP16, literal(-9)))
          CFI (cfiCond70) V0 load(1, XDATA, add(CFA_XSP16, literal(-8)))
          CFI (cfiCond70) V1 load(1, XDATA, add(CFA_XSP16, literal(-7)))
          CFI (cfiCond70) R7 load(1, XDATA, add(CFA_XSP16, literal(-6)))
          CFI (cfiCond70) ?RET_LOW load(1, XDATA, add(CFA_XSP16, literal(-5)))
          CFI (cfiCond70) ?RET_HIGH load(1, XDATA, add(CFA_XSP16, literal(-4)))
          CFI (cfiCond70) ?BRET_EXT load(1, XDATA, add(CFA_XSP16, literal(-3)))
          CFI (cfiCond70) DPL0 load(1, XDATA, add(CFA_XSP16, literal(-2)))
          CFI (cfiCond70) DPH0 load(1, XDATA, add(CFA_XSP16, literal(-1)))
          CFI (cfiCond70) CFA_SP SP+-2
          CFI (cfiCond70) CFA_XSP16 add(XSP16, 25)
          CFI Block cfiCond71 Using cfiCommon0
          CFI (cfiCond71) Function bdb_zclFindingBindingEpType
          CFI (cfiCond71) Conditional ??CrossCallReturnLabel_29
          CFI (cfiCond71) R6 load(1, XDATA, add(CFA_XSP16, literal(-14)))
          CFI (cfiCond71) VB load(1, XDATA, add(CFA_XSP16, literal(-13)))
          CFI (cfiCond71) V0 load(1, XDATA, add(CFA_XSP16, literal(-12)))
          CFI (cfiCond71) V1 load(1, XDATA, add(CFA_XSP16, literal(-11)))
          CFI (cfiCond71) V2 load(1, XDATA, add(CFA_XSP16, literal(-10)))
          CFI (cfiCond71) V3 load(1, XDATA, add(CFA_XSP16, literal(-9)))
          CFI (cfiCond71) V4 load(1, XDATA, add(CFA_XSP16, literal(-8)))
          CFI (cfiCond71) V5 load(1, XDATA, add(CFA_XSP16, literal(-7)))
          CFI (cfiCond71) R7 load(1, XDATA, add(CFA_XSP16, literal(-6)))
          CFI (cfiCond71) ?RET_LOW load(1, XDATA, add(CFA_XSP16, literal(-5)))
          CFI (cfiCond71) ?RET_HIGH load(1, XDATA, add(CFA_XSP16, literal(-4)))
          CFI (cfiCond71) ?BRET_EXT load(1, XDATA, add(CFA_XSP16, literal(-3)))
          CFI (cfiCond71) DPL0 load(1, XDATA, add(CFA_XSP16, literal(-2)))
          CFI (cfiCond71) DPH0 load(1, XDATA, add(CFA_XSP16, literal(-1)))
          CFI (cfiCond71) CFA_SP SP+-2
          CFI (cfiCond71) CFA_XSP16 add(XSP16, 14)
          CFI Block cfiCond72 Using cfiCommon0
          CFI (cfiCond72) Function bdb_ZclIdentifyQueryCmdInd
          CFI (cfiCond72) Conditional ??CrossCallReturnLabel_30
          CFI (cfiCond72) R6 load(1, XDATA, add(CFA_XSP16, literal(-10)))
          CFI (cfiCond72) VB load(1, XDATA, add(CFA_XSP16, literal(-9)))
          CFI (cfiCond72) V0 load(1, XDATA, add(CFA_XSP16, literal(-8)))
          CFI (cfiCond72) V1 load(1, XDATA, add(CFA_XSP16, literal(-7)))
          CFI (cfiCond72) R7 load(1, XDATA, add(CFA_XSP16, literal(-6)))
          CFI (cfiCond72) ?RET_LOW load(1, XDATA, add(CFA_XSP16, literal(-5)))
          CFI (cfiCond72) ?RET_HIGH load(1, XDATA, add(CFA_XSP16, literal(-4)))
          CFI (cfiCond72) ?BRET_EXT load(1, XDATA, add(CFA_XSP16, literal(-3)))
          CFI (cfiCond72) DPL0 load(1, XDATA, add(CFA_XSP16, literal(-2)))
          CFI (cfiCond72) DPH0 load(1, XDATA, add(CFA_XSP16, literal(-1)))
          CFI (cfiCond72) CFA_SP SP+-2
          CFI (cfiCond72) CFA_XSP16 add(XSP16, 10)
          CFI Block cfiCond73 Using cfiCommon0
          CFI (cfiCond73) Function bdb_ProcessRespondentList
          CFI (cfiCond73) Conditional ??CrossCallReturnLabel_31
          CFI (cfiCond73) R6 load(1, XDATA, add(CFA_XSP16, literal(-16)))
          CFI (cfiCond73) VB load(1, XDATA, add(CFA_XSP16, literal(-15)))
          CFI (cfiCond73) V0 load(1, XDATA, add(CFA_XSP16, literal(-14)))
          CFI (cfiCond73) V1 load(1, XDATA, add(CFA_XSP16, literal(-13)))
          CFI (cfiCond73) V2 load(1, XDATA, add(CFA_XSP16, literal(-12)))
          CFI (cfiCond73) V3 load(1, XDATA, add(CFA_XSP16, literal(-11)))
          CFI (cfiCond73) V4 load(1, XDATA, add(CFA_XSP16, literal(-10)))
          CFI (cfiCond73) V5 load(1, XDATA, add(CFA_XSP16, literal(-9)))
          CFI (cfiCond73) V6 load(1, XDATA, add(CFA_XSP16, literal(-8)))
          CFI (cfiCond73) V7 load(1, XDATA, add(CFA_XSP16, literal(-7)))
          CFI (cfiCond73) R7 load(1, XDATA, add(CFA_XSP16, literal(-6)))
          CFI (cfiCond73) ?RET_LOW load(1, XDATA, add(CFA_XSP16, literal(-5)))
          CFI (cfiCond73) ?RET_HIGH load(1, XDATA, add(CFA_XSP16, literal(-4)))
          CFI (cfiCond73) ?BRET_EXT load(1, XDATA, add(CFA_XSP16, literal(-3)))
          CFI (cfiCond73) DPL0 load(1, XDATA, add(CFA_XSP16, literal(-2)))
          CFI (cfiCond73) DPH0 load(1, XDATA, add(CFA_XSP16, literal(-1)))
          CFI (cfiCond73) CFA_SP SP+-2
          CFI (cfiCond73) CFA_XSP16 add(XSP16, 25)
          CFI Block cfiPicker74 Using cfiCommon1
          CFI (cfiPicker74) NoFunction
          CFI (cfiPicker74) Picker
        LCALL     ?Subroutine31 & 0xFFFF
??CrossCallReturnLabel_115:
        MOV       R1,A
        RET
          CFI EndBlock cfiCond68
          CFI EndBlock cfiCond69
          CFI EndBlock cfiCond70
          CFI EndBlock cfiCond71
          CFI EndBlock cfiCond72
          CFI EndBlock cfiCond73
          CFI EndBlock cfiPicker74

        RSEG BANKED_CODE:HUGECODE:NOROOT(0)
?Subroutine19:
          CFI Block cfiCond75 Using cfiCommon0
          CFI Function bdb_zclFindingBindingEpType
          CFI Conditional ??CrossCallReturnLabel_52
          CFI R6 load(1, XDATA, add(CFA_XSP16, literal(-14)))
          CFI VB load(1, XDATA, add(CFA_XSP16, literal(-13)))
          CFI V0 load(1, XDATA, add(CFA_XSP16, literal(-12)))
          CFI V1 load(1, XDATA, add(CFA_XSP16, literal(-11)))
          CFI V2 load(1, XDATA, add(CFA_XSP16, literal(-10)))
          CFI V3 load(1, XDATA, add(CFA_XSP16, literal(-9)))
          CFI V4 load(1, XDATA, add(CFA_XSP16, literal(-8)))
          CFI V5 load(1, XDATA, add(CFA_XSP16, literal(-7)))
          CFI R7 load(1, XDATA, add(CFA_XSP16, literal(-6)))
          CFI ?RET_LOW load(1, XDATA, add(CFA_XSP16, literal(-5)))
          CFI ?RET_HIGH load(1, XDATA, add(CFA_XSP16, literal(-4)))
          CFI ?BRET_EXT load(1, XDATA, add(CFA_XSP16, literal(-3)))
          CFI DPL0 load(1, XDATA, add(CFA_XSP16, literal(-2)))
          CFI DPH0 load(1, XDATA, add(CFA_XSP16, literal(-1)))
          CFI CFA_SP SP+-2
          CFI CFA_XSP16 add(XSP16, 14)
          CFI Block cfiCond76 Using cfiCommon0
          CFI (cfiCond76) Function bdb_zclFindingBindingEpType
          CFI (cfiCond76) Conditional ??CrossCallReturnLabel_53
          CFI (cfiCond76) R6 load(1, XDATA, add(CFA_XSP16, literal(-14)))
          CFI (cfiCond76) VB load(1, XDATA, add(CFA_XSP16, literal(-13)))
          CFI (cfiCond76) V0 load(1, XDATA, add(CFA_XSP16, literal(-12)))
          CFI (cfiCond76) V1 load(1, XDATA, add(CFA_XSP16, literal(-11)))
          CFI (cfiCond76) V2 load(1, XDATA, add(CFA_XSP16, literal(-10)))
          CFI (cfiCond76) V3 load(1, XDATA, add(CFA_XSP16, literal(-9)))
          CFI (cfiCond76) V4 load(1, XDATA, add(CFA_XSP16, literal(-8)))
          CFI (cfiCond76) V5 load(1, XDATA, add(CFA_XSP16, literal(-7)))
          CFI (cfiCond76) R7 load(1, XDATA, add(CFA_XSP16, literal(-6)))
          CFI (cfiCond76) ?RET_LOW load(1, XDATA, add(CFA_XSP16, literal(-5)))
          CFI (cfiCond76) ?RET_HIGH load(1, XDATA, add(CFA_XSP16, literal(-4)))
          CFI (cfiCond76) ?BRET_EXT load(1, XDATA, add(CFA_XSP16, literal(-3)))
          CFI (cfiCond76) DPL0 load(1, XDATA, add(CFA_XSP16, literal(-2)))
          CFI (cfiCond76) DPH0 load(1, XDATA, add(CFA_XSP16, literal(-1)))
          CFI (cfiCond76) CFA_SP SP+-2
          CFI (cfiCond76) CFA_XSP16 add(XSP16, 14)
          CFI Block cfiPicker77 Using cfiCommon1
          CFI (cfiPicker77) NoFunction
          CFI (cfiPicker77) Picker
        MOV       DPL,R6
        MOV       DPH,R7
          CFI EndBlock cfiCond75
          CFI EndBlock cfiCond76
          CFI EndBlock cfiPicker77
        REQUIRE ??Subroutine40_0
        ; // Fall through to label ??Subroutine40_0

        RSEG BANKED_CODE:HUGECODE:NOROOT(0)
??Subroutine40_0:
          CFI Block cfiCond78 Using cfiCommon0
          CFI Function bdb_zclFindingBindingEpType
          CFI Conditional ??CrossCallReturnLabel_51
          CFI R6 load(1, XDATA, add(CFA_XSP16, literal(-14)))
          CFI VB load(1, XDATA, add(CFA_XSP16, literal(-13)))
          CFI V0 load(1, XDATA, add(CFA_XSP16, literal(-12)))
          CFI V1 load(1, XDATA, add(CFA_XSP16, literal(-11)))
          CFI V2 load(1, XDATA, add(CFA_XSP16, literal(-10)))
          CFI V3 load(1, XDATA, add(CFA_XSP16, literal(-9)))
          CFI V4 load(1, XDATA, add(CFA_XSP16, literal(-8)))
          CFI V5 load(1, XDATA, add(CFA_XSP16, literal(-7)))
          CFI R7 load(1, XDATA, add(CFA_XSP16, literal(-6)))
          CFI ?RET_LOW load(1, XDATA, add(CFA_XSP16, literal(-5)))
          CFI ?RET_HIGH load(1, XDATA, add(CFA_XSP16, literal(-4)))
          CFI ?BRET_EXT load(1, XDATA, add(CFA_XSP16, literal(-3)))
          CFI DPL0 load(1, XDATA, add(CFA_XSP16, literal(-2)))
          CFI DPH0 load(1, XDATA, add(CFA_XSP16, literal(-1)))
          CFI CFA_SP SP+-2
          CFI CFA_XSP16 add(XSP16, 14)
          CFI Block cfiCond79 Using cfiCommon0
          CFI (cfiCond79) Function bdb_zclFindingBindingEpType
          CFI (cfiCond79) Conditional ??CrossCallReturnLabel_52
          CFI (cfiCond79) R6 load(1, XDATA, add(CFA_XSP16, literal(-14)))
          CFI (cfiCond79) VB load(1, XDATA, add(CFA_XSP16, literal(-13)))
          CFI (cfiCond79) V0 load(1, XDATA, add(CFA_XSP16, literal(-12)))
          CFI (cfiCond79) V1 load(1, XDATA, add(CFA_XSP16, literal(-11)))
          CFI (cfiCond79) V2 load(1, XDATA, add(CFA_XSP16, literal(-10)))
          CFI (cfiCond79) V3 load(1, XDATA, add(CFA_XSP16, literal(-9)))
          CFI (cfiCond79) V4 load(1, XDATA, add(CFA_XSP16, literal(-8)))
          CFI (cfiCond79) V5 load(1, XDATA, add(CFA_XSP16, literal(-7)))
          CFI (cfiCond79) R7 load(1, XDATA, add(CFA_XSP16, literal(-6)))
          CFI (cfiCond79) ?RET_LOW load(1, XDATA, add(CFA_XSP16, literal(-5)))
          CFI (cfiCond79) ?RET_HIGH load(1, XDATA, add(CFA_XSP16, literal(-4)))
          CFI (cfiCond79) ?BRET_EXT load(1, XDATA, add(CFA_XSP16, literal(-3)))
          CFI (cfiCond79) DPL0 load(1, XDATA, add(CFA_XSP16, literal(-2)))
          CFI (cfiCond79) DPH0 load(1, XDATA, add(CFA_XSP16, literal(-1)))
          CFI (cfiCond79) CFA_SP SP+-2
          CFI (cfiCond79) CFA_XSP16 add(XSP16, 14)
          CFI Block cfiCond80 Using cfiCommon0
          CFI (cfiCond80) Function bdb_zclFindingBindingEpType
          CFI (cfiCond80) Conditional ??CrossCallReturnLabel_53
          CFI (cfiCond80) R6 load(1, XDATA, add(CFA_XSP16, literal(-14)))
          CFI (cfiCond80) VB load(1, XDATA, add(CFA_XSP16, literal(-13)))
          CFI (cfiCond80) V0 load(1, XDATA, add(CFA_XSP16, literal(-12)))
          CFI (cfiCond80) V1 load(1, XDATA, add(CFA_XSP16, literal(-11)))
          CFI (cfiCond80) V2 load(1, XDATA, add(CFA_XSP16, literal(-10)))
          CFI (cfiCond80) V3 load(1, XDATA, add(CFA_XSP16, literal(-9)))
          CFI (cfiCond80) V4 load(1, XDATA, add(CFA_XSP16, literal(-8)))
          CFI (cfiCond80) V5 load(1, XDATA, add(CFA_XSP16, literal(-7)))
          CFI (cfiCond80) R7 load(1, XDATA, add(CFA_XSP16, literal(-6)))
          CFI (cfiCond80) ?RET_LOW load(1, XDATA, add(CFA_XSP16, literal(-5)))
          CFI (cfiCond80) ?RET_HIGH load(1, XDATA, add(CFA_XSP16, literal(-4)))
          CFI (cfiCond80) ?BRET_EXT load(1, XDATA, add(CFA_XSP16, literal(-3)))
          CFI (cfiCond80) DPL0 load(1, XDATA, add(CFA_XSP16, literal(-2)))
          CFI (cfiCond80) DPH0 load(1, XDATA, add(CFA_XSP16, literal(-1)))
          CFI (cfiCond80) CFA_SP SP+-2
          CFI (cfiCond80) CFA_XSP16 add(XSP16, 14)
          CFI Block cfiPicker81 Using cfiCommon1
          CFI (cfiPicker81) NoFunction
          CFI (cfiPicker81) Picker
        LCALL     ?Subroutine31 & 0xFFFF
??CrossCallReturnLabel_117:
        MOV       ?V2,R0
        MOV       ?V3,A
        RET
          CFI EndBlock cfiCond78
          CFI EndBlock cfiCond79
          CFI EndBlock cfiCond80
          CFI EndBlock cfiPicker81

        RSEG BANKED_CODE:HUGECODE:NOROOT(0)
?Subroutine31:
          CFI Block cfiCond82 Using cfiCommon0
          CFI Function bdb_SetIdentifyActiveEndpoint
          CFI Conditional ??CrossCallReturnLabel_116, ??CrossCallReturnLabel_32
          CFI DPL0 Frame(CFA_SP, 4)
          CFI DPH0 Frame(CFA_SP, 5)
          CFI CFA_SP SP+-9
          CFI Block cfiCond83 Using cfiCommon0
          CFI (cfiCond83) Function bdb_setEpDescListToActiveEndpoint
          CFI (cfiCond83) Conditional ??CrossCallReturnLabel_116, ??CrossCallReturnLabel_33
          CFI (cfiCond83) DPL0 Frame(CFA_SP, 4)
          CFI (cfiCond83) DPH0 Frame(CFA_SP, 5)
          CFI (cfiCond83) CFA_SP SP+-9
          CFI Block cfiCond84 Using cfiCommon0
          CFI (cfiCond84) Function bdb_setEpDescListToActiveEndpoint
          CFI (cfiCond84) Conditional ??CrossCallReturnLabel_113, ??CrossCallReturnLabel_11
          CFI (cfiCond84) DPL0 Frame(CFA_SP, 4)
          CFI (cfiCond84) DPH0 Frame(CFA_SP, 5)
          CFI (cfiCond84) CFA_SP SP+-9
          CFI Block cfiCond85 Using cfiCommon0
          CFI (cfiCond85) Function bdb_checkMatchingEndpoints
          CFI (cfiCond85) Conditional ??CrossCallReturnLabel_113, ??CrossCallReturnLabel_12
          CFI (cfiCond85) R6 load(1, XDATA, add(CFA_XSP16, literal(-20)))
          CFI (cfiCond85) VB load(1, XDATA, add(CFA_XSP16, literal(-19)))
          CFI (cfiCond85) V0 load(1, XDATA, add(CFA_XSP16, literal(-18)))
          CFI (cfiCond85) V1 load(1, XDATA, add(CFA_XSP16, literal(-17)))
          CFI (cfiCond85) V2 load(1, XDATA, add(CFA_XSP16, literal(-16)))
          CFI (cfiCond85) V3 load(1, XDATA, add(CFA_XSP16, literal(-15)))
          CFI (cfiCond85) V4 load(1, XDATA, add(CFA_XSP16, literal(-14)))
          CFI (cfiCond85) V5 load(1, XDATA, add(CFA_XSP16, literal(-13)))
          CFI (cfiCond85) V6 load(1, XDATA, add(CFA_XSP16, literal(-12)))
          CFI (cfiCond85) V7 load(1, XDATA, add(CFA_XSP16, literal(-11)))
          CFI (cfiCond85) V8 load(1, XDATA, add(CFA_XSP16, literal(-10)))
          CFI (cfiCond85) V9 load(1, XDATA, add(CFA_XSP16, literal(-9)))
          CFI (cfiCond85) V10 load(1, XDATA, add(CFA_XSP16, literal(-8)))
          CFI (cfiCond85) V11 load(1, XDATA, add(CFA_XSP16, literal(-7)))
          CFI (cfiCond85) R7 load(1, XDATA, add(CFA_XSP16, literal(-6)))
          CFI (cfiCond85) ?RET_LOW load(1, XDATA, add(CFA_XSP16, literal(-5)))
          CFI (cfiCond85) ?RET_HIGH load(1, XDATA, add(CFA_XSP16, literal(-4)))
          CFI (cfiCond85) ?BRET_EXT load(1, XDATA, add(CFA_XSP16, literal(-3)))
          CFI (cfiCond85) DPL0 load(1, XDATA, add(CFA_XSP16, literal(-2)))
          CFI (cfiCond85) DPH0 load(1, XDATA, add(CFA_XSP16, literal(-1)))
          CFI (cfiCond85) CFA_SP SP+-4
          CFI (cfiCond85) CFA_XSP16 add(XSP16, 29)
          CFI Block cfiCond86 Using cfiCommon0
          CFI (cfiCond86) Function bdb_ProcessSimpleDesc
          CFI (cfiCond86) Conditional ??CrossCallReturnLabel_113, ??CrossCallReturnLabel_13
          CFI (cfiCond86) R6 load(1, XDATA, add(CFA_XSP16, literal(-9)))
          CFI (cfiCond86) VB load(1, XDATA, add(CFA_XSP16, literal(-8)))
          CFI (cfiCond86) V0 load(1, XDATA, add(CFA_XSP16, literal(-7)))
          CFI (cfiCond86) R7 load(1, XDATA, add(CFA_XSP16, literal(-6)))
          CFI (cfiCond86) ?RET_LOW load(1, XDATA, add(CFA_XSP16, literal(-5)))
          CFI (cfiCond86) ?RET_HIGH load(1, XDATA, add(CFA_XSP16, literal(-4)))
          CFI (cfiCond86) ?BRET_EXT load(1, XDATA, add(CFA_XSP16, literal(-3)))
          CFI (cfiCond86) DPL0 load(1, XDATA, add(CFA_XSP16, literal(-2)))
          CFI (cfiCond86) DPH0 load(1, XDATA, add(CFA_XSP16, literal(-1)))
          CFI (cfiCond86) CFA_SP SP+-4
          CFI (cfiCond86) CFA_XSP16 add(XSP16, 28)
          CFI Block cfiCond87 Using cfiCommon0
          CFI (cfiCond87) Function bdb_SetIdentifyActiveEndpoint
          CFI (cfiCond87) Conditional ??CrossCallReturnLabel_115, ??CrossCallReturnLabel_26
          CFI (cfiCond87) DPL0 Frame(CFA_SP, 4)
          CFI (cfiCond87) DPH0 Frame(CFA_SP, 5)
          CFI (cfiCond87) CFA_SP SP+-9
          CFI Block cfiCond88 Using cfiCommon0
          CFI (cfiCond88) Function bdb_setEpDescListToActiveEndpoint
          CFI (cfiCond88) Conditional ??CrossCallReturnLabel_115, ??CrossCallReturnLabel_27
          CFI (cfiCond88) DPL0 Frame(CFA_SP, 4)
          CFI (cfiCond88) DPH0 Frame(CFA_SP, 5)
          CFI (cfiCond88) CFA_SP SP+-9
          CFI Block cfiCond89 Using cfiCommon0
          CFI (cfiCond89) Function bdb_ProcessIEEEAddrRsp
          CFI (cfiCond89) Conditional ??CrossCallReturnLabel_115, ??CrossCallReturnLabel_28
          CFI (cfiCond89) R6 load(1, XDATA, add(CFA_XSP16, literal(-10)))
          CFI (cfiCond89) VB load(1, XDATA, add(CFA_XSP16, literal(-9)))
          CFI (cfiCond89) V0 load(1, XDATA, add(CFA_XSP16, literal(-8)))
          CFI (cfiCond89) V1 load(1, XDATA, add(CFA_XSP16, literal(-7)))
          CFI (cfiCond89) R7 load(1, XDATA, add(CFA_XSP16, literal(-6)))
          CFI (cfiCond89) ?RET_LOW load(1, XDATA, add(CFA_XSP16, literal(-5)))
          CFI (cfiCond89) ?RET_HIGH load(1, XDATA, add(CFA_XSP16, literal(-4)))
          CFI (cfiCond89) ?BRET_EXT load(1, XDATA, add(CFA_XSP16, literal(-3)))
          CFI (cfiCond89) DPL0 load(1, XDATA, add(CFA_XSP16, literal(-2)))
          CFI (cfiCond89) DPH0 load(1, XDATA, add(CFA_XSP16, literal(-1)))
          CFI (cfiCond89) CFA_SP SP+-4
          CFI (cfiCond89) CFA_XSP16 add(XSP16, 25)
          CFI Block cfiCond90 Using cfiCommon0
          CFI (cfiCond90) Function bdb_zclFindingBindingEpType
          CFI (cfiCond90) Conditional ??CrossCallReturnLabel_115, ??CrossCallReturnLabel_29
          CFI (cfiCond90) R6 load(1, XDATA, add(CFA_XSP16, literal(-14)))
          CFI (cfiCond90) VB load(1, XDATA, add(CFA_XSP16, literal(-13)))
          CFI (cfiCond90) V0 load(1, XDATA, add(CFA_XSP16, literal(-12)))
          CFI (cfiCond90) V1 load(1, XDATA, add(CFA_XSP16, literal(-11)))
          CFI (cfiCond90) V2 load(1, XDATA, add(CFA_XSP16, literal(-10)))
          CFI (cfiCond90) V3 load(1, XDATA, add(CFA_XSP16, literal(-9)))
          CFI (cfiCond90) V4 load(1, XDATA, add(CFA_XSP16, literal(-8)))
          CFI (cfiCond90) V5 load(1, XDATA, add(CFA_XSP16, literal(-7)))
          CFI (cfiCond90) R7 load(1, XDATA, add(CFA_XSP16, literal(-6)))
          CFI (cfiCond90) ?RET_LOW load(1, XDATA, add(CFA_XSP16, literal(-5)))
          CFI (cfiCond90) ?RET_HIGH load(1, XDATA, add(CFA_XSP16, literal(-4)))
          CFI (cfiCond90) ?BRET_EXT load(1, XDATA, add(CFA_XSP16, literal(-3)))
          CFI (cfiCond90) DPL0 load(1, XDATA, add(CFA_XSP16, literal(-2)))
          CFI (cfiCond90) DPH0 load(1, XDATA, add(CFA_XSP16, literal(-1)))
          CFI (cfiCond90) CFA_SP SP+-4
          CFI (cfiCond90) CFA_XSP16 add(XSP16, 14)
          CFI Block cfiCond91 Using cfiCommon0
          CFI (cfiCond91) Function bdb_ZclIdentifyQueryCmdInd
          CFI (cfiCond91) Conditional ??CrossCallReturnLabel_115, ??CrossCallReturnLabel_30
          CFI (cfiCond91) R6 load(1, XDATA, add(CFA_XSP16, literal(-10)))
          CFI (cfiCond91) VB load(1, XDATA, add(CFA_XSP16, literal(-9)))
          CFI (cfiCond91) V0 load(1, XDATA, add(CFA_XSP16, literal(-8)))
          CFI (cfiCond91) V1 load(1, XDATA, add(CFA_XSP16, literal(-7)))
          CFI (cfiCond91) R7 load(1, XDATA, add(CFA_XSP16, literal(-6)))
          CFI (cfiCond91) ?RET_LOW load(1, XDATA, add(CFA_XSP16, literal(-5)))
          CFI (cfiCond91) ?RET_HIGH load(1, XDATA, add(CFA_XSP16, literal(-4)))
          CFI (cfiCond91) ?BRET_EXT load(1, XDATA, add(CFA_XSP16, literal(-3)))
          CFI (cfiCond91) DPL0 load(1, XDATA, add(CFA_XSP16, literal(-2)))
          CFI (cfiCond91) DPH0 load(1, XDATA, add(CFA_XSP16, literal(-1)))
          CFI (cfiCond91) CFA_SP SP+-4
          CFI (cfiCond91) CFA_XSP16 add(XSP16, 10)
          CFI Block cfiCond92 Using cfiCommon0
          CFI (cfiCond92) Function bdb_ProcessRespondentList
          CFI (cfiCond92) Conditional ??CrossCallReturnLabel_115, ??CrossCallReturnLabel_31
          CFI (cfiCond92) R6 load(1, XDATA, add(CFA_XSP16, literal(-16)))
          CFI (cfiCond92) VB load(1, XDATA, add(CFA_XSP16, literal(-15)))
          CFI (cfiCond92) V0 load(1, XDATA, add(CFA_XSP16, literal(-14)))
          CFI (cfiCond92) V1 load(1, XDATA, add(CFA_XSP16, literal(-13)))
          CFI (cfiCond92) V2 load(1, XDATA, add(CFA_XSP16, literal(-12)))
          CFI (cfiCond92) V3 load(1, XDATA, add(CFA_XSP16, literal(-11)))
          CFI (cfiCond92) V4 load(1, XDATA, add(CFA_XSP16, literal(-10)))
          CFI (cfiCond92) V5 load(1, XDATA, add(CFA_XSP16, literal(-9)))
          CFI (cfiCond92) V6 load(1, XDATA, add(CFA_XSP16, literal(-8)))
          CFI (cfiCond92) V7 load(1, XDATA, add(CFA_XSP16, literal(-7)))
          CFI (cfiCond92) R7 load(1, XDATA, add(CFA_XSP16, literal(-6)))
          CFI (cfiCond92) ?RET_LOW load(1, XDATA, add(CFA_XSP16, literal(-5)))
          CFI (cfiCond92) ?RET_HIGH load(1, XDATA, add(CFA_XSP16, literal(-4)))
          CFI (cfiCond92) ?BRET_EXT load(1, XDATA, add(CFA_XSP16, literal(-3)))
          CFI (cfiCond92) DPL0 load(1, XDATA, add(CFA_XSP16, literal(-2)))
          CFI (cfiCond92) DPH0 load(1, XDATA, add(CFA_XSP16, literal(-1)))
          CFI (cfiCond92) CFA_SP SP+-4
          CFI (cfiCond92) CFA_XSP16 add(XSP16, 25)
          CFI Block cfiCond93 Using cfiCommon0
          CFI (cfiCond93) Function bdb_zclFindingBindingEpType
          CFI (cfiCond93) Conditional ??CrossCallReturnLabel_117, ??CrossCallReturnLabel_52
          CFI (cfiCond93) R6 load(1, XDATA, add(CFA_XSP16, literal(-14)))
          CFI (cfiCond93) VB load(1, XDATA, add(CFA_XSP16, literal(-13)))
          CFI (cfiCond93) V0 load(1, XDATA, add(CFA_XSP16, literal(-12)))
          CFI (cfiCond93) V1 load(1, XDATA, add(CFA_XSP16, literal(-11)))
          CFI (cfiCond93) V2 load(1, XDATA, add(CFA_XSP16, literal(-10)))
          CFI (cfiCond93) V3 load(1, XDATA, add(CFA_XSP16, literal(-9)))
          CFI (cfiCond93) V4 load(1, XDATA, add(CFA_XSP16, literal(-8)))
          CFI (cfiCond93) V5 load(1, XDATA, add(CFA_XSP16, literal(-7)))
          CFI (cfiCond93) R7 load(1, XDATA, add(CFA_XSP16, literal(-6)))
          CFI (cfiCond93) ?RET_LOW load(1, XDATA, add(CFA_XSP16, literal(-5)))
          CFI (cfiCond93) ?RET_HIGH load(1, XDATA, add(CFA_XSP16, literal(-4)))
          CFI (cfiCond93) ?BRET_EXT load(1, XDATA, add(CFA_XSP16, literal(-3)))
          CFI (cfiCond93) DPL0 load(1, XDATA, add(CFA_XSP16, literal(-2)))
          CFI (cfiCond93) DPH0 load(1, XDATA, add(CFA_XSP16, literal(-1)))
          CFI (cfiCond93) CFA_SP SP+-4
          CFI (cfiCond93) CFA_XSP16 add(XSP16, 14)
          CFI Block cfiCond94 Using cfiCommon0
          CFI (cfiCond94) Function bdb_zclFindingBindingEpType
          CFI (cfiCond94) Conditional ??CrossCallReturnLabel_117, ??CrossCallReturnLabel_53
          CFI (cfiCond94) R6 load(1, XDATA, add(CFA_XSP16, literal(-14)))
          CFI (cfiCond94) VB load(1, XDATA, add(CFA_XSP16, literal(-13)))
          CFI (cfiCond94) V0 load(1, XDATA, add(CFA_XSP16, literal(-12)))
          CFI (cfiCond94) V1 load(1, XDATA, add(CFA_XSP16, literal(-11)))
          CFI (cfiCond94) V2 load(1, XDATA, add(CFA_XSP16, literal(-10)))
          CFI (cfiCond94) V3 load(1, XDATA, add(CFA_XSP16, literal(-9)))
          CFI (cfiCond94) V4 load(1, XDATA, add(CFA_XSP16, literal(-8)))
          CFI (cfiCond94) V5 load(1, XDATA, add(CFA_XSP16, literal(-7)))
          CFI (cfiCond94) R7 load(1, XDATA, add(CFA_XSP16, literal(-6)))
          CFI (cfiCond94) ?RET_LOW load(1, XDATA, add(CFA_XSP16, literal(-5)))
          CFI (cfiCond94) ?RET_HIGH load(1, XDATA, add(CFA_XSP16, literal(-4)))
          CFI (cfiCond94) ?BRET_EXT load(1, XDATA, add(CFA_XSP16, literal(-3)))
          CFI (cfiCond94) DPL0 load(1, XDATA, add(CFA_XSP16, literal(-2)))
          CFI (cfiCond94) DPH0 load(1, XDATA, add(CFA_XSP16, literal(-1)))
          CFI (cfiCond94) CFA_SP SP+-4
          CFI (cfiCond94) CFA_XSP16 add(XSP16, 14)
          CFI Block cfiCond95 Using cfiCommon0
          CFI (cfiCond95) Function bdb_zclFindingBindingEpType
          CFI (cfiCond95) Conditional ??CrossCallReturnLabel_117, ??CrossCallReturnLabel_51
          CFI (cfiCond95) R6 load(1, XDATA, add(CFA_XSP16, literal(-14)))
          CFI (cfiCond95) VB load(1, XDATA, add(CFA_XSP16, literal(-13)))
          CFI (cfiCond95) V0 load(1, XDATA, add(CFA_XSP16, literal(-12)))
          CFI (cfiCond95) V1 load(1, XDATA, add(CFA_XSP16, literal(-11)))
          CFI (cfiCond95) V2 load(1, XDATA, add(CFA_XSP16, literal(-10)))
          CFI (cfiCond95) V3 load(1, XDATA, add(CFA_XSP16, literal(-9)))
          CFI (cfiCond95) V4 load(1, XDATA, add(CFA_XSP16, literal(-8)))
          CFI (cfiCond95) V5 load(1, XDATA, add(CFA_XSP16, literal(-7)))
          CFI (cfiCond95) R7 load(1, XDATA, add(CFA_XSP16, literal(-6)))
          CFI (cfiCond95) ?RET_LOW load(1, XDATA, add(CFA_XSP16, literal(-5)))
          CFI (cfiCond95) ?RET_HIGH load(1, XDATA, add(CFA_XSP16, literal(-4)))
          CFI (cfiCond95) ?BRET_EXT load(1, XDATA, add(CFA_XSP16, literal(-3)))
          CFI (cfiCond95) DPL0 load(1, XDATA, add(CFA_XSP16, literal(-2)))
          CFI (cfiCond95) DPH0 load(1, XDATA, add(CFA_XSP16, literal(-1)))
          CFI (cfiCond95) CFA_SP SP+-4
          CFI (cfiCond95) CFA_XSP16 add(XSP16, 14)
          CFI Block cfiCond96 Using cfiCommon0
          CFI (cfiCond96) Function bdb_ProcessSimpleDesc
          CFI (cfiCond96) Conditional ??CrossCallReturnLabel_114, ??CrossCallReturnLabel_24
          CFI (cfiCond96) R6 load(1, XDATA, add(CFA_XSP16, literal(-9)))
          CFI (cfiCond96) VB load(1, XDATA, add(CFA_XSP16, literal(-8)))
          CFI (cfiCond96) V0 load(1, XDATA, add(CFA_XSP16, literal(-7)))
          CFI (cfiCond96) R7 load(1, XDATA, add(CFA_XSP16, literal(-6)))
          CFI (cfiCond96) ?RET_LOW load(1, XDATA, add(CFA_XSP16, literal(-5)))
          CFI (cfiCond96) ?RET_HIGH load(1, XDATA, add(CFA_XSP16, literal(-4)))
          CFI (cfiCond96) ?BRET_EXT load(1, XDATA, add(CFA_XSP16, literal(-3)))
          CFI (cfiCond96) DPL0 load(1, XDATA, add(CFA_XSP16, literal(-2)))
          CFI (cfiCond96) DPH0 load(1, XDATA, add(CFA_XSP16, literal(-1)))
          CFI (cfiCond96) CFA_SP SP+-4
          CFI (cfiCond96) CFA_XSP16 add(XSP16, 28)
          CFI Block cfiCond97 Using cfiCommon0
          CFI (cfiCond97) Function bdb_ZclIdentifyQueryCmdInd
          CFI (cfiCond97) Conditional ??CrossCallReturnLabel_114, ??CrossCallReturnLabel_25
          CFI (cfiCond97) R6 load(1, XDATA, add(CFA_XSP16, literal(-10)))
          CFI (cfiCond97) VB load(1, XDATA, add(CFA_XSP16, literal(-9)))
          CFI (cfiCond97) V0 load(1, XDATA, add(CFA_XSP16, literal(-8)))
          CFI (cfiCond97) V1 load(1, XDATA, add(CFA_XSP16, literal(-7)))
          CFI (cfiCond97) R7 load(1, XDATA, add(CFA_XSP16, literal(-6)))
          CFI (cfiCond97) ?RET_LOW load(1, XDATA, add(CFA_XSP16, literal(-5)))
          CFI (cfiCond97) ?RET_HIGH load(1, XDATA, add(CFA_XSP16, literal(-4)))
          CFI (cfiCond97) ?BRET_EXT load(1, XDATA, add(CFA_XSP16, literal(-3)))
          CFI (cfiCond97) DPL0 load(1, XDATA, add(CFA_XSP16, literal(-2)))
          CFI (cfiCond97) DPH0 load(1, XDATA, add(CFA_XSP16, literal(-1)))
          CFI (cfiCond97) CFA_SP SP+-4
          CFI (cfiCond97) CFA_XSP16 add(XSP16, 10)
          CFI Block cfiCond98 Using cfiCommon0
          CFI (cfiCond98) Function bdb_ProcessRespondentList
          CFI (cfiCond98) Conditional ??CrossCallReturnLabel_118, ??CrossCallReturnLabel_86
          CFI (cfiCond98) R6 load(1, XDATA, add(CFA_XSP16, literal(-16)))
          CFI (cfiCond98) VB load(1, XDATA, add(CFA_XSP16, literal(-15)))
          CFI (cfiCond98) V0 load(1, XDATA, add(CFA_XSP16, literal(-14)))
          CFI (cfiCond98) V1 load(1, XDATA, add(CFA_XSP16, literal(-13)))
          CFI (cfiCond98) V2 load(1, XDATA, add(CFA_XSP16, literal(-12)))
          CFI (cfiCond98) V3 load(1, XDATA, add(CFA_XSP16, literal(-11)))
          CFI (cfiCond98) V4 load(1, XDATA, add(CFA_XSP16, literal(-10)))
          CFI (cfiCond98) V5 load(1, XDATA, add(CFA_XSP16, literal(-9)))
          CFI (cfiCond98) V6 load(1, XDATA, add(CFA_XSP16, literal(-8)))
          CFI (cfiCond98) V7 load(1, XDATA, add(CFA_XSP16, literal(-7)))
          CFI (cfiCond98) R7 load(1, XDATA, add(CFA_XSP16, literal(-6)))
          CFI (cfiCond98) ?RET_LOW load(1, XDATA, add(CFA_XSP16, literal(-5)))
          CFI (cfiCond98) ?RET_HIGH load(1, XDATA, add(CFA_XSP16, literal(-4)))
          CFI (cfiCond98) ?BRET_EXT load(1, XDATA, add(CFA_XSP16, literal(-3)))
          CFI (cfiCond98) DPL0 load(1, XDATA, add(CFA_XSP16, literal(-2)))
          CFI (cfiCond98) DPH0 load(1, XDATA, add(CFA_XSP16, literal(-1)))
          CFI (cfiCond98) CFA_SP SP+-4
          CFI (cfiCond98) CFA_XSP16 add(XSP16, 25)
          CFI Block cfiCond99 Using cfiCommon0
          CFI (cfiCond99) Function bdb_ProcessRespondentList
          CFI (cfiCond99) Conditional ??CrossCallReturnLabel_118, ??CrossCallReturnLabel_87
          CFI (cfiCond99) R6 load(1, XDATA, add(CFA_XSP16, literal(-16)))
          CFI (cfiCond99) VB load(1, XDATA, add(CFA_XSP16, literal(-15)))
          CFI (cfiCond99) V0 load(1, XDATA, add(CFA_XSP16, literal(-14)))
          CFI (cfiCond99) V1 load(1, XDATA, add(CFA_XSP16, literal(-13)))
          CFI (cfiCond99) V2 load(1, XDATA, add(CFA_XSP16, literal(-12)))
          CFI (cfiCond99) V3 load(1, XDATA, add(CFA_XSP16, literal(-11)))
          CFI (cfiCond99) V4 load(1, XDATA, add(CFA_XSP16, literal(-10)))
          CFI (cfiCond99) V5 load(1, XDATA, add(CFA_XSP16, literal(-9)))
          CFI (cfiCond99) V6 load(1, XDATA, add(CFA_XSP16, literal(-8)))
          CFI (cfiCond99) V7 load(1, XDATA, add(CFA_XSP16, literal(-7)))
          CFI (cfiCond99) R7 load(1, XDATA, add(CFA_XSP16, literal(-6)))
          CFI (cfiCond99) ?RET_LOW load(1, XDATA, add(CFA_XSP16, literal(-5)))
          CFI (cfiCond99) ?RET_HIGH load(1, XDATA, add(CFA_XSP16, literal(-4)))
          CFI (cfiCond99) ?BRET_EXT load(1, XDATA, add(CFA_XSP16, literal(-3)))
          CFI (cfiCond99) DPL0 load(1, XDATA, add(CFA_XSP16, literal(-2)))
          CFI (cfiCond99) DPH0 load(1, XDATA, add(CFA_XSP16, literal(-1)))
          CFI (cfiCond99) CFA_SP SP+-4
          CFI (cfiCond99) CFA_XSP16 add(XSP16, 26)
          CFI Block cfiCond100 Using cfiCommon0
          CFI (cfiCond100) Function bdb_ProcessRespondentList
          CFI (cfiCond100) Conditional ??CrossCallReturnLabel_118, ??CrossCallReturnLabel_88
          CFI (cfiCond100) R6 load(1, XDATA, add(CFA_XSP16, literal(-16)))
          CFI (cfiCond100) VB load(1, XDATA, add(CFA_XSP16, literal(-15)))
          CFI (cfiCond100) V0 load(1, XDATA, add(CFA_XSP16, literal(-14)))
          CFI (cfiCond100) V1 load(1, XDATA, add(CFA_XSP16, literal(-13)))
          CFI (cfiCond100) V2 load(1, XDATA, add(CFA_XSP16, literal(-12)))
          CFI (cfiCond100) V3 load(1, XDATA, add(CFA_XSP16, literal(-11)))
          CFI (cfiCond100) V4 load(1, XDATA, add(CFA_XSP16, literal(-10)))
          CFI (cfiCond100) V5 load(1, XDATA, add(CFA_XSP16, literal(-9)))
          CFI (cfiCond100) V6 load(1, XDATA, add(CFA_XSP16, literal(-8)))
          CFI (cfiCond100) V7 load(1, XDATA, add(CFA_XSP16, literal(-7)))
          CFI (cfiCond100) R7 load(1, XDATA, add(CFA_XSP16, literal(-6)))
          CFI (cfiCond100) ?RET_LOW load(1, XDATA, add(CFA_XSP16, literal(-5)))
          CFI (cfiCond100) ?RET_HIGH load(1, XDATA, add(CFA_XSP16, literal(-4)))
          CFI (cfiCond100) ?BRET_EXT load(1, XDATA, add(CFA_XSP16, literal(-3)))
          CFI (cfiCond100) DPL0 load(1, XDATA, add(CFA_XSP16, literal(-2)))
          CFI (cfiCond100) DPH0 load(1, XDATA, add(CFA_XSP16, literal(-1)))
          CFI (cfiCond100) CFA_SP SP+-4
          CFI (cfiCond100) CFA_XSP16 add(XSP16, 25)
          CFI Block cfiCond101 Using cfiCommon0
          CFI (cfiCond101) Function bdb_checkMatchingEndpoints
          CFI (cfiCond101) Conditional ??CrossCallReturnLabel_118, ??CrossCallReturnLabel_83
          CFI (cfiCond101) R6 load(1, XDATA, add(CFA_XSP16, literal(-20)))
          CFI (cfiCond101) VB load(1, XDATA, add(CFA_XSP16, literal(-19)))
          CFI (cfiCond101) V0 load(1, XDATA, add(CFA_XSP16, literal(-18)))
          CFI (cfiCond101) V1 load(1, XDATA, add(CFA_XSP16, literal(-17)))
          CFI (cfiCond101) V2 load(1, XDATA, add(CFA_XSP16, literal(-16)))
          CFI (cfiCond101) V3 load(1, XDATA, add(CFA_XSP16, literal(-15)))
          CFI (cfiCond101) V4 load(1, XDATA, add(CFA_XSP16, literal(-14)))
          CFI (cfiCond101) V5 load(1, XDATA, add(CFA_XSP16, literal(-13)))
          CFI (cfiCond101) V6 load(1, XDATA, add(CFA_XSP16, literal(-12)))
          CFI (cfiCond101) V7 load(1, XDATA, add(CFA_XSP16, literal(-11)))
          CFI (cfiCond101) V8 load(1, XDATA, add(CFA_XSP16, literal(-10)))
          CFI (cfiCond101) V9 load(1, XDATA, add(CFA_XSP16, literal(-9)))
          CFI (cfiCond101) V10 load(1, XDATA, add(CFA_XSP16, literal(-8)))
          CFI (cfiCond101) V11 load(1, XDATA, add(CFA_XSP16, literal(-7)))
          CFI (cfiCond101) R7 load(1, XDATA, add(CFA_XSP16, literal(-6)))
          CFI (cfiCond101) ?RET_LOW load(1, XDATA, add(CFA_XSP16, literal(-5)))
          CFI (cfiCond101) ?RET_HIGH load(1, XDATA, add(CFA_XSP16, literal(-4)))
          CFI (cfiCond101) ?BRET_EXT load(1, XDATA, add(CFA_XSP16, literal(-3)))
          CFI (cfiCond101) DPL0 load(1, XDATA, add(CFA_XSP16, literal(-2)))
          CFI (cfiCond101) DPH0 load(1, XDATA, add(CFA_XSP16, literal(-1)))
          CFI (cfiCond101) CFA_SP SP+-4
          CFI (cfiCond101) CFA_XSP16 add(XSP16, 29)
          CFI Block cfiCond102 Using cfiCommon0
          CFI (cfiCond102) Function bdb_ProcessSimpleDesc
          CFI (cfiCond102) Conditional ??CrossCallReturnLabel_118, ??CrossCallReturnLabel_84
          CFI (cfiCond102) R6 load(1, XDATA, add(CFA_XSP16, literal(-9)))
          CFI (cfiCond102) VB load(1, XDATA, add(CFA_XSP16, literal(-8)))
          CFI (cfiCond102) V0 load(1, XDATA, add(CFA_XSP16, literal(-7)))
          CFI (cfiCond102) R7 load(1, XDATA, add(CFA_XSP16, literal(-6)))
          CFI (cfiCond102) ?RET_LOW load(1, XDATA, add(CFA_XSP16, literal(-5)))
          CFI (cfiCond102) ?RET_HIGH load(1, XDATA, add(CFA_XSP16, literal(-4)))
          CFI (cfiCond102) ?BRET_EXT load(1, XDATA, add(CFA_XSP16, literal(-3)))
          CFI (cfiCond102) DPL0 load(1, XDATA, add(CFA_XSP16, literal(-2)))
          CFI (cfiCond102) DPH0 load(1, XDATA, add(CFA_XSP16, literal(-1)))
          CFI (cfiCond102) CFA_SP SP+-4
          CFI (cfiCond102) CFA_XSP16 add(XSP16, 28)
          CFI Block cfiCond103 Using cfiCommon0
          CFI (cfiCond103) Function bdb_ZclIdentifyQueryCmdInd
          CFI (cfiCond103) Conditional ??CrossCallReturnLabel_118, ??CrossCallReturnLabel_85
          CFI (cfiCond103) R6 load(1, XDATA, add(CFA_XSP16, literal(-10)))
          CFI (cfiCond103) VB load(1, XDATA, add(CFA_XSP16, literal(-9)))
          CFI (cfiCond103) V0 load(1, XDATA, add(CFA_XSP16, literal(-8)))
          CFI (cfiCond103) V1 load(1, XDATA, add(CFA_XSP16, literal(-7)))
          CFI (cfiCond103) R7 load(1, XDATA, add(CFA_XSP16, literal(-6)))
          CFI (cfiCond103) ?RET_LOW load(1, XDATA, add(CFA_XSP16, literal(-5)))
          CFI (cfiCond103) ?RET_HIGH load(1, XDATA, add(CFA_XSP16, literal(-4)))
          CFI (cfiCond103) ?BRET_EXT load(1, XDATA, add(CFA_XSP16, literal(-3)))
          CFI (cfiCond103) DPL0 load(1, XDATA, add(CFA_XSP16, literal(-2)))
          CFI (cfiCond103) DPH0 load(1, XDATA, add(CFA_XSP16, literal(-1)))
          CFI (cfiCond103) CFA_SP SP+-4
          CFI (cfiCond103) CFA_XSP16 add(XSP16, 10)
          CFI Block cfiCond104 Using cfiCommon0
          CFI (cfiCond104) Function bdb_ProcessIEEEAddrRsp
          CFI (cfiCond104) Conditional ??CrossCallReturnLabel_119, ??CrossCallReturnLabel_103
          CFI (cfiCond104) R6 load(1, XDATA, add(CFA_XSP16, literal(-10)))
          CFI (cfiCond104) VB load(1, XDATA, add(CFA_XSP16, literal(-9)))
          CFI (cfiCond104) V0 load(1, XDATA, add(CFA_XSP16, literal(-8)))
          CFI (cfiCond104) V1 load(1, XDATA, add(CFA_XSP16, literal(-7)))
          CFI (cfiCond104) R7 load(1, XDATA, add(CFA_XSP16, literal(-6)))
          CFI (cfiCond104) ?RET_LOW load(1, XDATA, add(CFA_XSP16, literal(-5)))
          CFI (cfiCond104) ?RET_HIGH load(1, XDATA, add(CFA_XSP16, literal(-4)))
          CFI (cfiCond104) ?BRET_EXT load(1, XDATA, add(CFA_XSP16, literal(-3)))
          CFI (cfiCond104) DPL0 load(1, XDATA, add(CFA_XSP16, literal(-2)))
          CFI (cfiCond104) DPH0 load(1, XDATA, add(CFA_XSP16, literal(-1)))
          CFI (cfiCond104) CFA_SP SP+-4
          CFI (cfiCond104) CFA_XSP16 add(XSP16, 25)
          CFI Block cfiCond105 Using cfiCommon0
          CFI (cfiCond105) Function bdb_ProcessSimpleDesc
          CFI (cfiCond105) Conditional ??CrossCallReturnLabel_119, ??CrossCallReturnLabel_104
          CFI (cfiCond105) R6 load(1, XDATA, add(CFA_XSP16, literal(-9)))
          CFI (cfiCond105) VB load(1, XDATA, add(CFA_XSP16, literal(-8)))
          CFI (cfiCond105) V0 load(1, XDATA, add(CFA_XSP16, literal(-7)))
          CFI (cfiCond105) R7 load(1, XDATA, add(CFA_XSP16, literal(-6)))
          CFI (cfiCond105) ?RET_LOW load(1, XDATA, add(CFA_XSP16, literal(-5)))
          CFI (cfiCond105) ?RET_HIGH load(1, XDATA, add(CFA_XSP16, literal(-4)))
          CFI (cfiCond105) ?BRET_EXT load(1, XDATA, add(CFA_XSP16, literal(-3)))
          CFI (cfiCond105) DPL0 load(1, XDATA, add(CFA_XSP16, literal(-2)))
          CFI (cfiCond105) DPH0 load(1, XDATA, add(CFA_XSP16, literal(-1)))
          CFI (cfiCond105) CFA_SP SP+-4
          CFI (cfiCond105) CFA_XSP16 add(XSP16, 28)
          CFI Block cfiCond106 Using cfiCommon0
          CFI (cfiCond106) Function bdb_setEpDescListToActiveEndpoint
          CFI (cfiCond106) Conditional ??CrossCallReturnLabel_119, ??CrossCallReturnLabel_105
          CFI (cfiCond106) DPL0 Frame(CFA_SP, 4)
          CFI (cfiCond106) DPH0 Frame(CFA_SP, 5)
          CFI (cfiCond106) CFA_SP SP+-9
          CFI Block cfiCond107 Using cfiCommon0
          CFI (cfiCond107) Function bdb_setEpDescListToActiveEndpoint
          CFI (cfiCond107) Conditional ??CrossCallReturnLabel_119, ??CrossCallReturnLabel_106
          CFI (cfiCond107) DPL0 Frame(CFA_SP, 4)
          CFI (cfiCond107) DPH0 Frame(CFA_SP, 5)
          CFI (cfiCond107) CFA_SP SP+-9
          CFI Block cfiCond108 Using cfiCommon0
          CFI (cfiCond108) Function bdb_checkMatchingEndpoints
          CFI (cfiCond108) Conditional ??CrossCallReturnLabel_119, ??CrossCallReturnLabel_107
          CFI (cfiCond108) R6 load(1, XDATA, add(CFA_XSP16, literal(-20)))
          CFI (cfiCond108) VB load(1, XDATA, add(CFA_XSP16, literal(-19)))
          CFI (cfiCond108) V0 load(1, XDATA, add(CFA_XSP16, literal(-18)))
          CFI (cfiCond108) V1 load(1, XDATA, add(CFA_XSP16, literal(-17)))
          CFI (cfiCond108) V2 load(1, XDATA, add(CFA_XSP16, literal(-16)))
          CFI (cfiCond108) V3 load(1, XDATA, add(CFA_XSP16, literal(-15)))
          CFI (cfiCond108) V4 load(1, XDATA, add(CFA_XSP16, literal(-14)))
          CFI (cfiCond108) V5 load(1, XDATA, add(CFA_XSP16, literal(-13)))
          CFI (cfiCond108) V6 load(1, XDATA, add(CFA_XSP16, literal(-12)))
          CFI (cfiCond108) V7 load(1, XDATA, add(CFA_XSP16, literal(-11)))
          CFI (cfiCond108) V8 load(1, XDATA, add(CFA_XSP16, literal(-10)))
          CFI (cfiCond108) V9 load(1, XDATA, add(CFA_XSP16, literal(-9)))
          CFI (cfiCond108) V10 load(1, XDATA, add(CFA_XSP16, literal(-8)))
          CFI (cfiCond108) V11 load(1, XDATA, add(CFA_XSP16, literal(-7)))
          CFI (cfiCond108) R7 load(1, XDATA, add(CFA_XSP16, literal(-6)))
          CFI (cfiCond108) ?RET_LOW load(1, XDATA, add(CFA_XSP16, literal(-5)))
          CFI (cfiCond108) ?RET_HIGH load(1, XDATA, add(CFA_XSP16, literal(-4)))
          CFI (cfiCond108) ?BRET_EXT load(1, XDATA, add(CFA_XSP16, literal(-3)))
          CFI (cfiCond108) DPL0 load(1, XDATA, add(CFA_XSP16, literal(-2)))
          CFI (cfiCond108) DPH0 load(1, XDATA, add(CFA_XSP16, literal(-1)))
          CFI (cfiCond108) CFA_SP SP+-4
          CFI (cfiCond108) CFA_XSP16 add(XSP16, 29)
          CFI Block cfiCond109 Using cfiCommon0
          CFI (cfiCond109) Function bdb_checkMatchingEndpoints
          CFI (cfiCond109) Conditional ??CrossCallReturnLabel_119, ??CrossCallReturnLabel_108
          CFI (cfiCond109) R6 load(1, XDATA, add(CFA_XSP16, literal(-20)))
          CFI (cfiCond109) VB load(1, XDATA, add(CFA_XSP16, literal(-19)))
          CFI (cfiCond109) V0 load(1, XDATA, add(CFA_XSP16, literal(-18)))
          CFI (cfiCond109) V1 load(1, XDATA, add(CFA_XSP16, literal(-17)))
          CFI (cfiCond109) V2 load(1, XDATA, add(CFA_XSP16, literal(-16)))
          CFI (cfiCond109) V3 load(1, XDATA, add(CFA_XSP16, literal(-15)))
          CFI (cfiCond109) V4 load(1, XDATA, add(CFA_XSP16, literal(-14)))
          CFI (cfiCond109) V5 load(1, XDATA, add(CFA_XSP16, literal(-13)))
          CFI (cfiCond109) V6 load(1, XDATA, add(CFA_XSP16, literal(-12)))
          CFI (cfiCond109) V7 load(1, XDATA, add(CFA_XSP16, literal(-11)))
          CFI (cfiCond109) V8 load(1, XDATA, add(CFA_XSP16, literal(-10)))
          CFI (cfiCond109) V9 load(1, XDATA, add(CFA_XSP16, literal(-9)))
          CFI (cfiCond109) V10 load(1, XDATA, add(CFA_XSP16, literal(-8)))
          CFI (cfiCond109) V11 load(1, XDATA, add(CFA_XSP16, literal(-7)))
          CFI (cfiCond109) R7 load(1, XDATA, add(CFA_XSP16, literal(-6)))
          CFI (cfiCond109) ?RET_LOW load(1, XDATA, add(CFA_XSP16, literal(-5)))
          CFI (cfiCond109) ?RET_HIGH load(1, XDATA, add(CFA_XSP16, literal(-4)))
          CFI (cfiCond109) ?BRET_EXT load(1, XDATA, add(CFA_XSP16, literal(-3)))
          CFI (cfiCond109) DPL0 load(1, XDATA, add(CFA_XSP16, literal(-2)))
          CFI (cfiCond109) DPH0 load(1, XDATA, add(CFA_XSP16, literal(-1)))
          CFI (cfiCond109) CFA_SP SP+-4
          CFI (cfiCond109) CFA_XSP16 add(XSP16, 29)
          CFI Block cfiCond110 Using cfiCommon0
          CFI (cfiCond110) Function bdb_zclFindingBindingAddBindEntry
          CFI (cfiCond110) Conditional ??CrossCallReturnLabel_119, ??CrossCallReturnLabel_109
          CFI (cfiCond110) R6 load(1, XDATA, add(CFA_XSP16, literal(-12)))
          CFI (cfiCond110) VB load(1, XDATA, add(CFA_XSP16, literal(-11)))
          CFI (cfiCond110) V0 load(1, XDATA, add(CFA_XSP16, literal(-10)))
          CFI (cfiCond110) V1 load(1, XDATA, add(CFA_XSP16, literal(-9)))
          CFI (cfiCond110) V2 load(1, XDATA, add(CFA_XSP16, literal(-8)))
          CFI (cfiCond110) V3 load(1, XDATA, add(CFA_XSP16, literal(-7)))
          CFI (cfiCond110) R7 load(1, XDATA, add(CFA_XSP16, literal(-6)))
          CFI (cfiCond110) ?RET_LOW load(1, XDATA, add(CFA_XSP16, literal(-5)))
          CFI (cfiCond110) ?RET_HIGH load(1, XDATA, add(CFA_XSP16, literal(-4)))
          CFI (cfiCond110) ?BRET_EXT load(1, XDATA, add(CFA_XSP16, literal(-3)))
          CFI (cfiCond110) DPL0 load(1, XDATA, add(CFA_XSP16, literal(-2)))
          CFI (cfiCond110) DPH0 load(1, XDATA, add(CFA_XSP16, literal(-1)))
          CFI (cfiCond110) CFA_SP SP+-4
          CFI (cfiCond110) CFA_XSP16 add(XSP16, 14)
          CFI Block cfiCond111 Using cfiCommon0
          CFI (cfiCond111) Function bdb_ProcessRespondentList
          CFI (cfiCond111) Conditional ??CrossCallReturnLabel_119, ??CrossCallReturnLabel_110
          CFI (cfiCond111) R6 load(1, XDATA, add(CFA_XSP16, literal(-16)))
          CFI (cfiCond111) VB load(1, XDATA, add(CFA_XSP16, literal(-15)))
          CFI (cfiCond111) V0 load(1, XDATA, add(CFA_XSP16, literal(-14)))
          CFI (cfiCond111) V1 load(1, XDATA, add(CFA_XSP16, literal(-13)))
          CFI (cfiCond111) V2 load(1, XDATA, add(CFA_XSP16, literal(-12)))
          CFI (cfiCond111) V3 load(1, XDATA, add(CFA_XSP16, literal(-11)))
          CFI (cfiCond111) V4 load(1, XDATA, add(CFA_XSP16, literal(-10)))
          CFI (cfiCond111) V5 load(1, XDATA, add(CFA_XSP16, literal(-9)))
          CFI (cfiCond111) V6 load(1, XDATA, add(CFA_XSP16, literal(-8)))
          CFI (cfiCond111) V7 load(1, XDATA, add(CFA_XSP16, literal(-7)))
          CFI (cfiCond111) R7 load(1, XDATA, add(CFA_XSP16, literal(-6)))
          CFI (cfiCond111) ?RET_LOW load(1, XDATA, add(CFA_XSP16, literal(-5)))
          CFI (cfiCond111) ?RET_HIGH load(1, XDATA, add(CFA_XSP16, literal(-4)))
          CFI (cfiCond111) ?BRET_EXT load(1, XDATA, add(CFA_XSP16, literal(-3)))
          CFI (cfiCond111) DPL0 load(1, XDATA, add(CFA_XSP16, literal(-2)))
          CFI (cfiCond111) DPH0 load(1, XDATA, add(CFA_XSP16, literal(-1)))
          CFI (cfiCond111) CFA_SP SP+-4
          CFI (cfiCond111) CFA_XSP16 add(XSP16, 25)
          CFI Block cfiCond112 Using cfiCommon0
          CFI (cfiCond112) Function bdb_ProcessRespondentList
          CFI (cfiCond112) Conditional ??CrossCallReturnLabel_119, ??CrossCallReturnLabel_111
          CFI (cfiCond112) R6 load(1, XDATA, add(CFA_XSP16, literal(-16)))
          CFI (cfiCond112) VB load(1, XDATA, add(CFA_XSP16, literal(-15)))
          CFI (cfiCond112) V0 load(1, XDATA, add(CFA_XSP16, literal(-14)))
          CFI (cfiCond112) V1 load(1, XDATA, add(CFA_XSP16, literal(-13)))
          CFI (cfiCond112) V2 load(1, XDATA, add(CFA_XSP16, literal(-12)))
          CFI (cfiCond112) V3 load(1, XDATA, add(CFA_XSP16, literal(-11)))
          CFI (cfiCond112) V4 load(1, XDATA, add(CFA_XSP16, literal(-10)))
          CFI (cfiCond112) V5 load(1, XDATA, add(CFA_XSP16, literal(-9)))
          CFI (cfiCond112) V6 load(1, XDATA, add(CFA_XSP16, literal(-8)))
          CFI (cfiCond112) V7 load(1, XDATA, add(CFA_XSP16, literal(-7)))
          CFI (cfiCond112) R7 load(1, XDATA, add(CFA_XSP16, literal(-6)))
          CFI (cfiCond112) ?RET_LOW load(1, XDATA, add(CFA_XSP16, literal(-5)))
          CFI (cfiCond112) ?RET_HIGH load(1, XDATA, add(CFA_XSP16, literal(-4)))
          CFI (cfiCond112) ?BRET_EXT load(1, XDATA, add(CFA_XSP16, literal(-3)))
          CFI (cfiCond112) DPL0 load(1, XDATA, add(CFA_XSP16, literal(-2)))
          CFI (cfiCond112) DPH0 load(1, XDATA, add(CFA_XSP16, literal(-1)))
          CFI (cfiCond112) CFA_SP SP+-4
          CFI (cfiCond112) CFA_XSP16 add(XSP16, 25)
          CFI Block cfiCond113 Using cfiCommon0
          CFI (cfiCond113) Function bdb_ProcessRespondentList
          CFI (cfiCond113) Conditional ??CrossCallReturnLabel_119, ??CrossCallReturnLabel_112
          CFI (cfiCond113) R6 load(1, XDATA, add(CFA_XSP16, literal(-16)))
          CFI (cfiCond113) VB load(1, XDATA, add(CFA_XSP16, literal(-15)))
          CFI (cfiCond113) V0 load(1, XDATA, add(CFA_XSP16, literal(-14)))
          CFI (cfiCond113) V1 load(1, XDATA, add(CFA_XSP16, literal(-13)))
          CFI (cfiCond113) V2 load(1, XDATA, add(CFA_XSP16, literal(-12)))
          CFI (cfiCond113) V3 load(1, XDATA, add(CFA_XSP16, literal(-11)))
          CFI (cfiCond113) V4 load(1, XDATA, add(CFA_XSP16, literal(-10)))
          CFI (cfiCond113) V5 load(1, XDATA, add(CFA_XSP16, literal(-9)))
          CFI (cfiCond113) V6 load(1, XDATA, add(CFA_XSP16, literal(-8)))
          CFI (cfiCond113) V7 load(1, XDATA, add(CFA_XSP16, literal(-7)))
          CFI (cfiCond113) R7 load(1, XDATA, add(CFA_XSP16, literal(-6)))
          CFI (cfiCond113) ?RET_LOW load(1, XDATA, add(CFA_XSP16, literal(-5)))
          CFI (cfiCond113) ?RET_HIGH load(1, XDATA, add(CFA_XSP16, literal(-4)))
          CFI (cfiCond113) ?BRET_EXT load(1, XDATA, add(CFA_XSP16, literal(-3)))
          CFI (cfiCond113) DPL0 load(1, XDATA, add(CFA_XSP16, literal(-2)))
          CFI (cfiCond113) DPH0 load(1, XDATA, add(CFA_XSP16, literal(-1)))
          CFI (cfiCond113) CFA_SP SP+-4
          CFI (cfiCond113) CFA_XSP16 add(XSP16, 25)
          CFI Block cfiPicker114 Using cfiCommon1
          CFI (cfiPicker114) NoFunction
          CFI (cfiPicker114) Picker
        MOVX      A,@DPTR
        MOV       R0,A
        INC       DPTR
        MOVX      A,@DPTR
        RET
          CFI EndBlock cfiCond82
          CFI EndBlock cfiCond83
          CFI EndBlock cfiCond84
          CFI EndBlock cfiCond85
          CFI EndBlock cfiCond86
          CFI EndBlock cfiCond87
          CFI EndBlock cfiCond88
          CFI EndBlock cfiCond89
          CFI EndBlock cfiCond90
          CFI EndBlock cfiCond91
          CFI EndBlock cfiCond92
          CFI EndBlock cfiCond93
          CFI EndBlock cfiCond94
          CFI EndBlock cfiCond95
          CFI EndBlock cfiCond96
          CFI EndBlock cfiCond97
          CFI EndBlock cfiCond98
          CFI EndBlock cfiCond99
          CFI EndBlock cfiCond100
          CFI EndBlock cfiCond101
          CFI EndBlock cfiCond102
          CFI EndBlock cfiCond103
          CFI EndBlock cfiCond104
          CFI EndBlock cfiCond105
          CFI EndBlock cfiCond106
          CFI EndBlock cfiCond107
          CFI EndBlock cfiCond108
          CFI EndBlock cfiCond109
          CFI EndBlock cfiCond110
          CFI EndBlock cfiCond111
          CFI EndBlock cfiCond112
          CFI EndBlock cfiCond113
          CFI EndBlock cfiPicker114

        RSEG BANKED_CODE:HUGECODE:NOROOT(0)
?Subroutine9:
          CFI Block cfiCond115 Using cfiCommon0
          CFI Function bdb_zclFindingBindingEpType
          CFI Conditional ??CrossCallReturnLabel_7
          CFI R6 load(1, XDATA, add(CFA_XSP16, literal(-14)))
          CFI VB load(1, XDATA, add(CFA_XSP16, literal(-13)))
          CFI V0 load(1, XDATA, add(CFA_XSP16, literal(-12)))
          CFI V1 load(1, XDATA, add(CFA_XSP16, literal(-11)))
          CFI V2 load(1, XDATA, add(CFA_XSP16, literal(-10)))
          CFI V3 load(1, XDATA, add(CFA_XSP16, literal(-9)))
          CFI V4 load(1, XDATA, add(CFA_XSP16, literal(-8)))
          CFI V5 load(1, XDATA, add(CFA_XSP16, literal(-7)))
          CFI R7 load(1, XDATA, add(CFA_XSP16, literal(-6)))
          CFI ?RET_LOW load(1, XDATA, add(CFA_XSP16, literal(-5)))
          CFI ?RET_HIGH load(1, XDATA, add(CFA_XSP16, literal(-4)))
          CFI ?BRET_EXT load(1, XDATA, add(CFA_XSP16, literal(-3)))
          CFI DPL0 load(1, XDATA, add(CFA_XSP16, literal(-2)))
          CFI DPH0 load(1, XDATA, add(CFA_XSP16, literal(-1)))
          CFI CFA_SP SP+-2
          CFI CFA_XSP16 add(XSP16, 16)
          CFI Block cfiCond116 Using cfiCommon0
          CFI (cfiCond116) Function bdb_zclFindingBindingEpType
          CFI (cfiCond116) Conditional ??CrossCallReturnLabel_8
          CFI (cfiCond116) R6 load(1, XDATA, add(CFA_XSP16, literal(-14)))
          CFI (cfiCond116) VB load(1, XDATA, add(CFA_XSP16, literal(-13)))
          CFI (cfiCond116) V0 load(1, XDATA, add(CFA_XSP16, literal(-12)))
          CFI (cfiCond116) V1 load(1, XDATA, add(CFA_XSP16, literal(-11)))
          CFI (cfiCond116) V2 load(1, XDATA, add(CFA_XSP16, literal(-10)))
          CFI (cfiCond116) V3 load(1, XDATA, add(CFA_XSP16, literal(-9)))
          CFI (cfiCond116) V4 load(1, XDATA, add(CFA_XSP16, literal(-8)))
          CFI (cfiCond116) V5 load(1, XDATA, add(CFA_XSP16, literal(-7)))
          CFI (cfiCond116) R7 load(1, XDATA, add(CFA_XSP16, literal(-6)))
          CFI (cfiCond116) ?RET_LOW load(1, XDATA, add(CFA_XSP16, literal(-5)))
          CFI (cfiCond116) ?RET_HIGH load(1, XDATA, add(CFA_XSP16, literal(-4)))
          CFI (cfiCond116) ?BRET_EXT load(1, XDATA, add(CFA_XSP16, literal(-3)))
          CFI (cfiCond116) DPL0 load(1, XDATA, add(CFA_XSP16, literal(-2)))
          CFI (cfiCond116) DPH0 load(1, XDATA, add(CFA_XSP16, literal(-1)))
          CFI (cfiCond116) CFA_SP SP+-2
          CFI (cfiCond116) CFA_XSP16 add(XSP16, 16)
          CFI Block cfiPicker117 Using cfiCommon1
          CFI (cfiPicker117) NoFunction
          CFI (cfiPicker117) Picker
        MOV       DPL,?V2
        MOV       DPH,?V3
        INC       DPTR
        INC       DPTR
        INC       DPTR
        INC       DPTR
        INC       DPTR
        INC       DPTR
        INC       DPTR
        LCALL     ?Subroutine27 & 0xFFFF
??CrossCallReturnLabel_37:
        LCALL     ??Subroutine39_0 & 0xFFFF
??CrossCallReturnLabel_50:
        RET
          CFI EndBlock cfiCond115
          CFI EndBlock cfiCond116
          CFI EndBlock cfiPicker117

        RSEG BANKED_CODE:HUGECODE:NOROOT(0)
?Subroutine27:
          CFI Block cfiCond118 Using cfiCommon0
          CFI Function bdb_checkMatchingEndpoints
          CFI Conditional ??CrossCallReturnLabel_36, ??CrossCallReturnLabel_5
          CFI R6 load(1, XDATA, add(CFA_XSP16, literal(-20)))
          CFI VB load(1, XDATA, add(CFA_XSP16, literal(-19)))
          CFI V0 load(1, XDATA, add(CFA_XSP16, literal(-18)))
          CFI V1 load(1, XDATA, add(CFA_XSP16, literal(-17)))
          CFI V2 load(1, XDATA, add(CFA_XSP16, literal(-16)))
          CFI V3 load(1, XDATA, add(CFA_XSP16, literal(-15)))
          CFI V4 load(1, XDATA, add(CFA_XSP16, literal(-14)))
          CFI V5 load(1, XDATA, add(CFA_XSP16, literal(-13)))
          CFI V6 load(1, XDATA, add(CFA_XSP16, literal(-12)))
          CFI V7 load(1, XDATA, add(CFA_XSP16, literal(-11)))
          CFI V8 load(1, XDATA, add(CFA_XSP16, literal(-10)))
          CFI V9 load(1, XDATA, add(CFA_XSP16, literal(-9)))
          CFI V10 load(1, XDATA, add(CFA_XSP16, literal(-8)))
          CFI V11 load(1, XDATA, add(CFA_XSP16, literal(-7)))
          CFI R7 load(1, XDATA, add(CFA_XSP16, literal(-6)))
          CFI ?RET_LOW load(1, XDATA, add(CFA_XSP16, literal(-5)))
          CFI ?RET_HIGH load(1, XDATA, add(CFA_XSP16, literal(-4)))
          CFI ?BRET_EXT load(1, XDATA, add(CFA_XSP16, literal(-3)))
          CFI DPL0 load(1, XDATA, add(CFA_XSP16, literal(-2)))
          CFI DPH0 load(1, XDATA, add(CFA_XSP16, literal(-1)))
          CFI CFA_SP SP+-4
          CFI CFA_XSP16 add(XSP16, 35)
          CFI Block cfiCond119 Using cfiCommon0
          CFI (cfiCond119) Function bdb_checkMatchingEndpoints
          CFI (cfiCond119) Conditional ??CrossCallReturnLabel_36, ??CrossCallReturnLabel_6
          CFI (cfiCond119) R6 load(1, XDATA, add(CFA_XSP16, literal(-20)))
          CFI (cfiCond119) VB load(1, XDATA, add(CFA_XSP16, literal(-19)))
          CFI (cfiCond119) V0 load(1, XDATA, add(CFA_XSP16, literal(-18)))
          CFI (cfiCond119) V1 load(1, XDATA, add(CFA_XSP16, literal(-17)))
          CFI (cfiCond119) V2 load(1, XDATA, add(CFA_XSP16, literal(-16)))
          CFI (cfiCond119) V3 load(1, XDATA, add(CFA_XSP16, literal(-15)))
          CFI (cfiCond119) V4 load(1, XDATA, add(CFA_XSP16, literal(-14)))
          CFI (cfiCond119) V5 load(1, XDATA, add(CFA_XSP16, literal(-13)))
          CFI (cfiCond119) V6 load(1, XDATA, add(CFA_XSP16, literal(-12)))
          CFI (cfiCond119) V7 load(1, XDATA, add(CFA_XSP16, literal(-11)))
          CFI (cfiCond119) V8 load(1, XDATA, add(CFA_XSP16, literal(-10)))
          CFI (cfiCond119) V9 load(1, XDATA, add(CFA_XSP16, literal(-9)))
          CFI (cfiCond119) V10 load(1, XDATA, add(CFA_XSP16, literal(-8)))
          CFI (cfiCond119) V11 load(1, XDATA, add(CFA_XSP16, literal(-7)))
          CFI (cfiCond119) R7 load(1, XDATA, add(CFA_XSP16, literal(-6)))
          CFI (cfiCond119) ?RET_LOW load(1, XDATA, add(CFA_XSP16, literal(-5)))
          CFI (cfiCond119) ?RET_HIGH load(1, XDATA, add(CFA_XSP16, literal(-4)))
          CFI (cfiCond119) ?BRET_EXT load(1, XDATA, add(CFA_XSP16, literal(-3)))
          CFI (cfiCond119) DPL0 load(1, XDATA, add(CFA_XSP16, literal(-2)))
          CFI (cfiCond119) DPH0 load(1, XDATA, add(CFA_XSP16, literal(-1)))
          CFI (cfiCond119) CFA_SP SP+-4
          CFI (cfiCond119) CFA_XSP16 add(XSP16, 35)
          CFI Block cfiCond120 Using cfiCommon0
          CFI (cfiCond120) Function bdb_zclFindingBindingEpType
          CFI (cfiCond120) Conditional ??CrossCallReturnLabel_37, ??CrossCallReturnLabel_7
          CFI (cfiCond120) R6 load(1, XDATA, add(CFA_XSP16, literal(-14)))
          CFI (cfiCond120) VB load(1, XDATA, add(CFA_XSP16, literal(-13)))
          CFI (cfiCond120) V0 load(1, XDATA, add(CFA_XSP16, literal(-12)))
          CFI (cfiCond120) V1 load(1, XDATA, add(CFA_XSP16, literal(-11)))
          CFI (cfiCond120) V2 load(1, XDATA, add(CFA_XSP16, literal(-10)))
          CFI (cfiCond120) V3 load(1, XDATA, add(CFA_XSP16, literal(-9)))
          CFI (cfiCond120) V4 load(1, XDATA, add(CFA_XSP16, literal(-8)))
          CFI (cfiCond120) V5 load(1, XDATA, add(CFA_XSP16, literal(-7)))
          CFI (cfiCond120) R7 load(1, XDATA, add(CFA_XSP16, literal(-6)))
          CFI (cfiCond120) ?RET_LOW load(1, XDATA, add(CFA_XSP16, literal(-5)))
          CFI (cfiCond120) ?RET_HIGH load(1, XDATA, add(CFA_XSP16, literal(-4)))
          CFI (cfiCond120) ?BRET_EXT load(1, XDATA, add(CFA_XSP16, literal(-3)))
          CFI (cfiCond120) DPL0 load(1, XDATA, add(CFA_XSP16, literal(-2)))
          CFI (cfiCond120) DPH0 load(1, XDATA, add(CFA_XSP16, literal(-1)))
          CFI (cfiCond120) CFA_SP SP+-4
          CFI (cfiCond120) CFA_XSP16 add(XSP16, 16)
          CFI Block cfiCond121 Using cfiCommon0
          CFI (cfiCond121) Function bdb_zclFindingBindingEpType
          CFI (cfiCond121) Conditional ??CrossCallReturnLabel_37, ??CrossCallReturnLabel_8
          CFI (cfiCond121) R6 load(1, XDATA, add(CFA_XSP16, literal(-14)))
          CFI (cfiCond121) VB load(1, XDATA, add(CFA_XSP16, literal(-13)))
          CFI (cfiCond121) V0 load(1, XDATA, add(CFA_XSP16, literal(-12)))
          CFI (cfiCond121) V1 load(1, XDATA, add(CFA_XSP16, literal(-11)))
          CFI (cfiCond121) V2 load(1, XDATA, add(CFA_XSP16, literal(-10)))
          CFI (cfiCond121) V3 load(1, XDATA, add(CFA_XSP16, literal(-9)))
          CFI (cfiCond121) V4 load(1, XDATA, add(CFA_XSP16, literal(-8)))
          CFI (cfiCond121) V5 load(1, XDATA, add(CFA_XSP16, literal(-7)))
          CFI (cfiCond121) R7 load(1, XDATA, add(CFA_XSP16, literal(-6)))
          CFI (cfiCond121) ?RET_LOW load(1, XDATA, add(CFA_XSP16, literal(-5)))
          CFI (cfiCond121) ?RET_HIGH load(1, XDATA, add(CFA_XSP16, literal(-4)))
          CFI (cfiCond121) ?BRET_EXT load(1, XDATA, add(CFA_XSP16, literal(-3)))
          CFI (cfiCond121) DPL0 load(1, XDATA, add(CFA_XSP16, literal(-2)))
          CFI (cfiCond121) DPH0 load(1, XDATA, add(CFA_XSP16, literal(-1)))
          CFI (cfiCond121) CFA_SP SP+-4
          CFI (cfiCond121) CFA_XSP16 add(XSP16, 16)
          CFI Block cfiPicker122 Using cfiCommon1
          CFI (cfiPicker122) NoFunction
          CFI (cfiPicker122) Picker
        MOVX      A,@DPTR
        MOV       R2,A
        INC       DPTR
        MOVX      A,@DPTR
        MOV       R3,A
        MOV       DPL,?V2
        MOV       DPH,?V3
        RET
          CFI EndBlock cfiCond118
          CFI EndBlock cfiCond119
          CFI EndBlock cfiCond120
          CFI EndBlock cfiCond121
          CFI EndBlock cfiPicker122
//  712 
//  713 /*********************************************************************
//  714  * @fn      bdb_zclFindingBindingAddBindEntry
//  715  *
//  716  * @brief   This function is used to Add an entry to the binding table
//  717  *
//  718  * @param   SrcEndpInt - source endpoint
//  719  * @param   BindClusterId - cluster to try bind
//  720  * @param   Cnt - list of remote clusters
//  721  * @param   ClusterList - pointer to the Object ID list
//  722  * @param   DstAddr - Address of remote node
//  723  * @param   DstEndpInt - EndPoint of remote node
//  724  * @param   addBind - Indicate wheter or not bind must be added or not
//  725  * @param   isClusterOutput - True if the bind attempted is output cluster in the local device, false otherwise
//  726  *
//  727  * @return  status - Success if added
//  728  */

        RSEG BANKED_CODE:HUGECODE:NOROOT(0)
//  729 static ZStatus_t bdb_zclFindingBindingAddBindEntry( byte SrcEndpInt,
bdb_zclFindingBindingAddBindEntry:
          CFI Block cfiBlock123 Using cfiCommon0
          CFI Function bdb_zclFindingBindingAddBindEntry
        CODE
//  730                                   uint16 BindClusterId,
//  731                                   byte Cnt,                 
//  732                                   uint16 * ClusterList,
//  733                                   zAddrType_t *DstAddr, byte DstEndpInt, uint8 addBind, uint8 isClusterOutput )
//  734 {
        FUNCALL bdb_zclFindingBindingAddBindEntry, bdb_FindIfAppCluster
        LOCFRAME ISTACK, 0, STACK
        LOCFRAME PSTACK, 0, STACK
        LOCFRAME XSTACK, 14, STACK
        LOCFRAME IOVERLAY, 0, STATIC
        LOCFRAME DOVERLAY, 0, STATIC
        ARGFRAME ISTACK, 0, STACK
        ARGFRAME PSTACK, 0, STACK
        ARGFRAME XSTACK, 14, STACK
        ARGFRAME IOVERLAY, 0, STATIC
        ARGFRAME DOVERLAY, 0, STATIC
        FUNCALL bdb_zclFindingBindingAddBindEntry, ZDO_AnyClusterMatches
        LOCFRAME ISTACK, 0, STACK
        LOCFRAME PSTACK, 0, STACK
        LOCFRAME XSTACK, 16, STACK
        LOCFRAME IOVERLAY, 0, STATIC
        LOCFRAME DOVERLAY, 0, STATIC
        ARGFRAME ISTACK, 0, STACK
        ARGFRAME PSTACK, 0, STACK
        ARGFRAME XSTACK, 16, STACK
        ARGFRAME IOVERLAY, 0, STATIC
        ARGFRAME DOVERLAY, 0, STATIC
        REQUIRE ?V0
        REQUIRE ?V2
        REQUIRE ?V3
        MOV       A,#-0xc
        LCALL     ?BANKED_ENTER_XDATA
          CFI DPH0 load(1, XDATA, add(CFA_XSP16, literal(-1)))
          CFI DPL0 load(1, XDATA, add(CFA_XSP16, literal(-2)))
          CFI ?BRET_EXT load(1, XDATA, add(CFA_XSP16, literal(-3)))
          CFI ?RET_HIGH load(1, XDATA, add(CFA_XSP16, literal(-4)))
          CFI ?RET_LOW load(1, XDATA, add(CFA_XSP16, literal(-5)))
          CFI R7 load(1, XDATA, add(CFA_XSP16, literal(-6)))
          CFI V3 load(1, XDATA, add(CFA_XSP16, literal(-7)))
          CFI V2 load(1, XDATA, add(CFA_XSP16, literal(-8)))
          CFI V1 load(1, XDATA, add(CFA_XSP16, literal(-9)))
          CFI V0 load(1, XDATA, add(CFA_XSP16, literal(-10)))
          CFI VB load(1, XDATA, add(CFA_XSP16, literal(-11)))
          CFI R6 load(1, XDATA, add(CFA_XSP16, literal(-12)))
          CFI CFA_SP SP+0
          CFI CFA_XSP16 add(XSP16, 12)
        ; Saved register size: 12
        ; Auto size: 2
        MOV       A,#-0x2
        LCALL     ?ALLOC_XSTACK8
          CFI CFA_XSP16 add(XSP16, 14)
        LCALL     ?Subroutine34 & 0xFFFF
??CrossCallReturnLabel_93:
        MOV       A,R1
        MOV       R6,A
        MOV       A,R4
        MOV       R7,A
        MOV       ?V0,R5
//  735   uint8 status;
//  736 
//  737   if ( bdb_FindIfAppCluster ( BindClusterId, isClusterOutput ) != SUCCESS )
        ; Setup parameters for call to function bdb_FindIfAppCluster
        MOV       A,#0x13
        LCALL     ?XSTACK_DISP0_8
        MOVX      A,@DPTR
        MOV       R1,A
        MOV       DPL,?XSP + 0
        MOV       DPH,?XSP + 1
        MOVX      A,@DPTR
        MOV       R2,A
        LCALL     `??bdb_FindIfAppCluster::?relay`; Banked call to: bdb_FindIfAppCluster
        MOV       A,R1
        JNZ       ??bdb_zclFindingBindingAddBindEntry_0
//  738   {
//  739     return ( ZApsFail ); // No App cluster
//  740   }
//  741 
//  742   // Are there matching clusters?
//  743   status = ZDO_AnyClusterMatches( Cnt, 
//  744                                   ClusterList,
//  745                                   1,
//  746                                  &BindClusterId);
//  747   if ( status == FALSE )
        ; Setup parameters for call to function ZDO_AnyClusterMatches
        MOV       R0,?XSP + 0
        MOV       R1,?XSP + 1
        MOV       ?V2,R0
        MOV       ?V3,R1
        MOV       R0,#?V2
        LCALL     ?PUSH_XSTACK_I_TWO
          CFI CFA_XSP16 add(XSP16, 16)
        MOV       R4,#0x1
        MOV       A,#0x10
        LCALL     ?XSTACK_DISP0_8
        LCALL     ??Subroutine45_0 & 0xFFFF
??CrossCallReturnLabel_64:
        MOV       A,R7
        MOV       R1,A
        LCALL     `??ZDO_AnyClusterMatches::?relay`; Banked call to: ZDO_AnyClusterMatches
        MOV       A,#0x2
        LCALL     ?DEALLOC_XSTACK8
          CFI CFA_XSP16 add(XSP16, 14)
        MOV       A,R1
        JNZ       ??bdb_zclFindingBindingAddBindEntry_1
//  748   {
//  749     return ( ZApsFail ); // No matched Cluster
??bdb_zclFindingBindingAddBindEntry_0:
        MOV       R1,#-0x4f
        SJMP      ??bdb_zclFindingBindingAddBindEntry_2
//  750   }
//  751 
//  752   if(addBind)  
??bdb_zclFindingBindingAddBindEntry_1:
        MOV       A,#0x12
        LCALL     ?XSTACK_DISP0_8
        MOVX      A,@DPTR
        JZ        ??bdb_zclFindingBindingAddBindEntry_3
//  753   {
//  754     if ( pbindAddEntry )
        MOV       DPTR,#pbindAddEntry
        LCALL     ??Subroutine52_0 & 0xFFFF
??CrossCallReturnLabel_109:
        JZ        ??bdb_zclFindingBindingAddBindEntry_3
//  755     {
//  756       // Add the entry into the binding table
//  757       if (!pbindAddEntry( SrcEndpInt, DstAddr, DstEndpInt,
//  758                              1, &BindClusterId ) )
        ; Setup parameters for indirect call
        MOV       R0,#?V2
        LCALL     ?PUSH_XSTACK_I_TWO
          CFI CFA_XSP16 add(XSP16, 16)
        MOV       R5,#0x1
        MOV       R4,?V0
        MOV       A,#0x12
        LCALL     ?XSTACK_DISP0_8
        LCALL     ??Subroutine45_0 & 0xFFFF
??CrossCallReturnLabel_65:
        MOV       A,R6
        MOV       R1,A
        MOV       DPTR,#pbindAddEntry
        LCALL     ??Subroutine41_0 & 0xFFFF
??CrossCallReturnLabel_57:
        LCALL     ?CALL_IND
        MOV       A,#0x2
        LCALL     ?DEALLOC_XSTACK8
          CFI CFA_XSP16 add(XSP16, 14)
        MOV       A,R2
        ORL       A,R3
        JNZ       ??bdb_zclFindingBindingAddBindEntry_3
//  759       {
//  760         return ( ZApsTableFull );
        MOV       R1,#-0x4e
        SJMP      ??bdb_zclFindingBindingAddBindEntry_2
//  761       }
//  762     }
//  763   }
//  764   
//  765   return ( ZSuccess );
??bdb_zclFindingBindingAddBindEntry_3:
        MOV       R1,#0x0
??bdb_zclFindingBindingAddBindEntry_2:
        MOV       A,#0x2
        LCALL     ?DEALLOC_XSTACK8
          CFI CFA_XSP16 add(XSP16, 12)
        MOV       R7,#0x4
        LJMP      ?BANKED_LEAVE_XDATA
//  766 }
          CFI EndBlock cfiBlock123

        RSEG BANKED_CODE:HUGECODE:NOROOT(0)
?Subroutine16:
          CFI Block cfiCond124 Using cfiCommon0
          CFI Function bdb_ProcessRespondentList
          CFI Conditional ??CrossCallReturnLabel_59
          CFI R6 load(1, XDATA, add(CFA_XSP16, literal(-16)))
          CFI VB load(1, XDATA, add(CFA_XSP16, literal(-15)))
          CFI V0 load(1, XDATA, add(CFA_XSP16, literal(-14)))
          CFI V1 load(1, XDATA, add(CFA_XSP16, literal(-13)))
          CFI V2 load(1, XDATA, add(CFA_XSP16, literal(-12)))
          CFI V3 load(1, XDATA, add(CFA_XSP16, literal(-11)))
          CFI V4 load(1, XDATA, add(CFA_XSP16, literal(-10)))
          CFI V5 load(1, XDATA, add(CFA_XSP16, literal(-9)))
          CFI V6 load(1, XDATA, add(CFA_XSP16, literal(-8)))
          CFI V7 load(1, XDATA, add(CFA_XSP16, literal(-7)))
          CFI R7 load(1, XDATA, add(CFA_XSP16, literal(-6)))
          CFI ?RET_LOW load(1, XDATA, add(CFA_XSP16, literal(-5)))
          CFI ?RET_HIGH load(1, XDATA, add(CFA_XSP16, literal(-4)))
          CFI ?BRET_EXT load(1, XDATA, add(CFA_XSP16, literal(-3)))
          CFI DPL0 load(1, XDATA, add(CFA_XSP16, literal(-2)))
          CFI DPH0 load(1, XDATA, add(CFA_XSP16, literal(-1)))
          CFI CFA_SP SP+-2
          CFI CFA_XSP16 add(XSP16, 25)
          CFI Block cfiCond125 Using cfiCommon0
          CFI (cfiCond125) Function bdb_ProcessRespondentList
          CFI (cfiCond125) Conditional ??CrossCallReturnLabel_60
          CFI (cfiCond125) R6 load(1, XDATA, add(CFA_XSP16, literal(-16)))
          CFI (cfiCond125) VB load(1, XDATA, add(CFA_XSP16, literal(-15)))
          CFI (cfiCond125) V0 load(1, XDATA, add(CFA_XSP16, literal(-14)))
          CFI (cfiCond125) V1 load(1, XDATA, add(CFA_XSP16, literal(-13)))
          CFI (cfiCond125) V2 load(1, XDATA, add(CFA_XSP16, literal(-12)))
          CFI (cfiCond125) V3 load(1, XDATA, add(CFA_XSP16, literal(-11)))
          CFI (cfiCond125) V4 load(1, XDATA, add(CFA_XSP16, literal(-10)))
          CFI (cfiCond125) V5 load(1, XDATA, add(CFA_XSP16, literal(-9)))
          CFI (cfiCond125) V6 load(1, XDATA, add(CFA_XSP16, literal(-8)))
          CFI (cfiCond125) V7 load(1, XDATA, add(CFA_XSP16, literal(-7)))
          CFI (cfiCond125) R7 load(1, XDATA, add(CFA_XSP16, literal(-6)))
          CFI (cfiCond125) ?RET_LOW load(1, XDATA, add(CFA_XSP16, literal(-5)))
          CFI (cfiCond125) ?RET_HIGH load(1, XDATA, add(CFA_XSP16, literal(-4)))
          CFI (cfiCond125) ?BRET_EXT load(1, XDATA, add(CFA_XSP16, literal(-3)))
          CFI (cfiCond125) DPL0 load(1, XDATA, add(CFA_XSP16, literal(-2)))
          CFI (cfiCond125) DPH0 load(1, XDATA, add(CFA_XSP16, literal(-1)))
          CFI (cfiCond125) CFA_SP SP+-2
          CFI (cfiCond125) CFA_XSP16 add(XSP16, 26)
          CFI Block cfiPicker126 Using cfiCommon1
          CFI (cfiPicker126) NoFunction
          CFI (cfiPicker126) Picker
        MOV       DPTR,#pRespondentCurr
          CFI EndBlock cfiCond124
          CFI EndBlock cfiCond125
          CFI EndBlock cfiPicker126
        REQUIRE ??Subroutine41_0
        ; // Fall through to label ??Subroutine41_0

        RSEG BANKED_CODE:HUGECODE:NOROOT(0)
??Subroutine41_0:
          CFI Block cfiCond127 Using cfiCommon0
          CFI Function bdb_zclFindingBindingAddBindEntry
          CFI Conditional ??CrossCallReturnLabel_57
          CFI R6 load(1, XDATA, add(CFA_XSP16, literal(-12)))
          CFI VB load(1, XDATA, add(CFA_XSP16, literal(-11)))
          CFI V0 load(1, XDATA, add(CFA_XSP16, literal(-10)))
          CFI V1 load(1, XDATA, add(CFA_XSP16, literal(-9)))
          CFI V2 load(1, XDATA, add(CFA_XSP16, literal(-8)))
          CFI V3 load(1, XDATA, add(CFA_XSP16, literal(-7)))
          CFI R7 load(1, XDATA, add(CFA_XSP16, literal(-6)))
          CFI ?RET_LOW load(1, XDATA, add(CFA_XSP16, literal(-5)))
          CFI ?RET_HIGH load(1, XDATA, add(CFA_XSP16, literal(-4)))
          CFI ?BRET_EXT load(1, XDATA, add(CFA_XSP16, literal(-3)))
          CFI DPL0 load(1, XDATA, add(CFA_XSP16, literal(-2)))
          CFI DPH0 load(1, XDATA, add(CFA_XSP16, literal(-1)))
          CFI CFA_SP SP+-2
          CFI CFA_XSP16 add(XSP16, 16)
          CFI Block cfiCond128 Using cfiCommon0
          CFI (cfiCond128) Function bdb_ProcessRespondentList
          CFI (cfiCond128) Conditional ??CrossCallReturnLabel_58
          CFI (cfiCond128) R6 load(1, XDATA, add(CFA_XSP16, literal(-16)))
          CFI (cfiCond128) VB load(1, XDATA, add(CFA_XSP16, literal(-15)))
          CFI (cfiCond128) V0 load(1, XDATA, add(CFA_XSP16, literal(-14)))
          CFI (cfiCond128) V1 load(1, XDATA, add(CFA_XSP16, literal(-13)))
          CFI (cfiCond128) V2 load(1, XDATA, add(CFA_XSP16, literal(-12)))
          CFI (cfiCond128) V3 load(1, XDATA, add(CFA_XSP16, literal(-11)))
          CFI (cfiCond128) V4 load(1, XDATA, add(CFA_XSP16, literal(-10)))
          CFI (cfiCond128) V5 load(1, XDATA, add(CFA_XSP16, literal(-9)))
          CFI (cfiCond128) V6 load(1, XDATA, add(CFA_XSP16, literal(-8)))
          CFI (cfiCond128) V7 load(1, XDATA, add(CFA_XSP16, literal(-7)))
          CFI (cfiCond128) R7 load(1, XDATA, add(CFA_XSP16, literal(-6)))
          CFI (cfiCond128) ?RET_LOW load(1, XDATA, add(CFA_XSP16, literal(-5)))
          CFI (cfiCond128) ?RET_HIGH load(1, XDATA, add(CFA_XSP16, literal(-4)))
          CFI (cfiCond128) ?BRET_EXT load(1, XDATA, add(CFA_XSP16, literal(-3)))
          CFI (cfiCond128) DPL0 load(1, XDATA, add(CFA_XSP16, literal(-2)))
          CFI (cfiCond128) DPH0 load(1, XDATA, add(CFA_XSP16, literal(-1)))
          CFI (cfiCond128) CFA_SP SP+-2
          CFI (cfiCond128) CFA_XSP16 add(XSP16, 25)
          CFI Block cfiCond129 Using cfiCommon0
          CFI (cfiCond129) Function bdb_ProcessRespondentList
          CFI (cfiCond129) Conditional ??CrossCallReturnLabel_59
          CFI (cfiCond129) R6 load(1, XDATA, add(CFA_XSP16, literal(-16)))
          CFI (cfiCond129) VB load(1, XDATA, add(CFA_XSP16, literal(-15)))
          CFI (cfiCond129) V0 load(1, XDATA, add(CFA_XSP16, literal(-14)))
          CFI (cfiCond129) V1 load(1, XDATA, add(CFA_XSP16, literal(-13)))
          CFI (cfiCond129) V2 load(1, XDATA, add(CFA_XSP16, literal(-12)))
          CFI (cfiCond129) V3 load(1, XDATA, add(CFA_XSP16, literal(-11)))
          CFI (cfiCond129) V4 load(1, XDATA, add(CFA_XSP16, literal(-10)))
          CFI (cfiCond129) V5 load(1, XDATA, add(CFA_XSP16, literal(-9)))
          CFI (cfiCond129) V6 load(1, XDATA, add(CFA_XSP16, literal(-8)))
          CFI (cfiCond129) V7 load(1, XDATA, add(CFA_XSP16, literal(-7)))
          CFI (cfiCond129) R7 load(1, XDATA, add(CFA_XSP16, literal(-6)))
          CFI (cfiCond129) ?RET_LOW load(1, XDATA, add(CFA_XSP16, literal(-5)))
          CFI (cfiCond129) ?RET_HIGH load(1, XDATA, add(CFA_XSP16, literal(-4)))
          CFI (cfiCond129) ?BRET_EXT load(1, XDATA, add(CFA_XSP16, literal(-3)))
          CFI (cfiCond129) DPL0 load(1, XDATA, add(CFA_XSP16, literal(-2)))
          CFI (cfiCond129) DPH0 load(1, XDATA, add(CFA_XSP16, literal(-1)))
          CFI (cfiCond129) CFA_SP SP+-2
          CFI (cfiCond129) CFA_XSP16 add(XSP16, 25)
          CFI Block cfiCond130 Using cfiCommon0
          CFI (cfiCond130) Function bdb_ProcessRespondentList
          CFI (cfiCond130) Conditional ??CrossCallReturnLabel_60
          CFI (cfiCond130) R6 load(1, XDATA, add(CFA_XSP16, literal(-16)))
          CFI (cfiCond130) VB load(1, XDATA, add(CFA_XSP16, literal(-15)))
          CFI (cfiCond130) V0 load(1, XDATA, add(CFA_XSP16, literal(-14)))
          CFI (cfiCond130) V1 load(1, XDATA, add(CFA_XSP16, literal(-13)))
          CFI (cfiCond130) V2 load(1, XDATA, add(CFA_XSP16, literal(-12)))
          CFI (cfiCond130) V3 load(1, XDATA, add(CFA_XSP16, literal(-11)))
          CFI (cfiCond130) V4 load(1, XDATA, add(CFA_XSP16, literal(-10)))
          CFI (cfiCond130) V5 load(1, XDATA, add(CFA_XSP16, literal(-9)))
          CFI (cfiCond130) V6 load(1, XDATA, add(CFA_XSP16, literal(-8)))
          CFI (cfiCond130) V7 load(1, XDATA, add(CFA_XSP16, literal(-7)))
          CFI (cfiCond130) R7 load(1, XDATA, add(CFA_XSP16, literal(-6)))
          CFI (cfiCond130) ?RET_LOW load(1, XDATA, add(CFA_XSP16, literal(-5)))
          CFI (cfiCond130) ?RET_HIGH load(1, XDATA, add(CFA_XSP16, literal(-4)))
          CFI (cfiCond130) ?BRET_EXT load(1, XDATA, add(CFA_XSP16, literal(-3)))
          CFI (cfiCond130) DPL0 load(1, XDATA, add(CFA_XSP16, literal(-2)))
          CFI (cfiCond130) DPH0 load(1, XDATA, add(CFA_XSP16, literal(-1)))
          CFI (cfiCond130) CFA_SP SP+-2
          CFI (cfiCond130) CFA_XSP16 add(XSP16, 26)
          CFI Block cfiPicker131 Using cfiCommon1
          CFI (cfiPicker131) NoFunction
          CFI (cfiPicker131) Picker
        MOVX      A,@DPTR
          CFI EndBlock cfiCond127
          CFI EndBlock cfiCond128
          CFI EndBlock cfiCond129
          CFI EndBlock cfiCond130
          CFI EndBlock cfiPicker131
        REQUIRE ??Subroutine42_0
        ; // Fall through to label ??Subroutine42_0

        RSEG BANKED_CODE:HUGECODE:NOROOT(0)
??Subroutine42_0:
          CFI Block cfiCond132 Using cfiCommon0
          CFI Function bdb_ProcessSimpleDesc
          CFI Conditional ??CrossCallReturnLabel_56
          CFI R6 load(1, XDATA, add(CFA_XSP16, literal(-9)))
          CFI VB load(1, XDATA, add(CFA_XSP16, literal(-8)))
          CFI V0 load(1, XDATA, add(CFA_XSP16, literal(-7)))
          CFI R7 load(1, XDATA, add(CFA_XSP16, literal(-6)))
          CFI ?RET_LOW load(1, XDATA, add(CFA_XSP16, literal(-5)))
          CFI ?RET_HIGH load(1, XDATA, add(CFA_XSP16, literal(-4)))
          CFI ?BRET_EXT load(1, XDATA, add(CFA_XSP16, literal(-3)))
          CFI DPL0 load(1, XDATA, add(CFA_XSP16, literal(-2)))
          CFI DPH0 load(1, XDATA, add(CFA_XSP16, literal(-1)))
          CFI CFA_SP SP+-2
          CFI CFA_XSP16 add(XSP16, 28)
          CFI Block cfiCond133 Using cfiCommon0
          CFI (cfiCond133) Function bdb_zclFindingBindingAddBindEntry
          CFI (cfiCond133) Conditional ??CrossCallReturnLabel_57
          CFI (cfiCond133) R6 load(1, XDATA, add(CFA_XSP16, literal(-12)))
          CFI (cfiCond133) VB load(1, XDATA, add(CFA_XSP16, literal(-11)))
          CFI (cfiCond133) V0 load(1, XDATA, add(CFA_XSP16, literal(-10)))
          CFI (cfiCond133) V1 load(1, XDATA, add(CFA_XSP16, literal(-9)))
          CFI (cfiCond133) V2 load(1, XDATA, add(CFA_XSP16, literal(-8)))
          CFI (cfiCond133) V3 load(1, XDATA, add(CFA_XSP16, literal(-7)))
          CFI (cfiCond133) R7 load(1, XDATA, add(CFA_XSP16, literal(-6)))
          CFI (cfiCond133) ?RET_LOW load(1, XDATA, add(CFA_XSP16, literal(-5)))
          CFI (cfiCond133) ?RET_HIGH load(1, XDATA, add(CFA_XSP16, literal(-4)))
          CFI (cfiCond133) ?BRET_EXT load(1, XDATA, add(CFA_XSP16, literal(-3)))
          CFI (cfiCond133) DPL0 load(1, XDATA, add(CFA_XSP16, literal(-2)))
          CFI (cfiCond133) DPH0 load(1, XDATA, add(CFA_XSP16, literal(-1)))
          CFI (cfiCond133) CFA_SP SP+-2
          CFI (cfiCond133) CFA_XSP16 add(XSP16, 16)
          CFI Block cfiCond134 Using cfiCommon0
          CFI (cfiCond134) Function bdb_ProcessRespondentList
          CFI (cfiCond134) Conditional ??CrossCallReturnLabel_58
          CFI (cfiCond134) R6 load(1, XDATA, add(CFA_XSP16, literal(-16)))
          CFI (cfiCond134) VB load(1, XDATA, add(CFA_XSP16, literal(-15)))
          CFI (cfiCond134) V0 load(1, XDATA, add(CFA_XSP16, literal(-14)))
          CFI (cfiCond134) V1 load(1, XDATA, add(CFA_XSP16, literal(-13)))
          CFI (cfiCond134) V2 load(1, XDATA, add(CFA_XSP16, literal(-12)))
          CFI (cfiCond134) V3 load(1, XDATA, add(CFA_XSP16, literal(-11)))
          CFI (cfiCond134) V4 load(1, XDATA, add(CFA_XSP16, literal(-10)))
          CFI (cfiCond134) V5 load(1, XDATA, add(CFA_XSP16, literal(-9)))
          CFI (cfiCond134) V6 load(1, XDATA, add(CFA_XSP16, literal(-8)))
          CFI (cfiCond134) V7 load(1, XDATA, add(CFA_XSP16, literal(-7)))
          CFI (cfiCond134) R7 load(1, XDATA, add(CFA_XSP16, literal(-6)))
          CFI (cfiCond134) ?RET_LOW load(1, XDATA, add(CFA_XSP16, literal(-5)))
          CFI (cfiCond134) ?RET_HIGH load(1, XDATA, add(CFA_XSP16, literal(-4)))
          CFI (cfiCond134) ?BRET_EXT load(1, XDATA, add(CFA_XSP16, literal(-3)))
          CFI (cfiCond134) DPL0 load(1, XDATA, add(CFA_XSP16, literal(-2)))
          CFI (cfiCond134) DPH0 load(1, XDATA, add(CFA_XSP16, literal(-1)))
          CFI (cfiCond134) CFA_SP SP+-2
          CFI (cfiCond134) CFA_XSP16 add(XSP16, 25)
          CFI Block cfiCond135 Using cfiCommon0
          CFI (cfiCond135) Function bdb_ProcessRespondentList
          CFI (cfiCond135) Conditional ??CrossCallReturnLabel_59
          CFI (cfiCond135) R6 load(1, XDATA, add(CFA_XSP16, literal(-16)))
          CFI (cfiCond135) VB load(1, XDATA, add(CFA_XSP16, literal(-15)))
          CFI (cfiCond135) V0 load(1, XDATA, add(CFA_XSP16, literal(-14)))
          CFI (cfiCond135) V1 load(1, XDATA, add(CFA_XSP16, literal(-13)))
          CFI (cfiCond135) V2 load(1, XDATA, add(CFA_XSP16, literal(-12)))
          CFI (cfiCond135) V3 load(1, XDATA, add(CFA_XSP16, literal(-11)))
          CFI (cfiCond135) V4 load(1, XDATA, add(CFA_XSP16, literal(-10)))
          CFI (cfiCond135) V5 load(1, XDATA, add(CFA_XSP16, literal(-9)))
          CFI (cfiCond135) V6 load(1, XDATA, add(CFA_XSP16, literal(-8)))
          CFI (cfiCond135) V7 load(1, XDATA, add(CFA_XSP16, literal(-7)))
          CFI (cfiCond135) R7 load(1, XDATA, add(CFA_XSP16, literal(-6)))
          CFI (cfiCond135) ?RET_LOW load(1, XDATA, add(CFA_XSP16, literal(-5)))
          CFI (cfiCond135) ?RET_HIGH load(1, XDATA, add(CFA_XSP16, literal(-4)))
          CFI (cfiCond135) ?BRET_EXT load(1, XDATA, add(CFA_XSP16, literal(-3)))
          CFI (cfiCond135) DPL0 load(1, XDATA, add(CFA_XSP16, literal(-2)))
          CFI (cfiCond135) DPH0 load(1, XDATA, add(CFA_XSP16, literal(-1)))
          CFI (cfiCond135) CFA_SP SP+-2
          CFI (cfiCond135) CFA_XSP16 add(XSP16, 25)
          CFI Block cfiCond136 Using cfiCommon0
          CFI (cfiCond136) Function bdb_ProcessRespondentList
          CFI (cfiCond136) Conditional ??CrossCallReturnLabel_60
          CFI (cfiCond136) R6 load(1, XDATA, add(CFA_XSP16, literal(-16)))
          CFI (cfiCond136) VB load(1, XDATA, add(CFA_XSP16, literal(-15)))
          CFI (cfiCond136) V0 load(1, XDATA, add(CFA_XSP16, literal(-14)))
          CFI (cfiCond136) V1 load(1, XDATA, add(CFA_XSP16, literal(-13)))
          CFI (cfiCond136) V2 load(1, XDATA, add(CFA_XSP16, literal(-12)))
          CFI (cfiCond136) V3 load(1, XDATA, add(CFA_XSP16, literal(-11)))
          CFI (cfiCond136) V4 load(1, XDATA, add(CFA_XSP16, literal(-10)))
          CFI (cfiCond136) V5 load(1, XDATA, add(CFA_XSP16, literal(-9)))
          CFI (cfiCond136) V6 load(1, XDATA, add(CFA_XSP16, literal(-8)))
          CFI (cfiCond136) V7 load(1, XDATA, add(CFA_XSP16, literal(-7)))
          CFI (cfiCond136) R7 load(1, XDATA, add(CFA_XSP16, literal(-6)))
          CFI (cfiCond136) ?RET_LOW load(1, XDATA, add(CFA_XSP16, literal(-5)))
          CFI (cfiCond136) ?RET_HIGH load(1, XDATA, add(CFA_XSP16, literal(-4)))
          CFI (cfiCond136) ?BRET_EXT load(1, XDATA, add(CFA_XSP16, literal(-3)))
          CFI (cfiCond136) DPL0 load(1, XDATA, add(CFA_XSP16, literal(-2)))
          CFI (cfiCond136) DPH0 load(1, XDATA, add(CFA_XSP16, literal(-1)))
          CFI (cfiCond136) CFA_SP SP+-2
          CFI (cfiCond136) CFA_XSP16 add(XSP16, 26)
          CFI Block cfiPicker137 Using cfiCommon1
          CFI (cfiPicker137) NoFunction
          CFI (cfiPicker137) Picker
        MOV       R0,A
          CFI EndBlock cfiCond132
          CFI EndBlock cfiCond133
          CFI EndBlock cfiCond134
          CFI EndBlock cfiCond135
          CFI EndBlock cfiCond136
          CFI EndBlock cfiPicker137
        REQUIRE ??Subroutine43_0
        ; // Fall through to label ??Subroutine43_0

        RSEG BANKED_CODE:HUGECODE:NOROOT(0)
??Subroutine43_0:
          CFI Block cfiCond138 Using cfiCommon0
          CFI Function bdb_ProcessSimpleDesc
          CFI Conditional ??CrossCallReturnLabel_55
          CFI R6 load(1, XDATA, add(CFA_XSP16, literal(-9)))
          CFI VB load(1, XDATA, add(CFA_XSP16, literal(-8)))
          CFI V0 load(1, XDATA, add(CFA_XSP16, literal(-7)))
          CFI R7 load(1, XDATA, add(CFA_XSP16, literal(-6)))
          CFI ?RET_LOW load(1, XDATA, add(CFA_XSP16, literal(-5)))
          CFI ?RET_HIGH load(1, XDATA, add(CFA_XSP16, literal(-4)))
          CFI ?BRET_EXT load(1, XDATA, add(CFA_XSP16, literal(-3)))
          CFI DPL0 load(1, XDATA, add(CFA_XSP16, literal(-2)))
          CFI DPH0 load(1, XDATA, add(CFA_XSP16, literal(-1)))
          CFI CFA_SP SP+-2
          CFI CFA_XSP16 add(XSP16, 28)
          CFI Block cfiCond139 Using cfiCommon0
          CFI (cfiCond139) Function bdb_ProcessSimpleDesc
          CFI (cfiCond139) Conditional ??CrossCallReturnLabel_56
          CFI (cfiCond139) R6 load(1, XDATA, add(CFA_XSP16, literal(-9)))
          CFI (cfiCond139) VB load(1, XDATA, add(CFA_XSP16, literal(-8)))
          CFI (cfiCond139) V0 load(1, XDATA, add(CFA_XSP16, literal(-7)))
          CFI (cfiCond139) R7 load(1, XDATA, add(CFA_XSP16, literal(-6)))
          CFI (cfiCond139) ?RET_LOW load(1, XDATA, add(CFA_XSP16, literal(-5)))
          CFI (cfiCond139) ?RET_HIGH load(1, XDATA, add(CFA_XSP16, literal(-4)))
          CFI (cfiCond139) ?BRET_EXT load(1, XDATA, add(CFA_XSP16, literal(-3)))
          CFI (cfiCond139) DPL0 load(1, XDATA, add(CFA_XSP16, literal(-2)))
          CFI (cfiCond139) DPH0 load(1, XDATA, add(CFA_XSP16, literal(-1)))
          CFI (cfiCond139) CFA_SP SP+-2
          CFI (cfiCond139) CFA_XSP16 add(XSP16, 28)
          CFI Block cfiCond140 Using cfiCommon0
          CFI (cfiCond140) Function bdb_zclFindingBindingAddBindEntry
          CFI (cfiCond140) Conditional ??CrossCallReturnLabel_57
          CFI (cfiCond140) R6 load(1, XDATA, add(CFA_XSP16, literal(-12)))
          CFI (cfiCond140) VB load(1, XDATA, add(CFA_XSP16, literal(-11)))
          CFI (cfiCond140) V0 load(1, XDATA, add(CFA_XSP16, literal(-10)))
          CFI (cfiCond140) V1 load(1, XDATA, add(CFA_XSP16, literal(-9)))
          CFI (cfiCond140) V2 load(1, XDATA, add(CFA_XSP16, literal(-8)))
          CFI (cfiCond140) V3 load(1, XDATA, add(CFA_XSP16, literal(-7)))
          CFI (cfiCond140) R7 load(1, XDATA, add(CFA_XSP16, literal(-6)))
          CFI (cfiCond140) ?RET_LOW load(1, XDATA, add(CFA_XSP16, literal(-5)))
          CFI (cfiCond140) ?RET_HIGH load(1, XDATA, add(CFA_XSP16, literal(-4)))
          CFI (cfiCond140) ?BRET_EXT load(1, XDATA, add(CFA_XSP16, literal(-3)))
          CFI (cfiCond140) DPL0 load(1, XDATA, add(CFA_XSP16, literal(-2)))
          CFI (cfiCond140) DPH0 load(1, XDATA, add(CFA_XSP16, literal(-1)))
          CFI (cfiCond140) CFA_SP SP+-2
          CFI (cfiCond140) CFA_XSP16 add(XSP16, 16)
          CFI Block cfiCond141 Using cfiCommon0
          CFI (cfiCond141) Function bdb_ProcessRespondentList
          CFI (cfiCond141) Conditional ??CrossCallReturnLabel_58
          CFI (cfiCond141) R6 load(1, XDATA, add(CFA_XSP16, literal(-16)))
          CFI (cfiCond141) VB load(1, XDATA, add(CFA_XSP16, literal(-15)))
          CFI (cfiCond141) V0 load(1, XDATA, add(CFA_XSP16, literal(-14)))
          CFI (cfiCond141) V1 load(1, XDATA, add(CFA_XSP16, literal(-13)))
          CFI (cfiCond141) V2 load(1, XDATA, add(CFA_XSP16, literal(-12)))
          CFI (cfiCond141) V3 load(1, XDATA, add(CFA_XSP16, literal(-11)))
          CFI (cfiCond141) V4 load(1, XDATA, add(CFA_XSP16, literal(-10)))
          CFI (cfiCond141) V5 load(1, XDATA, add(CFA_XSP16, literal(-9)))
          CFI (cfiCond141) V6 load(1, XDATA, add(CFA_XSP16, literal(-8)))
          CFI (cfiCond141) V7 load(1, XDATA, add(CFA_XSP16, literal(-7)))
          CFI (cfiCond141) R7 load(1, XDATA, add(CFA_XSP16, literal(-6)))
          CFI (cfiCond141) ?RET_LOW load(1, XDATA, add(CFA_XSP16, literal(-5)))
          CFI (cfiCond141) ?RET_HIGH load(1, XDATA, add(CFA_XSP16, literal(-4)))
          CFI (cfiCond141) ?BRET_EXT load(1, XDATA, add(CFA_XSP16, literal(-3)))
          CFI (cfiCond141) DPL0 load(1, XDATA, add(CFA_XSP16, literal(-2)))
          CFI (cfiCond141) DPH0 load(1, XDATA, add(CFA_XSP16, literal(-1)))
          CFI (cfiCond141) CFA_SP SP+-2
          CFI (cfiCond141) CFA_XSP16 add(XSP16, 25)
          CFI Block cfiCond142 Using cfiCommon0
          CFI (cfiCond142) Function bdb_ProcessRespondentList
          CFI (cfiCond142) Conditional ??CrossCallReturnLabel_59
          CFI (cfiCond142) R6 load(1, XDATA, add(CFA_XSP16, literal(-16)))
          CFI (cfiCond142) VB load(1, XDATA, add(CFA_XSP16, literal(-15)))
          CFI (cfiCond142) V0 load(1, XDATA, add(CFA_XSP16, literal(-14)))
          CFI (cfiCond142) V1 load(1, XDATA, add(CFA_XSP16, literal(-13)))
          CFI (cfiCond142) V2 load(1, XDATA, add(CFA_XSP16, literal(-12)))
          CFI (cfiCond142) V3 load(1, XDATA, add(CFA_XSP16, literal(-11)))
          CFI (cfiCond142) V4 load(1, XDATA, add(CFA_XSP16, literal(-10)))
          CFI (cfiCond142) V5 load(1, XDATA, add(CFA_XSP16, literal(-9)))
          CFI (cfiCond142) V6 load(1, XDATA, add(CFA_XSP16, literal(-8)))
          CFI (cfiCond142) V7 load(1, XDATA, add(CFA_XSP16, literal(-7)))
          CFI (cfiCond142) R7 load(1, XDATA, add(CFA_XSP16, literal(-6)))
          CFI (cfiCond142) ?RET_LOW load(1, XDATA, add(CFA_XSP16, literal(-5)))
          CFI (cfiCond142) ?RET_HIGH load(1, XDATA, add(CFA_XSP16, literal(-4)))
          CFI (cfiCond142) ?BRET_EXT load(1, XDATA, add(CFA_XSP16, literal(-3)))
          CFI (cfiCond142) DPL0 load(1, XDATA, add(CFA_XSP16, literal(-2)))
          CFI (cfiCond142) DPH0 load(1, XDATA, add(CFA_XSP16, literal(-1)))
          CFI (cfiCond142) CFA_SP SP+-2
          CFI (cfiCond142) CFA_XSP16 add(XSP16, 25)
          CFI Block cfiCond143 Using cfiCommon0
          CFI (cfiCond143) Function bdb_ProcessRespondentList
          CFI (cfiCond143) Conditional ??CrossCallReturnLabel_60
          CFI (cfiCond143) R6 load(1, XDATA, add(CFA_XSP16, literal(-16)))
          CFI (cfiCond143) VB load(1, XDATA, add(CFA_XSP16, literal(-15)))
          CFI (cfiCond143) V0 load(1, XDATA, add(CFA_XSP16, literal(-14)))
          CFI (cfiCond143) V1 load(1, XDATA, add(CFA_XSP16, literal(-13)))
          CFI (cfiCond143) V2 load(1, XDATA, add(CFA_XSP16, literal(-12)))
          CFI (cfiCond143) V3 load(1, XDATA, add(CFA_XSP16, literal(-11)))
          CFI (cfiCond143) V4 load(1, XDATA, add(CFA_XSP16, literal(-10)))
          CFI (cfiCond143) V5 load(1, XDATA, add(CFA_XSP16, literal(-9)))
          CFI (cfiCond143) V6 load(1, XDATA, add(CFA_XSP16, literal(-8)))
          CFI (cfiCond143) V7 load(1, XDATA, add(CFA_XSP16, literal(-7)))
          CFI (cfiCond143) R7 load(1, XDATA, add(CFA_XSP16, literal(-6)))
          CFI (cfiCond143) ?RET_LOW load(1, XDATA, add(CFA_XSP16, literal(-5)))
          CFI (cfiCond143) ?RET_HIGH load(1, XDATA, add(CFA_XSP16, literal(-4)))
          CFI (cfiCond143) ?BRET_EXT load(1, XDATA, add(CFA_XSP16, literal(-3)))
          CFI (cfiCond143) DPL0 load(1, XDATA, add(CFA_XSP16, literal(-2)))
          CFI (cfiCond143) DPH0 load(1, XDATA, add(CFA_XSP16, literal(-1)))
          CFI (cfiCond143) CFA_SP SP+-2
          CFI (cfiCond143) CFA_XSP16 add(XSP16, 26)
          CFI Block cfiPicker144 Using cfiCommon1
          CFI (cfiPicker144) NoFunction
          CFI (cfiPicker144) Picker
        INC       DPTR
          CFI EndBlock cfiCond138
          CFI EndBlock cfiCond139
          CFI EndBlock cfiCond140
          CFI EndBlock cfiCond141
          CFI EndBlock cfiCond142
          CFI EndBlock cfiCond143
          CFI EndBlock cfiPicker144
        REQUIRE ??Subroutine44_0
        ; // Fall through to label ??Subroutine44_0

        RSEG BANKED_CODE:HUGECODE:NOROOT(0)
??Subroutine44_0:
          CFI Block cfiCond145 Using cfiCommon0
          CFI Function bdb_setEpDescListToActiveEndpoint
          CFI Conditional ??CrossCallReturnLabel_54
          CFI DPL0 Frame(CFA_SP, 4)
          CFI DPH0 Frame(CFA_SP, 5)
          CFI CFA_SP SP+-7
          CFI Block cfiCond146 Using cfiCommon0
          CFI (cfiCond146) Function bdb_ProcessSimpleDesc
          CFI (cfiCond146) Conditional ??CrossCallReturnLabel_55
          CFI (cfiCond146) R6 load(1, XDATA, add(CFA_XSP16, literal(-9)))
          CFI (cfiCond146) VB load(1, XDATA, add(CFA_XSP16, literal(-8)))
          CFI (cfiCond146) V0 load(1, XDATA, add(CFA_XSP16, literal(-7)))
          CFI (cfiCond146) R7 load(1, XDATA, add(CFA_XSP16, literal(-6)))
          CFI (cfiCond146) ?RET_LOW load(1, XDATA, add(CFA_XSP16, literal(-5)))
          CFI (cfiCond146) ?RET_HIGH load(1, XDATA, add(CFA_XSP16, literal(-4)))
          CFI (cfiCond146) ?BRET_EXT load(1, XDATA, add(CFA_XSP16, literal(-3)))
          CFI (cfiCond146) DPL0 load(1, XDATA, add(CFA_XSP16, literal(-2)))
          CFI (cfiCond146) DPH0 load(1, XDATA, add(CFA_XSP16, literal(-1)))
          CFI (cfiCond146) CFA_SP SP+-2
          CFI (cfiCond146) CFA_XSP16 add(XSP16, 28)
          CFI Block cfiCond147 Using cfiCommon0
          CFI (cfiCond147) Function bdb_ProcessSimpleDesc
          CFI (cfiCond147) Conditional ??CrossCallReturnLabel_56
          CFI (cfiCond147) R6 load(1, XDATA, add(CFA_XSP16, literal(-9)))
          CFI (cfiCond147) VB load(1, XDATA, add(CFA_XSP16, literal(-8)))
          CFI (cfiCond147) V0 load(1, XDATA, add(CFA_XSP16, literal(-7)))
          CFI (cfiCond147) R7 load(1, XDATA, add(CFA_XSP16, literal(-6)))
          CFI (cfiCond147) ?RET_LOW load(1, XDATA, add(CFA_XSP16, literal(-5)))
          CFI (cfiCond147) ?RET_HIGH load(1, XDATA, add(CFA_XSP16, literal(-4)))
          CFI (cfiCond147) ?BRET_EXT load(1, XDATA, add(CFA_XSP16, literal(-3)))
          CFI (cfiCond147) DPL0 load(1, XDATA, add(CFA_XSP16, literal(-2)))
          CFI (cfiCond147) DPH0 load(1, XDATA, add(CFA_XSP16, literal(-1)))
          CFI (cfiCond147) CFA_SP SP+-2
          CFI (cfiCond147) CFA_XSP16 add(XSP16, 28)
          CFI Block cfiCond148 Using cfiCommon0
          CFI (cfiCond148) Function bdb_zclFindingBindingAddBindEntry
          CFI (cfiCond148) Conditional ??CrossCallReturnLabel_57
          CFI (cfiCond148) R6 load(1, XDATA, add(CFA_XSP16, literal(-12)))
          CFI (cfiCond148) VB load(1, XDATA, add(CFA_XSP16, literal(-11)))
          CFI (cfiCond148) V0 load(1, XDATA, add(CFA_XSP16, literal(-10)))
          CFI (cfiCond148) V1 load(1, XDATA, add(CFA_XSP16, literal(-9)))
          CFI (cfiCond148) V2 load(1, XDATA, add(CFA_XSP16, literal(-8)))
          CFI (cfiCond148) V3 load(1, XDATA, add(CFA_XSP16, literal(-7)))
          CFI (cfiCond148) R7 load(1, XDATA, add(CFA_XSP16, literal(-6)))
          CFI (cfiCond148) ?RET_LOW load(1, XDATA, add(CFA_XSP16, literal(-5)))
          CFI (cfiCond148) ?RET_HIGH load(1, XDATA, add(CFA_XSP16, literal(-4)))
          CFI (cfiCond148) ?BRET_EXT load(1, XDATA, add(CFA_XSP16, literal(-3)))
          CFI (cfiCond148) DPL0 load(1, XDATA, add(CFA_XSP16, literal(-2)))
          CFI (cfiCond148) DPH0 load(1, XDATA, add(CFA_XSP16, literal(-1)))
          CFI (cfiCond148) CFA_SP SP+-2
          CFI (cfiCond148) CFA_XSP16 add(XSP16, 16)
          CFI Block cfiCond149 Using cfiCommon0
          CFI (cfiCond149) Function bdb_ProcessRespondentList
          CFI (cfiCond149) Conditional ??CrossCallReturnLabel_58
          CFI (cfiCond149) R6 load(1, XDATA, add(CFA_XSP16, literal(-16)))
          CFI (cfiCond149) VB load(1, XDATA, add(CFA_XSP16, literal(-15)))
          CFI (cfiCond149) V0 load(1, XDATA, add(CFA_XSP16, literal(-14)))
          CFI (cfiCond149) V1 load(1, XDATA, add(CFA_XSP16, literal(-13)))
          CFI (cfiCond149) V2 load(1, XDATA, add(CFA_XSP16, literal(-12)))
          CFI (cfiCond149) V3 load(1, XDATA, add(CFA_XSP16, literal(-11)))
          CFI (cfiCond149) V4 load(1, XDATA, add(CFA_XSP16, literal(-10)))
          CFI (cfiCond149) V5 load(1, XDATA, add(CFA_XSP16, literal(-9)))
          CFI (cfiCond149) V6 load(1, XDATA, add(CFA_XSP16, literal(-8)))
          CFI (cfiCond149) V7 load(1, XDATA, add(CFA_XSP16, literal(-7)))
          CFI (cfiCond149) R7 load(1, XDATA, add(CFA_XSP16, literal(-6)))
          CFI (cfiCond149) ?RET_LOW load(1, XDATA, add(CFA_XSP16, literal(-5)))
          CFI (cfiCond149) ?RET_HIGH load(1, XDATA, add(CFA_XSP16, literal(-4)))
          CFI (cfiCond149) ?BRET_EXT load(1, XDATA, add(CFA_XSP16, literal(-3)))
          CFI (cfiCond149) DPL0 load(1, XDATA, add(CFA_XSP16, literal(-2)))
          CFI (cfiCond149) DPH0 load(1, XDATA, add(CFA_XSP16, literal(-1)))
          CFI (cfiCond149) CFA_SP SP+-2
          CFI (cfiCond149) CFA_XSP16 add(XSP16, 25)
          CFI Block cfiCond150 Using cfiCommon0
          CFI (cfiCond150) Function bdb_ProcessRespondentList
          CFI (cfiCond150) Conditional ??CrossCallReturnLabel_59
          CFI (cfiCond150) R6 load(1, XDATA, add(CFA_XSP16, literal(-16)))
          CFI (cfiCond150) VB load(1, XDATA, add(CFA_XSP16, literal(-15)))
          CFI (cfiCond150) V0 load(1, XDATA, add(CFA_XSP16, literal(-14)))
          CFI (cfiCond150) V1 load(1, XDATA, add(CFA_XSP16, literal(-13)))
          CFI (cfiCond150) V2 load(1, XDATA, add(CFA_XSP16, literal(-12)))
          CFI (cfiCond150) V3 load(1, XDATA, add(CFA_XSP16, literal(-11)))
          CFI (cfiCond150) V4 load(1, XDATA, add(CFA_XSP16, literal(-10)))
          CFI (cfiCond150) V5 load(1, XDATA, add(CFA_XSP16, literal(-9)))
          CFI (cfiCond150) V6 load(1, XDATA, add(CFA_XSP16, literal(-8)))
          CFI (cfiCond150) V7 load(1, XDATA, add(CFA_XSP16, literal(-7)))
          CFI (cfiCond150) R7 load(1, XDATA, add(CFA_XSP16, literal(-6)))
          CFI (cfiCond150) ?RET_LOW load(1, XDATA, add(CFA_XSP16, literal(-5)))
          CFI (cfiCond150) ?RET_HIGH load(1, XDATA, add(CFA_XSP16, literal(-4)))
          CFI (cfiCond150) ?BRET_EXT load(1, XDATA, add(CFA_XSP16, literal(-3)))
          CFI (cfiCond150) DPL0 load(1, XDATA, add(CFA_XSP16, literal(-2)))
          CFI (cfiCond150) DPH0 load(1, XDATA, add(CFA_XSP16, literal(-1)))
          CFI (cfiCond150) CFA_SP SP+-2
          CFI (cfiCond150) CFA_XSP16 add(XSP16, 25)
          CFI Block cfiCond151 Using cfiCommon0
          CFI (cfiCond151) Function bdb_ProcessRespondentList
          CFI (cfiCond151) Conditional ??CrossCallReturnLabel_60
          CFI (cfiCond151) R6 load(1, XDATA, add(CFA_XSP16, literal(-16)))
          CFI (cfiCond151) VB load(1, XDATA, add(CFA_XSP16, literal(-15)))
          CFI (cfiCond151) V0 load(1, XDATA, add(CFA_XSP16, literal(-14)))
          CFI (cfiCond151) V1 load(1, XDATA, add(CFA_XSP16, literal(-13)))
          CFI (cfiCond151) V2 load(1, XDATA, add(CFA_XSP16, literal(-12)))
          CFI (cfiCond151) V3 load(1, XDATA, add(CFA_XSP16, literal(-11)))
          CFI (cfiCond151) V4 load(1, XDATA, add(CFA_XSP16, literal(-10)))
          CFI (cfiCond151) V5 load(1, XDATA, add(CFA_XSP16, literal(-9)))
          CFI (cfiCond151) V6 load(1, XDATA, add(CFA_XSP16, literal(-8)))
          CFI (cfiCond151) V7 load(1, XDATA, add(CFA_XSP16, literal(-7)))
          CFI (cfiCond151) R7 load(1, XDATA, add(CFA_XSP16, literal(-6)))
          CFI (cfiCond151) ?RET_LOW load(1, XDATA, add(CFA_XSP16, literal(-5)))
          CFI (cfiCond151) ?RET_HIGH load(1, XDATA, add(CFA_XSP16, literal(-4)))
          CFI (cfiCond151) ?BRET_EXT load(1, XDATA, add(CFA_XSP16, literal(-3)))
          CFI (cfiCond151) DPL0 load(1, XDATA, add(CFA_XSP16, literal(-2)))
          CFI (cfiCond151) DPH0 load(1, XDATA, add(CFA_XSP16, literal(-1)))
          CFI (cfiCond151) CFA_SP SP+-2
          CFI (cfiCond151) CFA_XSP16 add(XSP16, 26)
          CFI Block cfiPicker152 Using cfiCommon1
          CFI (cfiPicker152) NoFunction
          CFI (cfiPicker152) Picker
        MOVX      A,@DPTR
        MOV       DPH,A
        MOV       DPL,R0
        RET
          CFI EndBlock cfiCond145
          CFI EndBlock cfiCond146
          CFI EndBlock cfiCond147
          CFI EndBlock cfiCond148
          CFI EndBlock cfiCond149
          CFI EndBlock cfiCond150
          CFI EndBlock cfiCond151
          CFI EndBlock cfiPicker152
//  767 
//  768 /*********************************************************************
//  769  * @fn      bdb_exitFindingBindingWStatus
//  770  *
//  771  * @brief   Clean respondent list and reports the status to bdb state machine
//  772  *
//  773  * @return  
//  774  */

        RSEG BANKED_CODE:HUGECODE:NOROOT(0)
//  775 void bdb_exitFindingBindingWStatus( uint8 status )
bdb_exitFindingBindingWStatus:
          CFI Block cfiBlock153 Using cfiCommon0
          CFI Function bdb_exitFindingBindingWStatus
        CODE
//  776 {
        FUNCALL bdb_exitFindingBindingWStatus, bdb_reportCommissioningState
        LOCFRAME ISTACK, 0, STACK
        LOCFRAME PSTACK, 0, STACK
        LOCFRAME XSTACK, 9, STACK
        LOCFRAME IOVERLAY, 0, STATIC
        LOCFRAME DOVERLAY, 0, STATIC
        ARGFRAME ISTACK, 0, STACK
        ARGFRAME PSTACK, 0, STACK
        ARGFRAME XSTACK, 9, STACK
        ARGFRAME IOVERLAY, 0, STATIC
        ARGFRAME DOVERLAY, 0, STATIC
        MOV       A,#-0x9
        LCALL     ?BANKED_ENTER_XDATA
          CFI DPH0 load(1, XDATA, add(CFA_XSP16, literal(-1)))
          CFI DPL0 load(1, XDATA, add(CFA_XSP16, literal(-2)))
          CFI ?BRET_EXT load(1, XDATA, add(CFA_XSP16, literal(-3)))
          CFI ?RET_HIGH load(1, XDATA, add(CFA_XSP16, literal(-4)))
          CFI ?RET_LOW load(1, XDATA, add(CFA_XSP16, literal(-5)))
          CFI R7 load(1, XDATA, add(CFA_XSP16, literal(-6)))
          CFI V0 load(1, XDATA, add(CFA_XSP16, literal(-7)))
          CFI VB load(1, XDATA, add(CFA_XSP16, literal(-8)))
          CFI R6 load(1, XDATA, add(CFA_XSP16, literal(-9)))
          CFI CFA_SP SP+0
          CFI CFA_XSP16 add(XSP16, 9)
        ; Saved register size: 9
        ; Auto size: 0
        MOV       A,R1
//  777   // bdb report status
//  778   bdbAttributes.bdbCommissioningStatus = status;
        MOV       DPTR,#bdbAttributes + 10
        MOVX      @DPTR,A
//  779   
//  780   bdb_reportCommissioningState( BDB_COMMISSIONING_STATE_FINDING_BINDING, TRUE );
        ; Setup parameters for call to function bdb_reportCommissioningState
        MOV       R2,#0x1
        MOV       R1,#0x6
        LCALL     `??bdb_reportCommissioningState::?relay`; Banked call to: bdb_reportCommissioningState
//  781 }
        LJMP      ?Subroutine3 & 0xFFFF
          CFI EndBlock cfiBlock153
//  782 
//  783 /*********************************************************************
//  784  * @fn      bdb_zclSimpleDescClusterListClean
//  785  *
//  786  * @brief   This function free Simple Descriptor cluster lists
//  787  *
//  788  * @param   pSimpleDesc - pointer to simple descriptor
//  789  *
//  790  * @return  status
//  791  */

        RSEG BANKED_CODE:HUGECODE:NOROOT(0)
//  792 static void bdb_zclSimpleDescClusterListClean( SimpleDescriptionFormat_t *pSimpleDesc )
bdb_zclSimpleDescClusterListClean:
          CFI Block cfiBlock154 Using cfiCommon0
          CFI Function bdb_zclSimpleDescClusterListClean
        CODE
//  793 {
        FUNCALL bdb_zclSimpleDescClusterListClean, osal_mem_free
        LOCFRAME ISTACK, 0, STACK
        LOCFRAME PSTACK, 0, STACK
        LOCFRAME XSTACK, 10, STACK
        LOCFRAME IOVERLAY, 0, STATIC
        LOCFRAME DOVERLAY, 0, STATIC
        ARGFRAME ISTACK, 0, STACK
        ARGFRAME PSTACK, 0, STACK
        ARGFRAME XSTACK, 10, STACK
        ARGFRAME IOVERLAY, 0, STATIC
        ARGFRAME DOVERLAY, 0, STATIC
        FUNCALL bdb_zclSimpleDescClusterListClean, osal_mem_free
        LOCFRAME ISTACK, 0, STACK
        LOCFRAME PSTACK, 0, STACK
        LOCFRAME XSTACK, 10, STACK
        LOCFRAME IOVERLAY, 0, STATIC
        LOCFRAME DOVERLAY, 0, STATIC
        ARGFRAME ISTACK, 0, STACK
        ARGFRAME PSTACK, 0, STACK
        ARGFRAME XSTACK, 10, STACK
        ARGFRAME IOVERLAY, 0, STATIC
        ARGFRAME DOVERLAY, 0, STATIC
        REQUIRE ?V0
        REQUIRE ?V1
        MOV       A,#-0xa
        LCALL     ?BANKED_ENTER_XDATA
          CFI DPH0 load(1, XDATA, add(CFA_XSP16, literal(-1)))
          CFI DPL0 load(1, XDATA, add(CFA_XSP16, literal(-2)))
          CFI ?BRET_EXT load(1, XDATA, add(CFA_XSP16, literal(-3)))
          CFI ?RET_HIGH load(1, XDATA, add(CFA_XSP16, literal(-4)))
          CFI ?RET_LOW load(1, XDATA, add(CFA_XSP16, literal(-5)))
          CFI R7 load(1, XDATA, add(CFA_XSP16, literal(-6)))
          CFI V1 load(1, XDATA, add(CFA_XSP16, literal(-7)))
          CFI V0 load(1, XDATA, add(CFA_XSP16, literal(-8)))
          CFI VB load(1, XDATA, add(CFA_XSP16, literal(-9)))
          CFI R6 load(1, XDATA, add(CFA_XSP16, literal(-10)))
          CFI CFA_SP SP+0
          CFI CFA_XSP16 add(XSP16, 10)
        ; Saved register size: 10
        ; Auto size: 0
        MOV       A,R2
        MOV       R6,A
        MOV       A,R3
        MOV       R7,A
//  794   if(pSimpleDesc->pAppInClusterList != NULL)
        MOV       A,R2
        ADD       A,#0x7
        MOV       R0,A
        CLR       A
        ADDC      A,R7
        MOV       ?V0,R0
        MOV       ?V1,A
        MOV       DPL,R0
        MOV       DPH,A
        LCALL     ??Subroutine45_0 & 0xFFFF
??CrossCallReturnLabel_66:
        MOV       A,R2
        ORL       A,R3
        JZ        ??bdb_zclSimpleDescClusterListClean_0
//  795   {
//  796     osal_mem_free( pSimpleDesc->pAppInClusterList );
        ; Setup parameters for call to function osal_mem_free
        LCALL     `??osal_mem_free::?relay`; Banked call to: osal_mem_free
//  797     pSimpleDesc->pAppInClusterList = ( cId_t* )NULL;
        MOV       DPL,?V0
        MOV       DPH,?V1
        CLR       A
        MOVX      @DPTR,A
        INC       DPTR
        MOVX      @DPTR,A
//  798   }
//  799   if(pSimpleDesc->pAppOutClusterList != NULL)
??bdb_zclSimpleDescClusterListClean_0:
        MOV       A,R6
        ADD       A,#0xa
        MOV       R0,A
        CLR       A
        ADDC      A,R7
        MOV       R1,A
        MOV       A,R0
        MOV       R6,A
        MOV       A,R1
        MOV       R7,A
        MOV       DPL,R0
        MOV       DPH,A
        LCALL     ??Subroutine45_0 & 0xFFFF
??CrossCallReturnLabel_67:
        MOV       A,R2
        ORL       A,R3
        JZ        ??bdb_zclSimpleDescClusterListClean_1
//  800   {
//  801     osal_mem_free( pSimpleDesc->pAppOutClusterList );
        ; Setup parameters for call to function osal_mem_free
        LCALL     `??osal_mem_free::?relay`; Banked call to: osal_mem_free
//  802     pSimpleDesc->pAppOutClusterList = ( cId_t* )NULL;
        MOV       DPL,R6
        MOV       DPH,R7
        CLR       A
        MOVX      @DPTR,A
        INC       DPTR
        MOVX      @DPTR,A
//  803   }
//  804 }
??bdb_zclSimpleDescClusterListClean_1:
        SJMP      ??Subroutine46_0
          CFI EndBlock cfiBlock154

        RSEG BANKED_CODE:HUGECODE:NOROOT(0)
?Subroutine14:
          CFI Block cfiCond155 Using cfiCommon0
          CFI Function bdb_zclFindingBindingEpType
          CFI Conditional ??CrossCallReturnLabel_71
          CFI R6 load(1, XDATA, add(CFA_XSP16, literal(-14)))
          CFI VB load(1, XDATA, add(CFA_XSP16, literal(-13)))
          CFI V0 load(1, XDATA, add(CFA_XSP16, literal(-12)))
          CFI V1 load(1, XDATA, add(CFA_XSP16, literal(-11)))
          CFI V2 load(1, XDATA, add(CFA_XSP16, literal(-10)))
          CFI V3 load(1, XDATA, add(CFA_XSP16, literal(-9)))
          CFI V4 load(1, XDATA, add(CFA_XSP16, literal(-8)))
          CFI V5 load(1, XDATA, add(CFA_XSP16, literal(-7)))
          CFI R7 load(1, XDATA, add(CFA_XSP16, literal(-6)))
          CFI ?RET_LOW load(1, XDATA, add(CFA_XSP16, literal(-5)))
          CFI ?RET_HIGH load(1, XDATA, add(CFA_XSP16, literal(-4)))
          CFI ?BRET_EXT load(1, XDATA, add(CFA_XSP16, literal(-3)))
          CFI DPL0 load(1, XDATA, add(CFA_XSP16, literal(-2)))
          CFI DPH0 load(1, XDATA, add(CFA_XSP16, literal(-1)))
          CFI CFA_SP SP+-2
          CFI CFA_XSP16 add(XSP16, 16)
          CFI Block cfiCond156 Using cfiCommon0
          CFI (cfiCond156) Function bdb_zclFindingBindingEpType
          CFI (cfiCond156) Conditional ??CrossCallReturnLabel_72
          CFI (cfiCond156) R6 load(1, XDATA, add(CFA_XSP16, literal(-14)))
          CFI (cfiCond156) VB load(1, XDATA, add(CFA_XSP16, literal(-13)))
          CFI (cfiCond156) V0 load(1, XDATA, add(CFA_XSP16, literal(-12)))
          CFI (cfiCond156) V1 load(1, XDATA, add(CFA_XSP16, literal(-11)))
          CFI (cfiCond156) V2 load(1, XDATA, add(CFA_XSP16, literal(-10)))
          CFI (cfiCond156) V3 load(1, XDATA, add(CFA_XSP16, literal(-9)))
          CFI (cfiCond156) V4 load(1, XDATA, add(CFA_XSP16, literal(-8)))
          CFI (cfiCond156) V5 load(1, XDATA, add(CFA_XSP16, literal(-7)))
          CFI (cfiCond156) R7 load(1, XDATA, add(CFA_XSP16, literal(-6)))
          CFI (cfiCond156) ?RET_LOW load(1, XDATA, add(CFA_XSP16, literal(-5)))
          CFI (cfiCond156) ?RET_HIGH load(1, XDATA, add(CFA_XSP16, literal(-4)))
          CFI (cfiCond156) ?BRET_EXT load(1, XDATA, add(CFA_XSP16, literal(-3)))
          CFI (cfiCond156) DPL0 load(1, XDATA, add(CFA_XSP16, literal(-2)))
          CFI (cfiCond156) DPH0 load(1, XDATA, add(CFA_XSP16, literal(-1)))
          CFI (cfiCond156) CFA_SP SP+-2
          CFI (cfiCond156) CFA_XSP16 add(XSP16, 16)
          CFI Block cfiPicker157 Using cfiCommon1
          CFI (cfiPicker157) NoFunction
          CFI (cfiPicker157) Picker
        INC       DPTR
        INC       DPTR
        INC       DPTR
        INC       DPTR
        INC       DPTR
        INC       DPTR
        INC       DPTR
        INC       DPTR
        INC       DPTR
        INC       DPTR
          CFI EndBlock cfiCond155
          CFI EndBlock cfiCond156
          CFI EndBlock cfiPicker157
        REQUIRE ??Subroutine45_0
        ; // Fall through to label ??Subroutine45_0

        RSEG BANKED_CODE:HUGECODE:NOROOT(0)
??Subroutine45_0:
          CFI Block cfiCond158 Using cfiCommon0
          CFI Function bdb_ProcessIEEEAddrRsp
          CFI Conditional ??CrossCallReturnLabel_61
          CFI R6 load(1, XDATA, add(CFA_XSP16, literal(-10)))
          CFI VB load(1, XDATA, add(CFA_XSP16, literal(-9)))
          CFI V0 load(1, XDATA, add(CFA_XSP16, literal(-8)))
          CFI V1 load(1, XDATA, add(CFA_XSP16, literal(-7)))
          CFI R7 load(1, XDATA, add(CFA_XSP16, literal(-6)))
          CFI ?RET_LOW load(1, XDATA, add(CFA_XSP16, literal(-5)))
          CFI ?RET_HIGH load(1, XDATA, add(CFA_XSP16, literal(-4)))
          CFI ?BRET_EXT load(1, XDATA, add(CFA_XSP16, literal(-3)))
          CFI DPL0 load(1, XDATA, add(CFA_XSP16, literal(-2)))
          CFI DPH0 load(1, XDATA, add(CFA_XSP16, literal(-1)))
          CFI CFA_SP SP+-2
          CFI CFA_XSP16 add(XSP16, 25)
          CFI Block cfiCond159 Using cfiCommon0
          CFI (cfiCond159) Function bdb_ProcessSimpleDesc
          CFI (cfiCond159) Conditional ??CrossCallReturnLabel_62
          CFI (cfiCond159) R6 load(1, XDATA, add(CFA_XSP16, literal(-9)))
          CFI (cfiCond159) VB load(1, XDATA, add(CFA_XSP16, literal(-8)))
          CFI (cfiCond159) V0 load(1, XDATA, add(CFA_XSP16, literal(-7)))
          CFI (cfiCond159) R7 load(1, XDATA, add(CFA_XSP16, literal(-6)))
          CFI (cfiCond159) ?RET_LOW load(1, XDATA, add(CFA_XSP16, literal(-5)))
          CFI (cfiCond159) ?RET_HIGH load(1, XDATA, add(CFA_XSP16, literal(-4)))
          CFI (cfiCond159) ?BRET_EXT load(1, XDATA, add(CFA_XSP16, literal(-3)))
          CFI (cfiCond159) DPL0 load(1, XDATA, add(CFA_XSP16, literal(-2)))
          CFI (cfiCond159) DPH0 load(1, XDATA, add(CFA_XSP16, literal(-1)))
          CFI (cfiCond159) CFA_SP SP+-2
          CFI (cfiCond159) CFA_XSP16 add(XSP16, 28)
          CFI Block cfiCond160 Using cfiCommon0
          CFI (cfiCond160) Function bdb_ProcessSimpleDesc
          CFI (cfiCond160) Conditional ??CrossCallReturnLabel_63
          CFI (cfiCond160) R6 load(1, XDATA, add(CFA_XSP16, literal(-9)))
          CFI (cfiCond160) VB load(1, XDATA, add(CFA_XSP16, literal(-8)))
          CFI (cfiCond160) V0 load(1, XDATA, add(CFA_XSP16, literal(-7)))
          CFI (cfiCond160) R7 load(1, XDATA, add(CFA_XSP16, literal(-6)))
          CFI (cfiCond160) ?RET_LOW load(1, XDATA, add(CFA_XSP16, literal(-5)))
          CFI (cfiCond160) ?RET_HIGH load(1, XDATA, add(CFA_XSP16, literal(-4)))
          CFI (cfiCond160) ?BRET_EXT load(1, XDATA, add(CFA_XSP16, literal(-3)))
          CFI (cfiCond160) DPL0 load(1, XDATA, add(CFA_XSP16, literal(-2)))
          CFI (cfiCond160) DPH0 load(1, XDATA, add(CFA_XSP16, literal(-1)))
          CFI (cfiCond160) CFA_SP SP+-2
          CFI (cfiCond160) CFA_XSP16 add(XSP16, 28)
          CFI Block cfiCond161 Using cfiCommon0
          CFI (cfiCond161) Function bdb_zclFindingBindingAddBindEntry
          CFI (cfiCond161) Conditional ??CrossCallReturnLabel_64
          CFI (cfiCond161) R6 load(1, XDATA, add(CFA_XSP16, literal(-12)))
          CFI (cfiCond161) VB load(1, XDATA, add(CFA_XSP16, literal(-11)))
          CFI (cfiCond161) V0 load(1, XDATA, add(CFA_XSP16, literal(-10)))
          CFI (cfiCond161) V1 load(1, XDATA, add(CFA_XSP16, literal(-9)))
          CFI (cfiCond161) V2 load(1, XDATA, add(CFA_XSP16, literal(-8)))
          CFI (cfiCond161) V3 load(1, XDATA, add(CFA_XSP16, literal(-7)))
          CFI (cfiCond161) R7 load(1, XDATA, add(CFA_XSP16, literal(-6)))
          CFI (cfiCond161) ?RET_LOW load(1, XDATA, add(CFA_XSP16, literal(-5)))
          CFI (cfiCond161) ?RET_HIGH load(1, XDATA, add(CFA_XSP16, literal(-4)))
          CFI (cfiCond161) ?BRET_EXT load(1, XDATA, add(CFA_XSP16, literal(-3)))
          CFI (cfiCond161) DPL0 load(1, XDATA, add(CFA_XSP16, literal(-2)))
          CFI (cfiCond161) DPH0 load(1, XDATA, add(CFA_XSP16, literal(-1)))
          CFI (cfiCond161) CFA_SP SP+-2
          CFI (cfiCond161) CFA_XSP16 add(XSP16, 16)
          CFI Block cfiCond162 Using cfiCommon0
          CFI (cfiCond162) Function bdb_zclFindingBindingAddBindEntry
          CFI (cfiCond162) Conditional ??CrossCallReturnLabel_65
          CFI (cfiCond162) R6 load(1, XDATA, add(CFA_XSP16, literal(-12)))
          CFI (cfiCond162) VB load(1, XDATA, add(CFA_XSP16, literal(-11)))
          CFI (cfiCond162) V0 load(1, XDATA, add(CFA_XSP16, literal(-10)))
          CFI (cfiCond162) V1 load(1, XDATA, add(CFA_XSP16, literal(-9)))
          CFI (cfiCond162) V2 load(1, XDATA, add(CFA_XSP16, literal(-8)))
          CFI (cfiCond162) V3 load(1, XDATA, add(CFA_XSP16, literal(-7)))
          CFI (cfiCond162) R7 load(1, XDATA, add(CFA_XSP16, literal(-6)))
          CFI (cfiCond162) ?RET_LOW load(1, XDATA, add(CFA_XSP16, literal(-5)))
          CFI (cfiCond162) ?RET_HIGH load(1, XDATA, add(CFA_XSP16, literal(-4)))
          CFI (cfiCond162) ?BRET_EXT load(1, XDATA, add(CFA_XSP16, literal(-3)))
          CFI (cfiCond162) DPL0 load(1, XDATA, add(CFA_XSP16, literal(-2)))
          CFI (cfiCond162) DPH0 load(1, XDATA, add(CFA_XSP16, literal(-1)))
          CFI (cfiCond162) CFA_SP SP+-2
          CFI (cfiCond162) CFA_XSP16 add(XSP16, 16)
          CFI Block cfiCond163 Using cfiCommon0
          CFI (cfiCond163) Function bdb_zclSimpleDescClusterListClean
          CFI (cfiCond163) Conditional ??CrossCallReturnLabel_66
          CFI (cfiCond163) R6 load(1, XDATA, add(CFA_XSP16, literal(-10)))
          CFI (cfiCond163) VB load(1, XDATA, add(CFA_XSP16, literal(-9)))
          CFI (cfiCond163) V0 load(1, XDATA, add(CFA_XSP16, literal(-8)))
          CFI (cfiCond163) V1 load(1, XDATA, add(CFA_XSP16, literal(-7)))
          CFI (cfiCond163) R7 load(1, XDATA, add(CFA_XSP16, literal(-6)))
          CFI (cfiCond163) ?RET_LOW load(1, XDATA, add(CFA_XSP16, literal(-5)))
          CFI (cfiCond163) ?RET_HIGH load(1, XDATA, add(CFA_XSP16, literal(-4)))
          CFI (cfiCond163) ?BRET_EXT load(1, XDATA, add(CFA_XSP16, literal(-3)))
          CFI (cfiCond163) DPL0 load(1, XDATA, add(CFA_XSP16, literal(-2)))
          CFI (cfiCond163) DPH0 load(1, XDATA, add(CFA_XSP16, literal(-1)))
          CFI (cfiCond163) CFA_SP SP+-2
          CFI (cfiCond163) CFA_XSP16 add(XSP16, 10)
          CFI Block cfiCond164 Using cfiCommon0
          CFI (cfiCond164) Function bdb_zclSimpleDescClusterListClean
          CFI (cfiCond164) Conditional ??CrossCallReturnLabel_67
          CFI (cfiCond164) R6 load(1, XDATA, add(CFA_XSP16, literal(-10)))
          CFI (cfiCond164) VB load(1, XDATA, add(CFA_XSP16, literal(-9)))
          CFI (cfiCond164) V0 load(1, XDATA, add(CFA_XSP16, literal(-8)))
          CFI (cfiCond164) V1 load(1, XDATA, add(CFA_XSP16, literal(-7)))
          CFI (cfiCond164) R7 load(1, XDATA, add(CFA_XSP16, literal(-6)))
          CFI (cfiCond164) ?RET_LOW load(1, XDATA, add(CFA_XSP16, literal(-5)))
          CFI (cfiCond164) ?RET_HIGH load(1, XDATA, add(CFA_XSP16, literal(-4)))
          CFI (cfiCond164) ?BRET_EXT load(1, XDATA, add(CFA_XSP16, literal(-3)))
          CFI (cfiCond164) DPL0 load(1, XDATA, add(CFA_XSP16, literal(-2)))
          CFI (cfiCond164) DPH0 load(1, XDATA, add(CFA_XSP16, literal(-1)))
          CFI (cfiCond164) CFA_SP SP+-2
          CFI (cfiCond164) CFA_XSP16 add(XSP16, 10)
          CFI Block cfiCond165 Using cfiCommon0
          CFI (cfiCond165) Function bdb_ProcessRespondentList
          CFI (cfiCond165) Conditional ??CrossCallReturnLabel_68
          CFI (cfiCond165) R6 load(1, XDATA, add(CFA_XSP16, literal(-16)))
          CFI (cfiCond165) VB load(1, XDATA, add(CFA_XSP16, literal(-15)))
          CFI (cfiCond165) V0 load(1, XDATA, add(CFA_XSP16, literal(-14)))
          CFI (cfiCond165) V1 load(1, XDATA, add(CFA_XSP16, literal(-13)))
          CFI (cfiCond165) V2 load(1, XDATA, add(CFA_XSP16, literal(-12)))
          CFI (cfiCond165) V3 load(1, XDATA, add(CFA_XSP16, literal(-11)))
          CFI (cfiCond165) V4 load(1, XDATA, add(CFA_XSP16, literal(-10)))
          CFI (cfiCond165) V5 load(1, XDATA, add(CFA_XSP16, literal(-9)))
          CFI (cfiCond165) V6 load(1, XDATA, add(CFA_XSP16, literal(-8)))
          CFI (cfiCond165) V7 load(1, XDATA, add(CFA_XSP16, literal(-7)))
          CFI (cfiCond165) R7 load(1, XDATA, add(CFA_XSP16, literal(-6)))
          CFI (cfiCond165) ?RET_LOW load(1, XDATA, add(CFA_XSP16, literal(-5)))
          CFI (cfiCond165) ?RET_HIGH load(1, XDATA, add(CFA_XSP16, literal(-4)))
          CFI (cfiCond165) ?BRET_EXT load(1, XDATA, add(CFA_XSP16, literal(-3)))
          CFI (cfiCond165) DPL0 load(1, XDATA, add(CFA_XSP16, literal(-2)))
          CFI (cfiCond165) DPH0 load(1, XDATA, add(CFA_XSP16, literal(-1)))
          CFI (cfiCond165) CFA_SP SP+-2
          CFI (cfiCond165) CFA_XSP16 add(XSP16, 25)
          CFI Block cfiCond166 Using cfiCommon0
          CFI (cfiCond166) Function bdb_ProcessRespondentList
          CFI (cfiCond166) Conditional ??CrossCallReturnLabel_69
          CFI (cfiCond166) R6 load(1, XDATA, add(CFA_XSP16, literal(-16)))
          CFI (cfiCond166) VB load(1, XDATA, add(CFA_XSP16, literal(-15)))
          CFI (cfiCond166) V0 load(1, XDATA, add(CFA_XSP16, literal(-14)))
          CFI (cfiCond166) V1 load(1, XDATA, add(CFA_XSP16, literal(-13)))
          CFI (cfiCond166) V2 load(1, XDATA, add(CFA_XSP16, literal(-12)))
          CFI (cfiCond166) V3 load(1, XDATA, add(CFA_XSP16, literal(-11)))
          CFI (cfiCond166) V4 load(1, XDATA, add(CFA_XSP16, literal(-10)))
          CFI (cfiCond166) V5 load(1, XDATA, add(CFA_XSP16, literal(-9)))
          CFI (cfiCond166) V6 load(1, XDATA, add(CFA_XSP16, literal(-8)))
          CFI (cfiCond166) V7 load(1, XDATA, add(CFA_XSP16, literal(-7)))
          CFI (cfiCond166) R7 load(1, XDATA, add(CFA_XSP16, literal(-6)))
          CFI (cfiCond166) ?RET_LOW load(1, XDATA, add(CFA_XSP16, literal(-5)))
          CFI (cfiCond166) ?RET_HIGH load(1, XDATA, add(CFA_XSP16, literal(-4)))
          CFI (cfiCond166) ?BRET_EXT load(1, XDATA, add(CFA_XSP16, literal(-3)))
          CFI (cfiCond166) DPL0 load(1, XDATA, add(CFA_XSP16, literal(-2)))
          CFI (cfiCond166) DPH0 load(1, XDATA, add(CFA_XSP16, literal(-1)))
          CFI (cfiCond166) CFA_SP SP+-2
          CFI (cfiCond166) CFA_XSP16 add(XSP16, 25)
          CFI Block cfiCond167 Using cfiCommon0
          CFI (cfiCond167) Function bdb_getRespondentRetry
          CFI (cfiCond167) Conditional ??CrossCallReturnLabel_70
          CFI (cfiCond167) DPL0 Frame(CFA_SP, 4)
          CFI (cfiCond167) DPH0 Frame(CFA_SP, 5)
          CFI (cfiCond167) CFA_SP SP+-7
          CFI Block cfiCond168 Using cfiCommon0
          CFI (cfiCond168) Function bdb_zclFindingBindingEpType
          CFI (cfiCond168) Conditional ??CrossCallReturnLabel_71
          CFI (cfiCond168) R6 load(1, XDATA, add(CFA_XSP16, literal(-14)))
          CFI (cfiCond168) VB load(1, XDATA, add(CFA_XSP16, literal(-13)))
          CFI (cfiCond168) V0 load(1, XDATA, add(CFA_XSP16, literal(-12)))
          CFI (cfiCond168) V1 load(1, XDATA, add(CFA_XSP16, literal(-11)))
          CFI (cfiCond168) V2 load(1, XDATA, add(CFA_XSP16, literal(-10)))
          CFI (cfiCond168) V3 load(1, XDATA, add(CFA_XSP16, literal(-9)))
          CFI (cfiCond168) V4 load(1, XDATA, add(CFA_XSP16, literal(-8)))
          CFI (cfiCond168) V5 load(1, XDATA, add(CFA_XSP16, literal(-7)))
          CFI (cfiCond168) R7 load(1, XDATA, add(CFA_XSP16, literal(-6)))
          CFI (cfiCond168) ?RET_LOW load(1, XDATA, add(CFA_XSP16, literal(-5)))
          CFI (cfiCond168) ?RET_HIGH load(1, XDATA, add(CFA_XSP16, literal(-4)))
          CFI (cfiCond168) ?BRET_EXT load(1, XDATA, add(CFA_XSP16, literal(-3)))
          CFI (cfiCond168) DPL0 load(1, XDATA, add(CFA_XSP16, literal(-2)))
          CFI (cfiCond168) DPH0 load(1, XDATA, add(CFA_XSP16, literal(-1)))
          CFI (cfiCond168) CFA_SP SP+-2
          CFI (cfiCond168) CFA_XSP16 add(XSP16, 16)
          CFI Block cfiCond169 Using cfiCommon0
          CFI (cfiCond169) Function bdb_zclFindingBindingEpType
          CFI (cfiCond169) Conditional ??CrossCallReturnLabel_72
          CFI (cfiCond169) R6 load(1, XDATA, add(CFA_XSP16, literal(-14)))
          CFI (cfiCond169) VB load(1, XDATA, add(CFA_XSP16, literal(-13)))
          CFI (cfiCond169) V0 load(1, XDATA, add(CFA_XSP16, literal(-12)))
          CFI (cfiCond169) V1 load(1, XDATA, add(CFA_XSP16, literal(-11)))
          CFI (cfiCond169) V2 load(1, XDATA, add(CFA_XSP16, literal(-10)))
          CFI (cfiCond169) V3 load(1, XDATA, add(CFA_XSP16, literal(-9)))
          CFI (cfiCond169) V4 load(1, XDATA, add(CFA_XSP16, literal(-8)))
          CFI (cfiCond169) V5 load(1, XDATA, add(CFA_XSP16, literal(-7)))
          CFI (cfiCond169) R7 load(1, XDATA, add(CFA_XSP16, literal(-6)))
          CFI (cfiCond169) ?RET_LOW load(1, XDATA, add(CFA_XSP16, literal(-5)))
          CFI (cfiCond169) ?RET_HIGH load(1, XDATA, add(CFA_XSP16, literal(-4)))
          CFI (cfiCond169) ?BRET_EXT load(1, XDATA, add(CFA_XSP16, literal(-3)))
          CFI (cfiCond169) DPL0 load(1, XDATA, add(CFA_XSP16, literal(-2)))
          CFI (cfiCond169) DPH0 load(1, XDATA, add(CFA_XSP16, literal(-1)))
          CFI (cfiCond169) CFA_SP SP+-2
          CFI (cfiCond169) CFA_XSP16 add(XSP16, 16)
          CFI Block cfiPicker170 Using cfiCommon1
          CFI (cfiPicker170) NoFunction
          CFI (cfiPicker170) Picker
        LCALL     ?Subroutine29 & 0xFFFF
??CrossCallReturnLabel_76:
        RET
          CFI EndBlock cfiCond158
          CFI EndBlock cfiCond159
          CFI EndBlock cfiCond160
          CFI EndBlock cfiCond161
          CFI EndBlock cfiCond162
          CFI EndBlock cfiCond163
          CFI EndBlock cfiCond164
          CFI EndBlock cfiCond165
          CFI EndBlock cfiCond166
          CFI EndBlock cfiCond167
          CFI EndBlock cfiCond168
          CFI EndBlock cfiCond169
          CFI EndBlock cfiPicker170

        RSEG BANKED_CODE:HUGECODE:NOROOT(0)
?Subroutine29:
          CFI Block cfiCond171 Using cfiCommon0
          CFI Function bdb_checkMatchingEndpoints
          CFI Conditional ??CrossCallReturnLabel_75, ??CrossCallReturnLabel_16
          CFI R6 load(1, XDATA, add(CFA_XSP16, literal(-20)))
          CFI VB load(1, XDATA, add(CFA_XSP16, literal(-19)))
          CFI V0 load(1, XDATA, add(CFA_XSP16, literal(-18)))
          CFI V1 load(1, XDATA, add(CFA_XSP16, literal(-17)))
          CFI V2 load(1, XDATA, add(CFA_XSP16, literal(-16)))
          CFI V3 load(1, XDATA, add(CFA_XSP16, literal(-15)))
          CFI V4 load(1, XDATA, add(CFA_XSP16, literal(-14)))
          CFI V5 load(1, XDATA, add(CFA_XSP16, literal(-13)))
          CFI V6 load(1, XDATA, add(CFA_XSP16, literal(-12)))
          CFI V7 load(1, XDATA, add(CFA_XSP16, literal(-11)))
          CFI V8 load(1, XDATA, add(CFA_XSP16, literal(-10)))
          CFI V9 load(1, XDATA, add(CFA_XSP16, literal(-9)))
          CFI V10 load(1, XDATA, add(CFA_XSP16, literal(-8)))
          CFI V11 load(1, XDATA, add(CFA_XSP16, literal(-7)))
          CFI R7 load(1, XDATA, add(CFA_XSP16, literal(-6)))
          CFI ?RET_LOW load(1, XDATA, add(CFA_XSP16, literal(-5)))
          CFI ?RET_HIGH load(1, XDATA, add(CFA_XSP16, literal(-4)))
          CFI ?BRET_EXT load(1, XDATA, add(CFA_XSP16, literal(-3)))
          CFI DPL0 load(1, XDATA, add(CFA_XSP16, literal(-2)))
          CFI DPH0 load(1, XDATA, add(CFA_XSP16, literal(-1)))
          CFI CFA_SP SP+-4
          CFI CFA_XSP16 add(XSP16, 29)
          CFI Block cfiCond172 Using cfiCommon0
          CFI (cfiCond172) Function bdb_checkMatchingEndpoints
          CFI (cfiCond172) Conditional ??CrossCallReturnLabel_75, ??CrossCallReturnLabel_17
          CFI (cfiCond172) R6 load(1, XDATA, add(CFA_XSP16, literal(-20)))
          CFI (cfiCond172) VB load(1, XDATA, add(CFA_XSP16, literal(-19)))
          CFI (cfiCond172) V0 load(1, XDATA, add(CFA_XSP16, literal(-18)))
          CFI (cfiCond172) V1 load(1, XDATA, add(CFA_XSP16, literal(-17)))
          CFI (cfiCond172) V2 load(1, XDATA, add(CFA_XSP16, literal(-16)))
          CFI (cfiCond172) V3 load(1, XDATA, add(CFA_XSP16, literal(-15)))
          CFI (cfiCond172) V4 load(1, XDATA, add(CFA_XSP16, literal(-14)))
          CFI (cfiCond172) V5 load(1, XDATA, add(CFA_XSP16, literal(-13)))
          CFI (cfiCond172) V6 load(1, XDATA, add(CFA_XSP16, literal(-12)))
          CFI (cfiCond172) V7 load(1, XDATA, add(CFA_XSP16, literal(-11)))
          CFI (cfiCond172) V8 load(1, XDATA, add(CFA_XSP16, literal(-10)))
          CFI (cfiCond172) V9 load(1, XDATA, add(CFA_XSP16, literal(-9)))
          CFI (cfiCond172) V10 load(1, XDATA, add(CFA_XSP16, literal(-8)))
          CFI (cfiCond172) V11 load(1, XDATA, add(CFA_XSP16, literal(-7)))
          CFI (cfiCond172) R7 load(1, XDATA, add(CFA_XSP16, literal(-6)))
          CFI (cfiCond172) ?RET_LOW load(1, XDATA, add(CFA_XSP16, literal(-5)))
          CFI (cfiCond172) ?RET_HIGH load(1, XDATA, add(CFA_XSP16, literal(-4)))
          CFI (cfiCond172) ?BRET_EXT load(1, XDATA, add(CFA_XSP16, literal(-3)))
          CFI (cfiCond172) DPL0 load(1, XDATA, add(CFA_XSP16, literal(-2)))
          CFI (cfiCond172) DPH0 load(1, XDATA, add(CFA_XSP16, literal(-1)))
          CFI (cfiCond172) CFA_SP SP+-4
          CFI (cfiCond172) CFA_XSP16 add(XSP16, 29)
          CFI Block cfiCond173 Using cfiCommon0
          CFI (cfiCond173) Function bdb_zclFindingBindingEpType
          CFI (cfiCond173) Conditional ??CrossCallReturnLabel_76, ??CrossCallReturnLabel_71
          CFI (cfiCond173) R6 load(1, XDATA, add(CFA_XSP16, literal(-14)))
          CFI (cfiCond173) VB load(1, XDATA, add(CFA_XSP16, literal(-13)))
          CFI (cfiCond173) V0 load(1, XDATA, add(CFA_XSP16, literal(-12)))
          CFI (cfiCond173) V1 load(1, XDATA, add(CFA_XSP16, literal(-11)))
          CFI (cfiCond173) V2 load(1, XDATA, add(CFA_XSP16, literal(-10)))
          CFI (cfiCond173) V3 load(1, XDATA, add(CFA_XSP16, literal(-9)))
          CFI (cfiCond173) V4 load(1, XDATA, add(CFA_XSP16, literal(-8)))
          CFI (cfiCond173) V5 load(1, XDATA, add(CFA_XSP16, literal(-7)))
          CFI (cfiCond173) R7 load(1, XDATA, add(CFA_XSP16, literal(-6)))
          CFI (cfiCond173) ?RET_LOW load(1, XDATA, add(CFA_XSP16, literal(-5)))
          CFI (cfiCond173) ?RET_HIGH load(1, XDATA, add(CFA_XSP16, literal(-4)))
          CFI (cfiCond173) ?BRET_EXT load(1, XDATA, add(CFA_XSP16, literal(-3)))
          CFI (cfiCond173) DPL0 load(1, XDATA, add(CFA_XSP16, literal(-2)))
          CFI (cfiCond173) DPH0 load(1, XDATA, add(CFA_XSP16, literal(-1)))
          CFI (cfiCond173) CFA_SP SP+-4
          CFI (cfiCond173) CFA_XSP16 add(XSP16, 16)
          CFI Block cfiCond174 Using cfiCommon0
          CFI (cfiCond174) Function bdb_zclFindingBindingEpType
          CFI (cfiCond174) Conditional ??CrossCallReturnLabel_76, ??CrossCallReturnLabel_72
          CFI (cfiCond174) R6 load(1, XDATA, add(CFA_XSP16, literal(-14)))
          CFI (cfiCond174) VB load(1, XDATA, add(CFA_XSP16, literal(-13)))
          CFI (cfiCond174) V0 load(1, XDATA, add(CFA_XSP16, literal(-12)))
          CFI (cfiCond174) V1 load(1, XDATA, add(CFA_XSP16, literal(-11)))
          CFI (cfiCond174) V2 load(1, XDATA, add(CFA_XSP16, literal(-10)))
          CFI (cfiCond174) V3 load(1, XDATA, add(CFA_XSP16, literal(-9)))
          CFI (cfiCond174) V4 load(1, XDATA, add(CFA_XSP16, literal(-8)))
          CFI (cfiCond174) V5 load(1, XDATA, add(CFA_XSP16, literal(-7)))
          CFI (cfiCond174) R7 load(1, XDATA, add(CFA_XSP16, literal(-6)))
          CFI (cfiCond174) ?RET_LOW load(1, XDATA, add(CFA_XSP16, literal(-5)))
          CFI (cfiCond174) ?RET_HIGH load(1, XDATA, add(CFA_XSP16, literal(-4)))
          CFI (cfiCond174) ?BRET_EXT load(1, XDATA, add(CFA_XSP16, literal(-3)))
          CFI (cfiCond174) DPL0 load(1, XDATA, add(CFA_XSP16, literal(-2)))
          CFI (cfiCond174) DPH0 load(1, XDATA, add(CFA_XSP16, literal(-1)))
          CFI (cfiCond174) CFA_SP SP+-4
          CFI (cfiCond174) CFA_XSP16 add(XSP16, 16)
          CFI Block cfiCond175 Using cfiCommon0
          CFI (cfiCond175) Function bdb_ProcessIEEEAddrRsp
          CFI (cfiCond175) Conditional ??CrossCallReturnLabel_76, ??CrossCallReturnLabel_61
          CFI (cfiCond175) R6 load(1, XDATA, add(CFA_XSP16, literal(-10)))
          CFI (cfiCond175) VB load(1, XDATA, add(CFA_XSP16, literal(-9)))
          CFI (cfiCond175) V0 load(1, XDATA, add(CFA_XSP16, literal(-8)))
          CFI (cfiCond175) V1 load(1, XDATA, add(CFA_XSP16, literal(-7)))
          CFI (cfiCond175) R7 load(1, XDATA, add(CFA_XSP16, literal(-6)))
          CFI (cfiCond175) ?RET_LOW load(1, XDATA, add(CFA_XSP16, literal(-5)))
          CFI (cfiCond175) ?RET_HIGH load(1, XDATA, add(CFA_XSP16, literal(-4)))
          CFI (cfiCond175) ?BRET_EXT load(1, XDATA, add(CFA_XSP16, literal(-3)))
          CFI (cfiCond175) DPL0 load(1, XDATA, add(CFA_XSP16, literal(-2)))
          CFI (cfiCond175) DPH0 load(1, XDATA, add(CFA_XSP16, literal(-1)))
          CFI (cfiCond175) CFA_SP SP+-4
          CFI (cfiCond175) CFA_XSP16 add(XSP16, 25)
          CFI Block cfiCond176 Using cfiCommon0
          CFI (cfiCond176) Function bdb_ProcessSimpleDesc
          CFI (cfiCond176) Conditional ??CrossCallReturnLabel_76, ??CrossCallReturnLabel_62
          CFI (cfiCond176) R6 load(1, XDATA, add(CFA_XSP16, literal(-9)))
          CFI (cfiCond176) VB load(1, XDATA, add(CFA_XSP16, literal(-8)))
          CFI (cfiCond176) V0 load(1, XDATA, add(CFA_XSP16, literal(-7)))
          CFI (cfiCond176) R7 load(1, XDATA, add(CFA_XSP16, literal(-6)))
          CFI (cfiCond176) ?RET_LOW load(1, XDATA, add(CFA_XSP16, literal(-5)))
          CFI (cfiCond176) ?RET_HIGH load(1, XDATA, add(CFA_XSP16, literal(-4)))
          CFI (cfiCond176) ?BRET_EXT load(1, XDATA, add(CFA_XSP16, literal(-3)))
          CFI (cfiCond176) DPL0 load(1, XDATA, add(CFA_XSP16, literal(-2)))
          CFI (cfiCond176) DPH0 load(1, XDATA, add(CFA_XSP16, literal(-1)))
          CFI (cfiCond176) CFA_SP SP+-4
          CFI (cfiCond176) CFA_XSP16 add(XSP16, 28)
          CFI Block cfiCond177 Using cfiCommon0
          CFI (cfiCond177) Function bdb_ProcessSimpleDesc
          CFI (cfiCond177) Conditional ??CrossCallReturnLabel_76, ??CrossCallReturnLabel_63
          CFI (cfiCond177) R6 load(1, XDATA, add(CFA_XSP16, literal(-9)))
          CFI (cfiCond177) VB load(1, XDATA, add(CFA_XSP16, literal(-8)))
          CFI (cfiCond177) V0 load(1, XDATA, add(CFA_XSP16, literal(-7)))
          CFI (cfiCond177) R7 load(1, XDATA, add(CFA_XSP16, literal(-6)))
          CFI (cfiCond177) ?RET_LOW load(1, XDATA, add(CFA_XSP16, literal(-5)))
          CFI (cfiCond177) ?RET_HIGH load(1, XDATA, add(CFA_XSP16, literal(-4)))
          CFI (cfiCond177) ?BRET_EXT load(1, XDATA, add(CFA_XSP16, literal(-3)))
          CFI (cfiCond177) DPL0 load(1, XDATA, add(CFA_XSP16, literal(-2)))
          CFI (cfiCond177) DPH0 load(1, XDATA, add(CFA_XSP16, literal(-1)))
          CFI (cfiCond177) CFA_SP SP+-4
          CFI (cfiCond177) CFA_XSP16 add(XSP16, 28)
          CFI Block cfiCond178 Using cfiCommon0
          CFI (cfiCond178) Function bdb_zclFindingBindingAddBindEntry
          CFI (cfiCond178) Conditional ??CrossCallReturnLabel_76, ??CrossCallReturnLabel_64
          CFI (cfiCond178) R6 load(1, XDATA, add(CFA_XSP16, literal(-12)))
          CFI (cfiCond178) VB load(1, XDATA, add(CFA_XSP16, literal(-11)))
          CFI (cfiCond178) V0 load(1, XDATA, add(CFA_XSP16, literal(-10)))
          CFI (cfiCond178) V1 load(1, XDATA, add(CFA_XSP16, literal(-9)))
          CFI (cfiCond178) V2 load(1, XDATA, add(CFA_XSP16, literal(-8)))
          CFI (cfiCond178) V3 load(1, XDATA, add(CFA_XSP16, literal(-7)))
          CFI (cfiCond178) R7 load(1, XDATA, add(CFA_XSP16, literal(-6)))
          CFI (cfiCond178) ?RET_LOW load(1, XDATA, add(CFA_XSP16, literal(-5)))
          CFI (cfiCond178) ?RET_HIGH load(1, XDATA, add(CFA_XSP16, literal(-4)))
          CFI (cfiCond178) ?BRET_EXT load(1, XDATA, add(CFA_XSP16, literal(-3)))
          CFI (cfiCond178) DPL0 load(1, XDATA, add(CFA_XSP16, literal(-2)))
          CFI (cfiCond178) DPH0 load(1, XDATA, add(CFA_XSP16, literal(-1)))
          CFI (cfiCond178) CFA_SP SP+-4
          CFI (cfiCond178) CFA_XSP16 add(XSP16, 16)
          CFI Block cfiCond179 Using cfiCommon0
          CFI (cfiCond179) Function bdb_zclFindingBindingAddBindEntry
          CFI (cfiCond179) Conditional ??CrossCallReturnLabel_76, ??CrossCallReturnLabel_65
          CFI (cfiCond179) R6 load(1, XDATA, add(CFA_XSP16, literal(-12)))
          CFI (cfiCond179) VB load(1, XDATA, add(CFA_XSP16, literal(-11)))
          CFI (cfiCond179) V0 load(1, XDATA, add(CFA_XSP16, literal(-10)))
          CFI (cfiCond179) V1 load(1, XDATA, add(CFA_XSP16, literal(-9)))
          CFI (cfiCond179) V2 load(1, XDATA, add(CFA_XSP16, literal(-8)))
          CFI (cfiCond179) V3 load(1, XDATA, add(CFA_XSP16, literal(-7)))
          CFI (cfiCond179) R7 load(1, XDATA, add(CFA_XSP16, literal(-6)))
          CFI (cfiCond179) ?RET_LOW load(1, XDATA, add(CFA_XSP16, literal(-5)))
          CFI (cfiCond179) ?RET_HIGH load(1, XDATA, add(CFA_XSP16, literal(-4)))
          CFI (cfiCond179) ?BRET_EXT load(1, XDATA, add(CFA_XSP16, literal(-3)))
          CFI (cfiCond179) DPL0 load(1, XDATA, add(CFA_XSP16, literal(-2)))
          CFI (cfiCond179) DPH0 load(1, XDATA, add(CFA_XSP16, literal(-1)))
          CFI (cfiCond179) CFA_SP SP+-4
          CFI (cfiCond179) CFA_XSP16 add(XSP16, 16)
          CFI Block cfiCond180 Using cfiCommon0
          CFI (cfiCond180) Function bdb_zclSimpleDescClusterListClean
          CFI (cfiCond180) Conditional ??CrossCallReturnLabel_76, ??CrossCallReturnLabel_66
          CFI (cfiCond180) R6 load(1, XDATA, add(CFA_XSP16, literal(-10)))
          CFI (cfiCond180) VB load(1, XDATA, add(CFA_XSP16, literal(-9)))
          CFI (cfiCond180) V0 load(1, XDATA, add(CFA_XSP16, literal(-8)))
          CFI (cfiCond180) V1 load(1, XDATA, add(CFA_XSP16, literal(-7)))
          CFI (cfiCond180) R7 load(1, XDATA, add(CFA_XSP16, literal(-6)))
          CFI (cfiCond180) ?RET_LOW load(1, XDATA, add(CFA_XSP16, literal(-5)))
          CFI (cfiCond180) ?RET_HIGH load(1, XDATA, add(CFA_XSP16, literal(-4)))
          CFI (cfiCond180) ?BRET_EXT load(1, XDATA, add(CFA_XSP16, literal(-3)))
          CFI (cfiCond180) DPL0 load(1, XDATA, add(CFA_XSP16, literal(-2)))
          CFI (cfiCond180) DPH0 load(1, XDATA, add(CFA_XSP16, literal(-1)))
          CFI (cfiCond180) CFA_SP SP+-4
          CFI (cfiCond180) CFA_XSP16 add(XSP16, 10)
          CFI Block cfiCond181 Using cfiCommon0
          CFI (cfiCond181) Function bdb_zclSimpleDescClusterListClean
          CFI (cfiCond181) Conditional ??CrossCallReturnLabel_76, ??CrossCallReturnLabel_67
          CFI (cfiCond181) R6 load(1, XDATA, add(CFA_XSP16, literal(-10)))
          CFI (cfiCond181) VB load(1, XDATA, add(CFA_XSP16, literal(-9)))
          CFI (cfiCond181) V0 load(1, XDATA, add(CFA_XSP16, literal(-8)))
          CFI (cfiCond181) V1 load(1, XDATA, add(CFA_XSP16, literal(-7)))
          CFI (cfiCond181) R7 load(1, XDATA, add(CFA_XSP16, literal(-6)))
          CFI (cfiCond181) ?RET_LOW load(1, XDATA, add(CFA_XSP16, literal(-5)))
          CFI (cfiCond181) ?RET_HIGH load(1, XDATA, add(CFA_XSP16, literal(-4)))
          CFI (cfiCond181) ?BRET_EXT load(1, XDATA, add(CFA_XSP16, literal(-3)))
          CFI (cfiCond181) DPL0 load(1, XDATA, add(CFA_XSP16, literal(-2)))
          CFI (cfiCond181) DPH0 load(1, XDATA, add(CFA_XSP16, literal(-1)))
          CFI (cfiCond181) CFA_SP SP+-4
          CFI (cfiCond181) CFA_XSP16 add(XSP16, 10)
          CFI Block cfiCond182 Using cfiCommon0
          CFI (cfiCond182) Function bdb_ProcessRespondentList
          CFI (cfiCond182) Conditional ??CrossCallReturnLabel_76, ??CrossCallReturnLabel_68
          CFI (cfiCond182) R6 load(1, XDATA, add(CFA_XSP16, literal(-16)))
          CFI (cfiCond182) VB load(1, XDATA, add(CFA_XSP16, literal(-15)))
          CFI (cfiCond182) V0 load(1, XDATA, add(CFA_XSP16, literal(-14)))
          CFI (cfiCond182) V1 load(1, XDATA, add(CFA_XSP16, literal(-13)))
          CFI (cfiCond182) V2 load(1, XDATA, add(CFA_XSP16, literal(-12)))
          CFI (cfiCond182) V3 load(1, XDATA, add(CFA_XSP16, literal(-11)))
          CFI (cfiCond182) V4 load(1, XDATA, add(CFA_XSP16, literal(-10)))
          CFI (cfiCond182) V5 load(1, XDATA, add(CFA_XSP16, literal(-9)))
          CFI (cfiCond182) V6 load(1, XDATA, add(CFA_XSP16, literal(-8)))
          CFI (cfiCond182) V7 load(1, XDATA, add(CFA_XSP16, literal(-7)))
          CFI (cfiCond182) R7 load(1, XDATA, add(CFA_XSP16, literal(-6)))
          CFI (cfiCond182) ?RET_LOW load(1, XDATA, add(CFA_XSP16, literal(-5)))
          CFI (cfiCond182) ?RET_HIGH load(1, XDATA, add(CFA_XSP16, literal(-4)))
          CFI (cfiCond182) ?BRET_EXT load(1, XDATA, add(CFA_XSP16, literal(-3)))
          CFI (cfiCond182) DPL0 load(1, XDATA, add(CFA_XSP16, literal(-2)))
          CFI (cfiCond182) DPH0 load(1, XDATA, add(CFA_XSP16, literal(-1)))
          CFI (cfiCond182) CFA_SP SP+-4
          CFI (cfiCond182) CFA_XSP16 add(XSP16, 25)
          CFI Block cfiCond183 Using cfiCommon0
          CFI (cfiCond183) Function bdb_ProcessRespondentList
          CFI (cfiCond183) Conditional ??CrossCallReturnLabel_76, ??CrossCallReturnLabel_69
          CFI (cfiCond183) R6 load(1, XDATA, add(CFA_XSP16, literal(-16)))
          CFI (cfiCond183) VB load(1, XDATA, add(CFA_XSP16, literal(-15)))
          CFI (cfiCond183) V0 load(1, XDATA, add(CFA_XSP16, literal(-14)))
          CFI (cfiCond183) V1 load(1, XDATA, add(CFA_XSP16, literal(-13)))
          CFI (cfiCond183) V2 load(1, XDATA, add(CFA_XSP16, literal(-12)))
          CFI (cfiCond183) V3 load(1, XDATA, add(CFA_XSP16, literal(-11)))
          CFI (cfiCond183) V4 load(1, XDATA, add(CFA_XSP16, literal(-10)))
          CFI (cfiCond183) V5 load(1, XDATA, add(CFA_XSP16, literal(-9)))
          CFI (cfiCond183) V6 load(1, XDATA, add(CFA_XSP16, literal(-8)))
          CFI (cfiCond183) V7 load(1, XDATA, add(CFA_XSP16, literal(-7)))
          CFI (cfiCond183) R7 load(1, XDATA, add(CFA_XSP16, literal(-6)))
          CFI (cfiCond183) ?RET_LOW load(1, XDATA, add(CFA_XSP16, literal(-5)))
          CFI (cfiCond183) ?RET_HIGH load(1, XDATA, add(CFA_XSP16, literal(-4)))
          CFI (cfiCond183) ?BRET_EXT load(1, XDATA, add(CFA_XSP16, literal(-3)))
          CFI (cfiCond183) DPL0 load(1, XDATA, add(CFA_XSP16, literal(-2)))
          CFI (cfiCond183) DPH0 load(1, XDATA, add(CFA_XSP16, literal(-1)))
          CFI (cfiCond183) CFA_SP SP+-4
          CFI (cfiCond183) CFA_XSP16 add(XSP16, 25)
          CFI Block cfiCond184 Using cfiCommon0
          CFI (cfiCond184) Function bdb_getRespondentRetry
          CFI (cfiCond184) Conditional ??CrossCallReturnLabel_76, ??CrossCallReturnLabel_70
          CFI (cfiCond184) DPL0 Frame(CFA_SP, 4)
          CFI (cfiCond184) DPH0 Frame(CFA_SP, 5)
          CFI (cfiCond184) CFA_SP SP+-9
          CFI Block cfiCond185 Using cfiCommon0
          CFI (cfiCond185) Function bdb_ProcessRespondentList
          CFI (cfiCond185) Conditional ??CrossCallReturnLabel_74, ??CrossCallReturnLabel_9
          CFI (cfiCond185) R6 load(1, XDATA, add(CFA_XSP16, literal(-16)))
          CFI (cfiCond185) VB load(1, XDATA, add(CFA_XSP16, literal(-15)))
          CFI (cfiCond185) V0 load(1, XDATA, add(CFA_XSP16, literal(-14)))
          CFI (cfiCond185) V1 load(1, XDATA, add(CFA_XSP16, literal(-13)))
          CFI (cfiCond185) V2 load(1, XDATA, add(CFA_XSP16, literal(-12)))
          CFI (cfiCond185) V3 load(1, XDATA, add(CFA_XSP16, literal(-11)))
          CFI (cfiCond185) V4 load(1, XDATA, add(CFA_XSP16, literal(-10)))
          CFI (cfiCond185) V5 load(1, XDATA, add(CFA_XSP16, literal(-9)))
          CFI (cfiCond185) V6 load(1, XDATA, add(CFA_XSP16, literal(-8)))
          CFI (cfiCond185) V7 load(1, XDATA, add(CFA_XSP16, literal(-7)))
          CFI (cfiCond185) R7 load(1, XDATA, add(CFA_XSP16, literal(-6)))
          CFI (cfiCond185) ?RET_LOW load(1, XDATA, add(CFA_XSP16, literal(-5)))
          CFI (cfiCond185) ?RET_HIGH load(1, XDATA, add(CFA_XSP16, literal(-4)))
          CFI (cfiCond185) ?BRET_EXT load(1, XDATA, add(CFA_XSP16, literal(-3)))
          CFI (cfiCond185) DPL0 load(1, XDATA, add(CFA_XSP16, literal(-2)))
          CFI (cfiCond185) DPH0 load(1, XDATA, add(CFA_XSP16, literal(-1)))
          CFI (cfiCond185) CFA_SP SP+-4
          CFI (cfiCond185) CFA_XSP16 add(XSP16, 25)
          CFI Block cfiCond186 Using cfiCommon0
          CFI (cfiCond186) Function bdb_ProcessRespondentList
          CFI (cfiCond186) Conditional ??CrossCallReturnLabel_74, ??CrossCallReturnLabel_10
          CFI (cfiCond186) R6 load(1, XDATA, add(CFA_XSP16, literal(-16)))
          CFI (cfiCond186) VB load(1, XDATA, add(CFA_XSP16, literal(-15)))
          CFI (cfiCond186) V0 load(1, XDATA, add(CFA_XSP16, literal(-14)))
          CFI (cfiCond186) V1 load(1, XDATA, add(CFA_XSP16, literal(-13)))
          CFI (cfiCond186) V2 load(1, XDATA, add(CFA_XSP16, literal(-12)))
          CFI (cfiCond186) V3 load(1, XDATA, add(CFA_XSP16, literal(-11)))
          CFI (cfiCond186) V4 load(1, XDATA, add(CFA_XSP16, literal(-10)))
          CFI (cfiCond186) V5 load(1, XDATA, add(CFA_XSP16, literal(-9)))
          CFI (cfiCond186) V6 load(1, XDATA, add(CFA_XSP16, literal(-8)))
          CFI (cfiCond186) V7 load(1, XDATA, add(CFA_XSP16, literal(-7)))
          CFI (cfiCond186) R7 load(1, XDATA, add(CFA_XSP16, literal(-6)))
          CFI (cfiCond186) ?RET_LOW load(1, XDATA, add(CFA_XSP16, literal(-5)))
          CFI (cfiCond186) ?RET_HIGH load(1, XDATA, add(CFA_XSP16, literal(-4)))
          CFI (cfiCond186) ?BRET_EXT load(1, XDATA, add(CFA_XSP16, literal(-3)))
          CFI (cfiCond186) DPL0 load(1, XDATA, add(CFA_XSP16, literal(-2)))
          CFI (cfiCond186) DPH0 load(1, XDATA, add(CFA_XSP16, literal(-1)))
          CFI (cfiCond186) CFA_SP SP+-4
          CFI (cfiCond186) CFA_XSP16 add(XSP16, 25)
          CFI Block cfiCond187 Using cfiCommon0
          CFI (cfiCond187) Function bdb_ProcessIEEEAddrRsp
          CFI (cfiCond187) Conditional ??CrossCallReturnLabel_73, ??CrossCallReturnLabel_103
          CFI (cfiCond187) R6 load(1, XDATA, add(CFA_XSP16, literal(-10)))
          CFI (cfiCond187) VB load(1, XDATA, add(CFA_XSP16, literal(-9)))
          CFI (cfiCond187) V0 load(1, XDATA, add(CFA_XSP16, literal(-8)))
          CFI (cfiCond187) V1 load(1, XDATA, add(CFA_XSP16, literal(-7)))
          CFI (cfiCond187) R7 load(1, XDATA, add(CFA_XSP16, literal(-6)))
          CFI (cfiCond187) ?RET_LOW load(1, XDATA, add(CFA_XSP16, literal(-5)))
          CFI (cfiCond187) ?RET_HIGH load(1, XDATA, add(CFA_XSP16, literal(-4)))
          CFI (cfiCond187) ?BRET_EXT load(1, XDATA, add(CFA_XSP16, literal(-3)))
          CFI (cfiCond187) DPL0 load(1, XDATA, add(CFA_XSP16, literal(-2)))
          CFI (cfiCond187) DPH0 load(1, XDATA, add(CFA_XSP16, literal(-1)))
          CFI (cfiCond187) CFA_SP SP+-4
          CFI (cfiCond187) CFA_XSP16 add(XSP16, 25)
          CFI Block cfiCond188 Using cfiCommon0
          CFI (cfiCond188) Function bdb_ProcessSimpleDesc
          CFI (cfiCond188) Conditional ??CrossCallReturnLabel_73, ??CrossCallReturnLabel_104
          CFI (cfiCond188) R6 load(1, XDATA, add(CFA_XSP16, literal(-9)))
          CFI (cfiCond188) VB load(1, XDATA, add(CFA_XSP16, literal(-8)))
          CFI (cfiCond188) V0 load(1, XDATA, add(CFA_XSP16, literal(-7)))
          CFI (cfiCond188) R7 load(1, XDATA, add(CFA_XSP16, literal(-6)))
          CFI (cfiCond188) ?RET_LOW load(1, XDATA, add(CFA_XSP16, literal(-5)))
          CFI (cfiCond188) ?RET_HIGH load(1, XDATA, add(CFA_XSP16, literal(-4)))
          CFI (cfiCond188) ?BRET_EXT load(1, XDATA, add(CFA_XSP16, literal(-3)))
          CFI (cfiCond188) DPL0 load(1, XDATA, add(CFA_XSP16, literal(-2)))
          CFI (cfiCond188) DPH0 load(1, XDATA, add(CFA_XSP16, literal(-1)))
          CFI (cfiCond188) CFA_SP SP+-4
          CFI (cfiCond188) CFA_XSP16 add(XSP16, 28)
          CFI Block cfiPicker189 Using cfiCommon1
          CFI (cfiPicker189) NoFunction
          CFI (cfiPicker189) Picker
        MOVX      A,@DPTR
        MOV       R2,A
        INC       DPTR
        MOVX      A,@DPTR
        MOV       R3,A
        RET
          CFI EndBlock cfiCond171
          CFI EndBlock cfiCond172
          CFI EndBlock cfiCond173
          CFI EndBlock cfiCond174
          CFI EndBlock cfiCond175
          CFI EndBlock cfiCond176
          CFI EndBlock cfiCond177
          CFI EndBlock cfiCond178
          CFI EndBlock cfiCond179
          CFI EndBlock cfiCond180
          CFI EndBlock cfiCond181
          CFI EndBlock cfiCond182
          CFI EndBlock cfiCond183
          CFI EndBlock cfiCond184
          CFI EndBlock cfiCond185
          CFI EndBlock cfiCond186
          CFI EndBlock cfiCond187
          CFI EndBlock cfiCond188
          CFI EndBlock cfiPicker189

        RSEG BANKED_CODE:HUGECODE:NOROOT(0)
?Subroutine1:
          CFI Block cfiBlock190 Using cfiCommon0
          CFI NoFunction
          CFI CFA_SP SP+0
          CFI CFA_XSP16 add(XSP16, 25)
          CFI VB load(1, XDATA, add(CFA_XSP16, literal(-9)))
          CFI DPL0 load(1, XDATA, add(CFA_XSP16, literal(-2)))
          CFI DPH0 load(1, XDATA, add(CFA_XSP16, literal(-1)))
          CFI R6 load(1, XDATA, add(CFA_XSP16, literal(-10)))
          CFI R7 load(1, XDATA, add(CFA_XSP16, literal(-6)))
          CFI V0 load(1, XDATA, add(CFA_XSP16, literal(-8)))
          CFI V1 load(1, XDATA, add(CFA_XSP16, literal(-7)))
          CFI ?BRET_EXT load(1, XDATA, add(CFA_XSP16, literal(-3)))
          CFI ?RET_HIGH load(1, XDATA, add(CFA_XSP16, literal(-4)))
          CFI ?RET_LOW load(1, XDATA, add(CFA_XSP16, literal(-5)))
          CFI Invalid
        LCALL     ?DEALLOC_XSTACK8
          CFI EndBlock cfiBlock190
        REQUIRE ??Subroutine46_0
        ; // Fall through to label ??Subroutine46_0

        RSEG BANKED_CODE:HUGECODE:NOROOT(0)
??Subroutine46_0:
          CFI Block cfiBlock191 Using cfiCommon0
          CFI NoFunction
          CFI CFA_SP SP+0
          CFI CFA_XSP16 add(XSP16, 10)
          CFI VB load(1, XDATA, add(CFA_XSP16, literal(-9)))
          CFI DPL0 load(1, XDATA, add(CFA_XSP16, literal(-2)))
          CFI DPH0 load(1, XDATA, add(CFA_XSP16, literal(-1)))
          CFI R6 load(1, XDATA, add(CFA_XSP16, literal(-10)))
          CFI R7 load(1, XDATA, add(CFA_XSP16, literal(-6)))
          CFI V0 load(1, XDATA, add(CFA_XSP16, literal(-8)))
          CFI V1 load(1, XDATA, add(CFA_XSP16, literal(-7)))
          CFI ?BRET_EXT load(1, XDATA, add(CFA_XSP16, literal(-3)))
          CFI ?RET_HIGH load(1, XDATA, add(CFA_XSP16, literal(-4)))
          CFI ?RET_LOW load(1, XDATA, add(CFA_XSP16, literal(-5)))
        MOV       R7,#0x2
        LJMP      ?BANKED_LEAVE_XDATA
          CFI EndBlock cfiBlock191
//  805 
//  806 /*********************************************************************
//  807  * @fn      bdb_RegisterIdentifyTimeChangeCB
//  808  *
//  809  * @brief   Register an Application's Identify Time change callback function
//  810  *          to let know the application when identify is active or not.
//  811  *
//  812  * @param   pfnIdentify - application callback
//  813  *
//  814  * @return  none
//  815  */

        RSEG BANKED_CODE:HUGECODE:NOROOT(0)
//  816 void bdb_RegisterIdentifyTimeChangeCB( bdbGCB_IdentifyTimeChange_t pfnIdentifyTimeChange )
bdb_RegisterIdentifyTimeChangeCB:
          CFI Block cfiBlock192 Using cfiCommon0
          CFI Function bdb_RegisterIdentifyTimeChangeCB
        CODE
//  817 {
        PUSH      DPL
          CFI DPL0 Frame(CFA_SP, 4)
          CFI CFA_SP SP+-4
        PUSH      DPH
          CFI DPH0 Frame(CFA_SP, 5)
          CFI CFA_SP SP+-5
        ; Saved register size: 2
        ; Auto size: 0
//  818   pfnIdentifyTimeChangeCB = pfnIdentifyTimeChange;
        MOV       DPTR,#pfnIdentifyTimeChangeCB
        LJMP      ?Subroutine0 & 0xFFFF
//  819 }
          CFI EndBlock cfiBlock192
//  820 
//  821 #if (FINDING_AND_BINDING_PERIODIC_ENABLE==TRUE)
//  822 /*********************************************************************
//  823  * @fn      bdb_GetFBInitiatorStatus
//  824  *
//  825  * @brief   Get the F&B initiator status for periodic requests.
//  826  *
//  827  * @param   RemainingTime - in seconds
//  828  * @param   AttemptsLeft - number of attempts to be done
//  829  * @param   MatchesFound - Add the number of matches to this parameter
//  830  *                         since the last bdb_GetFBInitiatorStatus call
//  831  *
//  832  * @return  none
//  833  */

        RSEG BANKED_CODE:HUGECODE:NOROOT(0)
//  834 void bdb_GetFBInitiatorStatus(uint8 *RemainingTime, uint8* AttemptsLeft)
bdb_GetFBInitiatorStatus:
          CFI Block cfiBlock193 Using cfiCommon0
          CFI Function bdb_GetFBInitiatorStatus
        CODE
//  835 {
        FUNCALL bdb_GetFBInitiatorStatus, osal_get_timeoutEx
        LOCFRAME ISTACK, 0, STACK
        LOCFRAME PSTACK, 0, STACK
        LOCFRAME XSTACK, 20, STACK
        LOCFRAME IOVERLAY, 0, STATIC
        LOCFRAME DOVERLAY, 0, STATIC
        ARGFRAME ISTACK, 0, STACK
        ARGFRAME PSTACK, 0, STACK
        ARGFRAME XSTACK, 20, STACK
        ARGFRAME IOVERLAY, 0, STATIC
        ARGFRAME DOVERLAY, 0, STATIC
        REQUIRE ?V0
        REQUIRE ?V1
        REQUIRE ?V4
        REQUIRE ?V5
        REQUIRE ?V6
        REQUIRE ?V7
        REQUIRE ?V8
        REQUIRE ?V9
        REQUIRE ?V10
        REQUIRE ?V11
        MOV       A,#-0x14
        LCALL     ?BANKED_ENTER_XDATA
          CFI DPH0 load(1, XDATA, add(CFA_XSP16, literal(-1)))
          CFI DPL0 load(1, XDATA, add(CFA_XSP16, literal(-2)))
          CFI ?BRET_EXT load(1, XDATA, add(CFA_XSP16, literal(-3)))
          CFI ?RET_HIGH load(1, XDATA, add(CFA_XSP16, literal(-4)))
          CFI ?RET_LOW load(1, XDATA, add(CFA_XSP16, literal(-5)))
          CFI R7 load(1, XDATA, add(CFA_XSP16, literal(-6)))
          CFI V11 load(1, XDATA, add(CFA_XSP16, literal(-7)))
          CFI V10 load(1, XDATA, add(CFA_XSP16, literal(-8)))
          CFI V9 load(1, XDATA, add(CFA_XSP16, literal(-9)))
          CFI V8 load(1, XDATA, add(CFA_XSP16, literal(-10)))
          CFI V7 load(1, XDATA, add(CFA_XSP16, literal(-11)))
          CFI V6 load(1, XDATA, add(CFA_XSP16, literal(-12)))
          CFI V5 load(1, XDATA, add(CFA_XSP16, literal(-13)))
          CFI V4 load(1, XDATA, add(CFA_XSP16, literal(-14)))
          CFI V3 load(1, XDATA, add(CFA_XSP16, literal(-15)))
          CFI V2 load(1, XDATA, add(CFA_XSP16, literal(-16)))
          CFI V1 load(1, XDATA, add(CFA_XSP16, literal(-17)))
          CFI V0 load(1, XDATA, add(CFA_XSP16, literal(-18)))
          CFI VB load(1, XDATA, add(CFA_XSP16, literal(-19)))
          CFI R6 load(1, XDATA, add(CFA_XSP16, literal(-20)))
          CFI CFA_SP SP+0
          CFI CFA_XSP16 add(XSP16, 20)
        ; Saved register size: 20
        ; Auto size: 0
        MOV       A,R2
        MOV       R6,A
        MOV       A,R3
        MOV       R7,A
        MOV       ?V0,R4
        MOV       ?V1,R5
//  836   if(RemainingTime != NULL)  
        MOV       A,R2
        ORL       A,R7
        JZ        ??bdb_GetFBInitiatorStatus_0
//  837   {
//  838     if (bdb_FB_InitiatorCurrentCyclesNumber == 0)
        MOV       DPTR,#bdb_FB_InitiatorCurrentCyclesNumber
        MOVX      A,@DPTR
        JNZ       ??bdb_GetFBInitiatorStatus_1
//  839     {
//  840       *RemainingTime = 0;
        MOV       DPL,R2
        MOV       DPH,R3
        CLR       A
        SJMP      ??bdb_GetFBInitiatorStatus_2
//  841     }
//  842     else
//  843     {
//  844       *RemainingTime = (bdb_FB_InitiatorCurrentCyclesNumber - 1) * FINDING_AND_BINDING_PERIODIC_TIME + ((osal_get_timeoutEx(bdb_TaskID, BDB_FINDING_AND_BINDING_PERIOD_TIMEOUT) + 999) / 1000);
??bdb_GetFBInitiatorStatus_1:
        ; Setup parameters for call to function osal_get_timeoutEx
        MOV       R2,#0x40
        MOV       R3,#0x0
        MOV       DPTR,#bdb_TaskID
        MOVX      A,@DPTR
        MOV       R1,A
        LCALL     `??osal_get_timeoutEx::?relay`; Banked call to: osal_get_timeoutEx
        MOV       ?V4,R2
        MOV       ?V5,R3
        MOV       ?V6,R4
        MOV       ?V7,R5
        MOV       DPTR,#__Constant_3e7
        MOV       R0,#?V4
        LCALL     ?L_ADD_X
        MOV       DPTR,#__Constant_3e8
        MOV       R0,#?V8
        LCALL     ?L_MOV_X
        MOV       R0,#?V4
        MOV       R1,#?V8
        LCALL     ?UL_DIV_MOD
        MOV       B,#0xf
        MOV       DPTR,#bdb_FB_InitiatorCurrentCyclesNumber
        MOVX      A,@DPTR
        DEC       A
        MUL       AB
        ADD       A,?V4
        MOV       DPL,R6
        MOV       DPH,R7
??bdb_GetFBInitiatorStatus_2:
        MOVX      @DPTR,A
//  845     }
//  846   }
//  847   
//  848   if(AttemptsLeft != NULL)
??bdb_GetFBInitiatorStatus_0:
        MOV       A,?V0
        ORL       A,?V1
        JZ        ??bdb_GetFBInitiatorStatus_3
//  849   {
//  850     *AttemptsLeft = bdb_FB_InitiatorCurrentCyclesNumber;
        MOV       DPTR,#bdb_FB_InitiatorCurrentCyclesNumber
        MOVX      A,@DPTR
        MOV       DPL,?V0
        MOV       DPH,?V1
        MOVX      @DPTR,A
//  851   }
//  852 }
??bdb_GetFBInitiatorStatus_3:
        LJMP      ?Subroutine2 & 0xFFFF
          CFI EndBlock cfiBlock193
//  853 #endif
//  854 
//  855 /*********************************************************************
//  856  * @fn      bdb_RegisterBindNotificationCB
//  857  *
//  858  * @brief   Register an Application's notification callback function to let 
//  859  *          know the application when a new bind is added to the binding table.
//  860  *
//  861  * @param   pfnIdentify - application callback
//  862  *
//  863  * @return  none
//  864  */

        RSEG BANKED_CODE:HUGECODE:NOROOT(0)
//  865 void bdb_RegisterBindNotificationCB( bdbGCB_BindNotification_t pfnBindNotification )
bdb_RegisterBindNotificationCB:
          CFI Block cfiBlock194 Using cfiCommon0
          CFI Function bdb_RegisterBindNotificationCB
        CODE
//  866 {
        PUSH      DPL
          CFI DPL0 Frame(CFA_SP, 4)
          CFI CFA_SP SP+-4
        PUSH      DPH
          CFI DPH0 Frame(CFA_SP, 5)
          CFI CFA_SP SP+-5
        ; Saved register size: 2
        ; Auto size: 0
//  867   pfnBindNotificationCB = pfnBindNotification;
        MOV       DPTR,#pfnBindNotificationCB
        LJMP      ?Subroutine0 & 0xFFFF
//  868 }
          CFI EndBlock cfiBlock194
//  869 
//  870 /*********************************************************************
//  871  * @fn      bdb_SendIdentifyQuery
//  872  *
//  873  * @brief   Sends Identify query from the given endpoint
//  874  *
//  875  * @param   endpoint
//  876  *
//  877  * @return  ZStatus_t
//  878  */

        RSEG BANKED_CODE:HUGECODE:NOROOT(0)
//  879 ZStatus_t bdb_SendIdentifyQuery( uint8 endpoint )
bdb_SendIdentifyQuery:
          CFI Block cfiBlock195 Using cfiCommon0
          CFI Function bdb_SendIdentifyQuery
        CODE
//  880 {
        FUNCALL bdb_SendIdentifyQuery, bdb_getZCLFrameCounter
        LOCFRAME ISTACK, 0, STACK
        LOCFRAME PSTACK, 0, STACK
        LOCFRAME XSTACK, 22, STACK
        LOCFRAME IOVERLAY, 0, STATIC
        LOCFRAME DOVERLAY, 0, STATIC
        ARGFRAME ISTACK, 0, STACK
        ARGFRAME PSTACK, 0, STACK
        ARGFRAME XSTACK, 22, STACK
        ARGFRAME IOVERLAY, 0, STATIC
        ARGFRAME DOVERLAY, 0, STATIC
        FUNCALL bdb_SendIdentifyQuery, zcl_SendCommand
        LOCFRAME ISTACK, 0, STACK
        LOCFRAME PSTACK, 0, STACK
        LOCFRAME XSTACK, 33, STACK
        LOCFRAME IOVERLAY, 0, STATIC
        LOCFRAME DOVERLAY, 0, STATIC
        ARGFRAME ISTACK, 0, STACK
        ARGFRAME PSTACK, 0, STACK
        ARGFRAME XSTACK, 33, STACK
        ARGFRAME IOVERLAY, 0, STATIC
        ARGFRAME DOVERLAY, 0, STATIC
        FUNCALL bdb_SendIdentifyQuery, osal_start_timerEx
        LOCFRAME ISTACK, 0, STACK
        LOCFRAME PSTACK, 0, STACK
        LOCFRAME XSTACK, 26, STACK
        LOCFRAME IOVERLAY, 0, STATIC
        LOCFRAME DOVERLAY, 0, STATIC
        ARGFRAME ISTACK, 0, STACK
        ARGFRAME PSTACK, 0, STACK
        ARGFRAME XSTACK, 26, STACK
        ARGFRAME IOVERLAY, 0, STATIC
        ARGFRAME DOVERLAY, 0, STATIC
        REQUIRE ?V0
        REQUIRE ?V1
        MOV       A,#-0xa
        LCALL     ?BANKED_ENTER_XDATA
          CFI DPH0 load(1, XDATA, add(CFA_XSP16, literal(-1)))
          CFI DPL0 load(1, XDATA, add(CFA_XSP16, literal(-2)))
          CFI ?BRET_EXT load(1, XDATA, add(CFA_XSP16, literal(-3)))
          CFI ?RET_HIGH load(1, XDATA, add(CFA_XSP16, literal(-4)))
          CFI ?RET_LOW load(1, XDATA, add(CFA_XSP16, literal(-5)))
          CFI R7 load(1, XDATA, add(CFA_XSP16, literal(-6)))
          CFI V1 load(1, XDATA, add(CFA_XSP16, literal(-7)))
          CFI V0 load(1, XDATA, add(CFA_XSP16, literal(-8)))
          CFI VB load(1, XDATA, add(CFA_XSP16, literal(-9)))
          CFI R6 load(1, XDATA, add(CFA_XSP16, literal(-10)))
          CFI CFA_SP SP+0
          CFI CFA_XSP16 add(XSP16, 10)
        ; Saved register size: 10
        ; Auto size: 12
        MOV       A,#-0xc
        LCALL     ?ALLOC_XSTACK8
          CFI CFA_XSP16 add(XSP16, 22)
        MOV       A,R1
        MOV       R7,A
//  881   afAddrType_t dstAddr;
//  882   ZStatus_t    status;
//  883   
//  884   dstAddr.addr.shortAddr = NWK_BROADCAST_SHORTADDR_DEVALL;
        MOV       DPL,?XSP + 0
        MOV       DPH,?XSP + 1
        MOV       A,#-0x1
        MOVX      @DPTR,A
        INC       DPTR
        MOVX      @DPTR,A
//  885   dstAddr.addrMode = afAddr16Bit;
        MOV       A,#0x8
        LCALL     ?XSTACK_DISP0_8
        MOV       A,#0x2
        MOVX      @DPTR,A
//  886   dstAddr.endPoint = 0xFF;
        MOV       A,#0x9
        LCALL     ?XSTACK_DISP0_8
        MOV       A,#-0x1
        MOVX      @DPTR,A
//  887 
//  888   status = zclGeneral_SendIdentifyQuery( endpoint, &dstAddr, TRUE, bdb_getZCLFrameCounter() ); 
        ; Setup parameters for call to function bdb_getZCLFrameCounter
        LCALL     `??bdb_getZCLFrameCounter::?relay`; Banked call to: bdb_getZCLFrameCounter
        MOV       A,R1
        MOV       R1,A
        ; Setup parameters for call to function zcl_SendCommand
        CLR       A
        MOV       ?V0,A
        MOV       ?V1,A
        MOV       R0,#?V0
        LCALL     ?PUSH_XSTACK_I_TWO
          CFI CFA_XSP16 add(XSP16, 24)
        MOV       R0,#?V0
        LCALL     ?PUSH_XSTACK_I_TWO
          CFI CFA_XSP16 add(XSP16, 26)
        MOV       A,R1
        MOV       ?V0,A
        MOV       R0,#?V0
        LCALL     ?PUSH_XSTACK_I_ONE
          CFI CFA_XSP16 add(XSP16, 27)
        CLR       A
        MOV       ?V0,A
        MOV       R0,#?V0
        LCALL     ?PUSH_XSTACK_I_TWO
          CFI CFA_XSP16 add(XSP16, 29)
        MOV       ?V0,#0x1
        MOV       R0,#?V0
        LCALL     ?PUSH_XSTACK_I_ONE
          CFI CFA_XSP16 add(XSP16, 30)
        MOV       ?V0,#0x0
        MOV       R0,#?V0
        LCALL     ?PUSH_XSTACK_I_ONE
          CFI CFA_XSP16 add(XSP16, 31)
        MOV       ?V0,#0x1
        MOV       R0,#?V0
        LCALL     ?PUSH_XSTACK_I_ONE
          CFI CFA_XSP16 add(XSP16, 32)
        MOV       R0,#?V0
        LCALL     ?PUSH_XSTACK_I_ONE
          CFI CFA_XSP16 add(XSP16, 33)
        MOV       R4,#0x3
        MOV       R5,#0x0
        MOV       A,#0xb
        LCALL     ?XSTACK_DISP101_8
        MOV       A,R7
        MOV       R1,A
        LCALL     `??zcl_SendCommand::?relay`; Banked call to: zcl_SendCommand
        MOV       A,#0xb
        LCALL     ?DEALLOC_XSTACK8
          CFI CFA_XSP16 add(XSP16, 22)
        MOV       A,R1
        MOV       R6,A
//  889   
//  890   if(status == ZSuccess)
        JNZ       ??bdb_SendIdentifyQuery_0
//  891   {
//  892     osal_start_timerEx( bdb_TaskID, BDB_RESPONDENT_PROCESS_TIMEOUT, IDENTIFY_QUERY_RSP_TIMEOUT );
        ; Setup parameters for call to function osal_start_timerEx
        MOV       DPTR,#__Constant_2710
        LCALL     ?PUSH_XSTACK8_X_FOUR
          CFI CFA_XSP16 add(XSP16, 26)
        MOV       R2,#0x0
        MOV       R3,#0x40
        MOV       DPTR,#bdb_TaskID
        MOVX      A,@DPTR
        MOV       R1,A
        LCALL     `??osal_start_timerEx::?relay`; Banked call to: osal_start_timerEx
        MOV       A,#0x4
        LCALL     ?DEALLOC_XSTACK8
          CFI CFA_XSP16 add(XSP16, 22)
//  893   }
//  894   
//  895   return status;
??bdb_SendIdentifyQuery_0:
        MOV       A,R6
        MOV       R1,A
        MOV       A,#0xc
        LJMP      ?Subroutine1 & 0xFFFF
//  896 }
          CFI EndBlock cfiBlock195
//  897 
//  898 /*********************************************************************
//  899  * @fn      bdb_ZclIdentifyQueryCmdInd
//  900  *
//  901  * @brief   Callback from the ZCL General Cluster Library when
//  902  *          it received an Identity Query Response Command for this 
//  903  *          application.
//  904  *
//  905  * @param   srcAddr - source address and endpoint of the response message
//  906  * @param   identifyTime - the number of seconds to identify yourself
//  907  *
//  908  * @return  none
//  909  */

        RSEG BANKED_CODE:HUGECODE:NOROOT(0)
//  910 void bdb_ZclIdentifyQueryCmdInd( zclIdentifyQueryRsp_t *pCmd )
bdb_ZclIdentifyQueryCmdInd:
          CFI Block cfiBlock196 Using cfiCommon0
          CFI Function bdb_ZclIdentifyQueryCmdInd
        CODE
//  911 {
        FUNCALL bdb_ZclIdentifyQueryCmdInd, osal_stop_timerEx
        LOCFRAME ISTACK, 0, STACK
        LOCFRAME PSTACK, 0, STACK
        LOCFRAME XSTACK, 10, STACK
        LOCFRAME IOVERLAY, 0, STATIC
        LOCFRAME DOVERLAY, 0, STATIC
        ARGFRAME ISTACK, 0, STACK
        ARGFRAME PSTACK, 0, STACK
        ARGFRAME XSTACK, 10, STACK
        ARGFRAME IOVERLAY, 0, STATIC
        ARGFRAME DOVERLAY, 0, STATIC
        FUNCALL bdb_ZclIdentifyQueryCmdInd, bdb_AddRespondentNode
        LOCFRAME ISTACK, 0, STACK
        LOCFRAME PSTACK, 0, STACK
        LOCFRAME XSTACK, 10, STACK
        LOCFRAME IOVERLAY, 0, STATIC
        LOCFRAME DOVERLAY, 0, STATIC
        ARGFRAME ISTACK, 0, STACK
        ARGFRAME PSTACK, 0, STACK
        ARGFRAME XSTACK, 10, STACK
        ARGFRAME IOVERLAY, 0, STATIC
        ARGFRAME DOVERLAY, 0, STATIC
        FUNCALL bdb_ZclIdentifyQueryCmdInd, osal_set_event
        LOCFRAME ISTACK, 0, STACK
        LOCFRAME PSTACK, 0, STACK
        LOCFRAME XSTACK, 10, STACK
        LOCFRAME IOVERLAY, 0, STATIC
        LOCFRAME DOVERLAY, 0, STATIC
        ARGFRAME ISTACK, 0, STACK
        ARGFRAME PSTACK, 0, STACK
        ARGFRAME XSTACK, 10, STACK
        ARGFRAME IOVERLAY, 0, STATIC
        ARGFRAME DOVERLAY, 0, STATIC
        REQUIRE ?V0
        REQUIRE ?V1
        MOV       A,#-0xa
        LCALL     ?BANKED_ENTER_XDATA
          CFI DPH0 load(1, XDATA, add(CFA_XSP16, literal(-1)))
          CFI DPL0 load(1, XDATA, add(CFA_XSP16, literal(-2)))
          CFI ?BRET_EXT load(1, XDATA, add(CFA_XSP16, literal(-3)))
          CFI ?RET_HIGH load(1, XDATA, add(CFA_XSP16, literal(-4)))
          CFI ?RET_LOW load(1, XDATA, add(CFA_XSP16, literal(-5)))
          CFI R7 load(1, XDATA, add(CFA_XSP16, literal(-6)))
          CFI V1 load(1, XDATA, add(CFA_XSP16, literal(-7)))
          CFI V0 load(1, XDATA, add(CFA_XSP16, literal(-8)))
          CFI VB load(1, XDATA, add(CFA_XSP16, literal(-9)))
          CFI R6 load(1, XDATA, add(CFA_XSP16, literal(-10)))
          CFI CFA_SP SP+0
          CFI CFA_XSP16 add(XSP16, 10)
        ; Saved register size: 10
        ; Auto size: 0
        MOV       A,R2
        MOV       R6,A
        MOV       A,R3
        MOV       R7,A
//  912   bdbFindingBindingRespondent_t *pCurr;
//  913   
//  914   // Stop the timer before refresh
//  915   osal_stop_timerEx( bdb_TaskID, BDB_RESPONDENT_PROCESS_TIMEOUT );
        ; Setup parameters for call to function osal_stop_timerEx
        LCALL     ?Subroutine24 & 0xFFFF
//  916   
//  917   // add new node to the list
//  918   pCurr = bdb_AddRespondentNode( &pRespondentHead, pCmd );
??CrossCallReturnLabel_78:
        ; Setup parameters for call to function bdb_AddRespondentNode
        MOV       A,R6
        MOV       R4,A
        MOV       A,R7
        MOV       R5,A
        MOV       R2,#pRespondentHead & 0xff
        MOV       R3,#(pRespondentHead >> 8) & 0xff
        LCALL     `??bdb_AddRespondentNode::?relay`; Banked call to: bdb_AddRespondentNode
//  919   
//  920   if(pCurr != NULL)
        MOV       A,R2
        ORL       A,R3
        JZ        ??bdb_ZclIdentifyQueryCmdInd_0
//  921   {
//  922     pCurr->data.addrMode = pCmd->srcAddr->addrMode;
        MOV       DPL,R6
        MOV       DPH,R7
        LCALL     ?Subroutine21 & 0xFFFF
??CrossCallReturnLabel_25:
        LCALL     ?Subroutine20 & 0xFFFF
??CrossCallReturnLabel_22:
        MOVX      @DPTR,A
//  923     pCurr->data.addr.shortAddr = pCmd->srcAddr->addr.shortAddr;
        MOV       DPL,R0
        MOV       DPH,R1
        MOVX      A,@DPTR
        MOV       R4,A
        INC       DPTR
        MOVX      A,@DPTR
        MOV       R5,A
        MOV       DPL,R2
        MOV       DPH,R3
        MOV       A,R4
        MOVX      @DPTR,A
        INC       DPTR
        MOV       A,R5
        MOVX      @DPTR,A
//  924     pCurr->data.endPoint = pCmd->srcAddr->endPoint;
        MOV       DPL,R0
        MOV       DPH,R1
        INC       DPTR
        LCALL     ?Subroutine20 & 0xFFFF
??CrossCallReturnLabel_23:
        INC       DPTR
        MOVX      @DPTR,A
//  925     pCurr->data.panId = pCmd->srcAddr->panId;
        MOV       DPL,R6
        MOV       DPH,R7
        LCALL     ??Subroutine48_0 & 0xFFFF
??CrossCallReturnLabel_85:
        ADD       A,#0xa
        MOV       DPL,A
        CLR       A
        ADDC      A,R0
        MOV       DPH,A
        LCALL     ?Subroutine22 & 0xFFFF
??CrossCallReturnLabel_30:
        MOV       DPL,R2
        MOV       DPH,R3
        INC       DPTR
        INC       DPTR
        INC       DPTR
        INC       DPTR
        INC       DPTR
        INC       DPTR
        INC       DPTR
        INC       DPTR
        INC       DPTR
        INC       DPTR
        LCALL     ??Subroutine38_0 & 0xFFFF
//  926     pCurr->attempts = FINDING_AND_BINDING_NEW_RESPONDENT;
??CrossCallReturnLabel_43:
        MOV       A,R2
        LCALL     ?Subroutine35 & 0xFFFF
??CrossCallReturnLabel_40:
        CLR       A
        MOVX      @DPTR,A
//  927     pCurr->SimpleDescriptor = NULL;
        MOV       A,R2
        ADD       A,#0xd
        MOV       DPL,A
        CLR       A
        ADDC      A,R3
        MOV       DPH,A
        CLR       A
        MOVX      @DPTR,A
        INC       DPTR
        MOVX      @DPTR,A
//  928   }
//  929   
//  930   //Process the identify query rsp
//  931   osal_set_event(bdb_TaskID, BDB_RESPONDENT_PROCESS_TIMEOUT);
??bdb_ZclIdentifyQueryCmdInd_0:
        ; Setup parameters for call to function osal_set_event
        MOV       R2,#0x0
        MOV       R3,#0x40
        MOV       DPTR,#bdb_TaskID
        MOVX      A,@DPTR
        MOV       R1,A
        LCALL     `??osal_set_event::?relay`; Banked call to: osal_set_event
//  932 }
        LJMP      ??Subroutine46_0 & 0xFFFF
          CFI EndBlock cfiBlock196

        RSEG BANKED_CODE:HUGECODE:NOROOT(0)
?Subroutine24:
          CFI Block cfiCond197 Using cfiCommon0
          CFI Function bdb_StopInitiatorFindingBinding
          CFI Conditional ??CrossCallReturnLabel_77
          CFI DPL0 Frame(CFA_SP, 4)
          CFI DPH0 Frame(CFA_SP, 5)
          CFI CFA_SP SP+-7
          CFI Block cfiCond198 Using cfiCommon0
          CFI (cfiCond198) Function bdb_ZclIdentifyQueryCmdInd
          CFI (cfiCond198) Conditional ??CrossCallReturnLabel_78
          CFI (cfiCond198) R6 load(1, XDATA, add(CFA_XSP16, literal(-10)))
          CFI (cfiCond198) VB load(1, XDATA, add(CFA_XSP16, literal(-9)))
          CFI (cfiCond198) V0 load(1, XDATA, add(CFA_XSP16, literal(-8)))
          CFI (cfiCond198) V1 load(1, XDATA, add(CFA_XSP16, literal(-7)))
          CFI (cfiCond198) R7 load(1, XDATA, add(CFA_XSP16, literal(-6)))
          CFI (cfiCond198) ?RET_LOW load(1, XDATA, add(CFA_XSP16, literal(-5)))
          CFI (cfiCond198) ?RET_HIGH load(1, XDATA, add(CFA_XSP16, literal(-4)))
          CFI (cfiCond198) ?BRET_EXT load(1, XDATA, add(CFA_XSP16, literal(-3)))
          CFI (cfiCond198) DPL0 load(1, XDATA, add(CFA_XSP16, literal(-2)))
          CFI (cfiCond198) DPH0 load(1, XDATA, add(CFA_XSP16, literal(-1)))
          CFI (cfiCond198) CFA_SP SP+-2
          CFI (cfiCond198) CFA_XSP16 add(XSP16, 10)
          CFI Block cfiPicker199 Using cfiCommon1
          CFI (cfiPicker199) NoFunction
          CFI (cfiPicker199) Picker
        MOV       R2,#0x0
        MOV       R3,#0x40
          CFI EndBlock cfiCond197
          CFI EndBlock cfiCond198
          CFI EndBlock cfiPicker199
        REQUIRE ??Subroutine47_0
        ; // Fall through to label ??Subroutine47_0

        RSEG BANKED_CODE:HUGECODE:NOROOT(0)
??Subroutine47_0:
          CFI Block cfiCond200 Using cfiCommon0
          CFI Function bdb_StopInitiatorFindingBinding
          CFI Conditional ??CrossCallReturnLabel_79
          CFI DPL0 Frame(CFA_SP, 4)
          CFI DPH0 Frame(CFA_SP, 5)
          CFI CFA_SP SP+-7
          CFI Block cfiCond201 Using cfiCommon0
          CFI (cfiCond201) Function bdb_StopInitiatorFindingBinding
          CFI (cfiCond201) Conditional ??CrossCallReturnLabel_77
          CFI (cfiCond201) DPL0 Frame(CFA_SP, 4)
          CFI (cfiCond201) DPH0 Frame(CFA_SP, 5)
          CFI (cfiCond201) CFA_SP SP+-7
          CFI Block cfiCond202 Using cfiCommon0
          CFI (cfiCond202) Function bdb_ZclIdentifyQueryCmdInd
          CFI (cfiCond202) Conditional ??CrossCallReturnLabel_78
          CFI (cfiCond202) R6 load(1, XDATA, add(CFA_XSP16, literal(-10)))
          CFI (cfiCond202) VB load(1, XDATA, add(CFA_XSP16, literal(-9)))
          CFI (cfiCond202) V0 load(1, XDATA, add(CFA_XSP16, literal(-8)))
          CFI (cfiCond202) V1 load(1, XDATA, add(CFA_XSP16, literal(-7)))
          CFI (cfiCond202) R7 load(1, XDATA, add(CFA_XSP16, literal(-6)))
          CFI (cfiCond202) ?RET_LOW load(1, XDATA, add(CFA_XSP16, literal(-5)))
          CFI (cfiCond202) ?RET_HIGH load(1, XDATA, add(CFA_XSP16, literal(-4)))
          CFI (cfiCond202) ?BRET_EXT load(1, XDATA, add(CFA_XSP16, literal(-3)))
          CFI (cfiCond202) DPL0 load(1, XDATA, add(CFA_XSP16, literal(-2)))
          CFI (cfiCond202) DPH0 load(1, XDATA, add(CFA_XSP16, literal(-1)))
          CFI (cfiCond202) CFA_SP SP+-2
          CFI (cfiCond202) CFA_XSP16 add(XSP16, 10)
          CFI Block cfiPicker203 Using cfiCommon1
          CFI (cfiPicker203) NoFunction
          CFI (cfiPicker203) Picker
        LCALL     ?Subroutine32 & 0xFFFF
??CrossCallReturnLabel_82:
        RET
          CFI EndBlock cfiCond200
          CFI EndBlock cfiCond201
          CFI EndBlock cfiCond202
          CFI EndBlock cfiPicker203

        RSEG BANKED_CODE:HUGECODE:NOROOT(0)
?Subroutine32:
          CFI Block cfiCond204 Using cfiCommon0
          CFI Function bdb_ProcessIEEEAddrRsp
          CFI Conditional ??CrossCallReturnLabel_80, ??CrossCallReturnLabel_3
          CFI R6 load(1, XDATA, add(CFA_XSP16, literal(-10)))
          CFI VB load(1, XDATA, add(CFA_XSP16, literal(-9)))
          CFI V0 load(1, XDATA, add(CFA_XSP16, literal(-8)))
          CFI V1 load(1, XDATA, add(CFA_XSP16, literal(-7)))
          CFI R7 load(1, XDATA, add(CFA_XSP16, literal(-6)))
          CFI ?RET_LOW load(1, XDATA, add(CFA_XSP16, literal(-5)))
          CFI ?RET_HIGH load(1, XDATA, add(CFA_XSP16, literal(-4)))
          CFI ?BRET_EXT load(1, XDATA, add(CFA_XSP16, literal(-3)))
          CFI DPL0 load(1, XDATA, add(CFA_XSP16, literal(-2)))
          CFI DPH0 load(1, XDATA, add(CFA_XSP16, literal(-1)))
          CFI CFA_SP SP+-4
          CFI CFA_XSP16 add(XSP16, 25)
          CFI Block cfiCond205 Using cfiCommon0
          CFI (cfiCond205) Function bdb_checkMatchingEndpoints
          CFI (cfiCond205) Conditional ??CrossCallReturnLabel_80, ??CrossCallReturnLabel_4
          CFI (cfiCond205) R6 load(1, XDATA, add(CFA_XSP16, literal(-20)))
          CFI (cfiCond205) VB load(1, XDATA, add(CFA_XSP16, literal(-19)))
          CFI (cfiCond205) V0 load(1, XDATA, add(CFA_XSP16, literal(-18)))
          CFI (cfiCond205) V1 load(1, XDATA, add(CFA_XSP16, literal(-17)))
          CFI (cfiCond205) V2 load(1, XDATA, add(CFA_XSP16, literal(-16)))
          CFI (cfiCond205) V3 load(1, XDATA, add(CFA_XSP16, literal(-15)))
          CFI (cfiCond205) V4 load(1, XDATA, add(CFA_XSP16, literal(-14)))
          CFI (cfiCond205) V5 load(1, XDATA, add(CFA_XSP16, literal(-13)))
          CFI (cfiCond205) V6 load(1, XDATA, add(CFA_XSP16, literal(-12)))
          CFI (cfiCond205) V7 load(1, XDATA, add(CFA_XSP16, literal(-11)))
          CFI (cfiCond205) V8 load(1, XDATA, add(CFA_XSP16, literal(-10)))
          CFI (cfiCond205) V9 load(1, XDATA, add(CFA_XSP16, literal(-9)))
          CFI (cfiCond205) V10 load(1, XDATA, add(CFA_XSP16, literal(-8)))
          CFI (cfiCond205) V11 load(1, XDATA, add(CFA_XSP16, literal(-7)))
          CFI (cfiCond205) R7 load(1, XDATA, add(CFA_XSP16, literal(-6)))
          CFI (cfiCond205) ?RET_LOW load(1, XDATA, add(CFA_XSP16, literal(-5)))
          CFI (cfiCond205) ?RET_HIGH load(1, XDATA, add(CFA_XSP16, literal(-4)))
          CFI (cfiCond205) ?BRET_EXT load(1, XDATA, add(CFA_XSP16, literal(-3)))
          CFI (cfiCond205) DPL0 load(1, XDATA, add(CFA_XSP16, literal(-2)))
          CFI (cfiCond205) DPH0 load(1, XDATA, add(CFA_XSP16, literal(-1)))
          CFI (cfiCond205) CFA_SP SP+-4
          CFI (cfiCond205) CFA_XSP16 add(XSP16, 29)
          CFI Block cfiCond206 Using cfiCommon0
          CFI (cfiCond206) Function bdb_ProcessIEEEAddrRsp
          CFI (cfiCond206) Conditional ??CrossCallReturnLabel_81, ??CrossCallReturnLabel_3
          CFI (cfiCond206) R6 load(1, XDATA, add(CFA_XSP16, literal(-10)))
          CFI (cfiCond206) VB load(1, XDATA, add(CFA_XSP16, literal(-9)))
          CFI (cfiCond206) V0 load(1, XDATA, add(CFA_XSP16, literal(-8)))
          CFI (cfiCond206) V1 load(1, XDATA, add(CFA_XSP16, literal(-7)))
          CFI (cfiCond206) R7 load(1, XDATA, add(CFA_XSP16, literal(-6)))
          CFI (cfiCond206) ?RET_LOW load(1, XDATA, add(CFA_XSP16, literal(-5)))
          CFI (cfiCond206) ?RET_HIGH load(1, XDATA, add(CFA_XSP16, literal(-4)))
          CFI (cfiCond206) ?BRET_EXT load(1, XDATA, add(CFA_XSP16, literal(-3)))
          CFI (cfiCond206) DPL0 load(1, XDATA, add(CFA_XSP16, literal(-2)))
          CFI (cfiCond206) DPH0 load(1, XDATA, add(CFA_XSP16, literal(-1)))
          CFI (cfiCond206) CFA_SP SP+-4
          CFI (cfiCond206) CFA_XSP16 add(XSP16, 25)
          CFI Block cfiCond207 Using cfiCommon0
          CFI (cfiCond207) Function bdb_checkMatchingEndpoints
          CFI (cfiCond207) Conditional ??CrossCallReturnLabel_81, ??CrossCallReturnLabel_4
          CFI (cfiCond207) R6 load(1, XDATA, add(CFA_XSP16, literal(-20)))
          CFI (cfiCond207) VB load(1, XDATA, add(CFA_XSP16, literal(-19)))
          CFI (cfiCond207) V0 load(1, XDATA, add(CFA_XSP16, literal(-18)))
          CFI (cfiCond207) V1 load(1, XDATA, add(CFA_XSP16, literal(-17)))
          CFI (cfiCond207) V2 load(1, XDATA, add(CFA_XSP16, literal(-16)))
          CFI (cfiCond207) V3 load(1, XDATA, add(CFA_XSP16, literal(-15)))
          CFI (cfiCond207) V4 load(1, XDATA, add(CFA_XSP16, literal(-14)))
          CFI (cfiCond207) V5 load(1, XDATA, add(CFA_XSP16, literal(-13)))
          CFI (cfiCond207) V6 load(1, XDATA, add(CFA_XSP16, literal(-12)))
          CFI (cfiCond207) V7 load(1, XDATA, add(CFA_XSP16, literal(-11)))
          CFI (cfiCond207) V8 load(1, XDATA, add(CFA_XSP16, literal(-10)))
          CFI (cfiCond207) V9 load(1, XDATA, add(CFA_XSP16, literal(-9)))
          CFI (cfiCond207) V10 load(1, XDATA, add(CFA_XSP16, literal(-8)))
          CFI (cfiCond207) V11 load(1, XDATA, add(CFA_XSP16, literal(-7)))
          CFI (cfiCond207) R7 load(1, XDATA, add(CFA_XSP16, literal(-6)))
          CFI (cfiCond207) ?RET_LOW load(1, XDATA, add(CFA_XSP16, literal(-5)))
          CFI (cfiCond207) ?RET_HIGH load(1, XDATA, add(CFA_XSP16, literal(-4)))
          CFI (cfiCond207) ?BRET_EXT load(1, XDATA, add(CFA_XSP16, literal(-3)))
          CFI (cfiCond207) DPL0 load(1, XDATA, add(CFA_XSP16, literal(-2)))
          CFI (cfiCond207) DPH0 load(1, XDATA, add(CFA_XSP16, literal(-1)))
          CFI (cfiCond207) CFA_SP SP+-4
          CFI (cfiCond207) CFA_XSP16 add(XSP16, 29)
          CFI Block cfiCond208 Using cfiCommon0
          CFI (cfiCond208) Function bdb_StopInitiatorFindingBinding
          CFI (cfiCond208) Conditional ??CrossCallReturnLabel_82, ??CrossCallReturnLabel_77
          CFI (cfiCond208) DPL0 Frame(CFA_SP, 4)
          CFI (cfiCond208) DPH0 Frame(CFA_SP, 5)
          CFI (cfiCond208) CFA_SP SP+-9
          CFI Block cfiCond209 Using cfiCommon0
          CFI (cfiCond209) Function bdb_ZclIdentifyQueryCmdInd
          CFI (cfiCond209) Conditional ??CrossCallReturnLabel_82, ??CrossCallReturnLabel_78
          CFI (cfiCond209) R6 load(1, XDATA, add(CFA_XSP16, literal(-10)))
          CFI (cfiCond209) VB load(1, XDATA, add(CFA_XSP16, literal(-9)))
          CFI (cfiCond209) V0 load(1, XDATA, add(CFA_XSP16, literal(-8)))
          CFI (cfiCond209) V1 load(1, XDATA, add(CFA_XSP16, literal(-7)))
          CFI (cfiCond209) R7 load(1, XDATA, add(CFA_XSP16, literal(-6)))
          CFI (cfiCond209) ?RET_LOW load(1, XDATA, add(CFA_XSP16, literal(-5)))
          CFI (cfiCond209) ?RET_HIGH load(1, XDATA, add(CFA_XSP16, literal(-4)))
          CFI (cfiCond209) ?BRET_EXT load(1, XDATA, add(CFA_XSP16, literal(-3)))
          CFI (cfiCond209) DPL0 load(1, XDATA, add(CFA_XSP16, literal(-2)))
          CFI (cfiCond209) DPH0 load(1, XDATA, add(CFA_XSP16, literal(-1)))
          CFI (cfiCond209) CFA_SP SP+-4
          CFI (cfiCond209) CFA_XSP16 add(XSP16, 10)
          CFI Block cfiCond210 Using cfiCommon0
          CFI (cfiCond210) Function bdb_StopInitiatorFindingBinding
          CFI (cfiCond210) Conditional ??CrossCallReturnLabel_82, ??CrossCallReturnLabel_79
          CFI (cfiCond210) DPL0 Frame(CFA_SP, 4)
          CFI (cfiCond210) DPH0 Frame(CFA_SP, 5)
          CFI (cfiCond210) CFA_SP SP+-9
          CFI Block cfiPicker211 Using cfiCommon1
          CFI (cfiPicker211) NoFunction
          CFI (cfiPicker211) Picker
        MOV       DPTR,#bdb_TaskID
        MOVX      A,@DPTR
        MOV       R1,A
        LCALL     `??osal_stop_timerEx::?relay`; Banked call to: osal_stop_timerEx
        RET
          CFI EndBlock cfiCond204
          CFI EndBlock cfiCond205
          CFI EndBlock cfiCond206
          CFI EndBlock cfiCond207
          CFI EndBlock cfiCond208
          CFI EndBlock cfiCond209
          CFI EndBlock cfiCond210
          CFI EndBlock cfiPicker211

        RSEG BANKED_CODE:HUGECODE:NOROOT(0)
?Subroutine21:
          CFI Block cfiCond212 Using cfiCommon0
          CFI Function bdb_ProcessSimpleDesc
          CFI Conditional ??CrossCallReturnLabel_24
          CFI R6 load(1, XDATA, add(CFA_XSP16, literal(-9)))
          CFI VB load(1, XDATA, add(CFA_XSP16, literal(-8)))
          CFI V0 load(1, XDATA, add(CFA_XSP16, literal(-7)))
          CFI R7 load(1, XDATA, add(CFA_XSP16, literal(-6)))
          CFI ?RET_LOW load(1, XDATA, add(CFA_XSP16, literal(-5)))
          CFI ?RET_HIGH load(1, XDATA, add(CFA_XSP16, literal(-4)))
          CFI ?BRET_EXT load(1, XDATA, add(CFA_XSP16, literal(-3)))
          CFI DPL0 load(1, XDATA, add(CFA_XSP16, literal(-2)))
          CFI DPH0 load(1, XDATA, add(CFA_XSP16, literal(-1)))
          CFI CFA_SP SP+-2
          CFI CFA_XSP16 add(XSP16, 28)
          CFI Block cfiCond213 Using cfiCommon0
          CFI (cfiCond213) Function bdb_ZclIdentifyQueryCmdInd
          CFI (cfiCond213) Conditional ??CrossCallReturnLabel_25
          CFI (cfiCond213) R6 load(1, XDATA, add(CFA_XSP16, literal(-10)))
          CFI (cfiCond213) VB load(1, XDATA, add(CFA_XSP16, literal(-9)))
          CFI (cfiCond213) V0 load(1, XDATA, add(CFA_XSP16, literal(-8)))
          CFI (cfiCond213) V1 load(1, XDATA, add(CFA_XSP16, literal(-7)))
          CFI (cfiCond213) R7 load(1, XDATA, add(CFA_XSP16, literal(-6)))
          CFI (cfiCond213) ?RET_LOW load(1, XDATA, add(CFA_XSP16, literal(-5)))
          CFI (cfiCond213) ?RET_HIGH load(1, XDATA, add(CFA_XSP16, literal(-4)))
          CFI (cfiCond213) ?BRET_EXT load(1, XDATA, add(CFA_XSP16, literal(-3)))
          CFI (cfiCond213) DPL0 load(1, XDATA, add(CFA_XSP16, literal(-2)))
          CFI (cfiCond213) DPH0 load(1, XDATA, add(CFA_XSP16, literal(-1)))
          CFI (cfiCond213) CFA_SP SP+-2
          CFI (cfiCond213) CFA_XSP16 add(XSP16, 10)
          CFI Block cfiPicker214 Using cfiCommon1
          CFI (cfiPicker214) NoFunction
          CFI (cfiPicker214) Picker
        LCALL     ?Subroutine31 & 0xFFFF
??CrossCallReturnLabel_114:
        MOV       R1,A
        MOV       DPL,R0
        MOV       DPH,A
        RET
          CFI EndBlock cfiCond212
          CFI EndBlock cfiCond213
          CFI EndBlock cfiPicker214

        RSEG BANKED_CODE:HUGECODE:NOROOT(0)
?Subroutine20:
          CFI Block cfiCond215 Using cfiCommon0
          CFI Function bdb_ZclIdentifyQueryCmdInd
          CFI Conditional ??CrossCallReturnLabel_22
          CFI R6 load(1, XDATA, add(CFA_XSP16, literal(-10)))
          CFI VB load(1, XDATA, add(CFA_XSP16, literal(-9)))
          CFI V0 load(1, XDATA, add(CFA_XSP16, literal(-8)))
          CFI V1 load(1, XDATA, add(CFA_XSP16, literal(-7)))
          CFI R7 load(1, XDATA, add(CFA_XSP16, literal(-6)))
          CFI ?RET_LOW load(1, XDATA, add(CFA_XSP16, literal(-5)))
          CFI ?RET_HIGH load(1, XDATA, add(CFA_XSP16, literal(-4)))
          CFI ?BRET_EXT load(1, XDATA, add(CFA_XSP16, literal(-3)))
          CFI DPL0 load(1, XDATA, add(CFA_XSP16, literal(-2)))
          CFI DPH0 load(1, XDATA, add(CFA_XSP16, literal(-1)))
          CFI CFA_SP SP+-2
          CFI CFA_XSP16 add(XSP16, 10)
          CFI Block cfiCond216 Using cfiCommon0
          CFI (cfiCond216) Function bdb_ZclIdentifyQueryCmdInd
          CFI (cfiCond216) Conditional ??CrossCallReturnLabel_23
          CFI (cfiCond216) R6 load(1, XDATA, add(CFA_XSP16, literal(-10)))
          CFI (cfiCond216) VB load(1, XDATA, add(CFA_XSP16, literal(-9)))
          CFI (cfiCond216) V0 load(1, XDATA, add(CFA_XSP16, literal(-8)))
          CFI (cfiCond216) V1 load(1, XDATA, add(CFA_XSP16, literal(-7)))
          CFI (cfiCond216) R7 load(1, XDATA, add(CFA_XSP16, literal(-6)))
          CFI (cfiCond216) ?RET_LOW load(1, XDATA, add(CFA_XSP16, literal(-5)))
          CFI (cfiCond216) ?RET_HIGH load(1, XDATA, add(CFA_XSP16, literal(-4)))
          CFI (cfiCond216) ?BRET_EXT load(1, XDATA, add(CFA_XSP16, literal(-3)))
          CFI (cfiCond216) DPL0 load(1, XDATA, add(CFA_XSP16, literal(-2)))
          CFI (cfiCond216) DPH0 load(1, XDATA, add(CFA_XSP16, literal(-1)))
          CFI (cfiCond216) CFA_SP SP+-2
          CFI (cfiCond216) CFA_XSP16 add(XSP16, 10)
          CFI Block cfiPicker217 Using cfiCommon1
          CFI (cfiPicker217) NoFunction
          CFI (cfiPicker217) Picker
        INC       DPTR
        INC       DPTR
        INC       DPTR
        INC       DPTR
        INC       DPTR
        INC       DPTR
        INC       DPTR
        INC       DPTR
        MOVX      A,@DPTR
        MOV       DPL,R2
        MOV       DPH,R3
        INC       DPTR
        INC       DPTR
        INC       DPTR
        INC       DPTR
        INC       DPTR
        INC       DPTR
        INC       DPTR
        INC       DPTR
        RET
          CFI EndBlock cfiCond215
          CFI EndBlock cfiCond216
          CFI EndBlock cfiPicker217
//  933 
//  934 /*********************************************************************
//  935  * @fn      bdb_ProcessRespondentList
//  936  *
//  937  * @brief   Process the respondent list by sending Simple Descriptor request to 
//  938  *          devices respondent in the list. Also send IEEE Addr Req to those 
//  939  *          device for which a bind is created buy IEEE addr is missing.
//  940  *
//  941  * @param   none
//  942  *
//  943  * @return  none
//  944  */

        RSEG BANKED_CODE:HUGECODE:NOROOT(0)
?Subroutine18:
          CFI Block cfiCond218 Using cfiCommon0
          CFI Function bdb_ProcessRespondentList
          CFI Conditional ??CrossCallReturnLabel_86
          CFI R6 load(1, XDATA, add(CFA_XSP16, literal(-16)))
          CFI VB load(1, XDATA, add(CFA_XSP16, literal(-15)))
          CFI V0 load(1, XDATA, add(CFA_XSP16, literal(-14)))
          CFI V1 load(1, XDATA, add(CFA_XSP16, literal(-13)))
          CFI V2 load(1, XDATA, add(CFA_XSP16, literal(-12)))
          CFI V3 load(1, XDATA, add(CFA_XSP16, literal(-11)))
          CFI V4 load(1, XDATA, add(CFA_XSP16, literal(-10)))
          CFI V5 load(1, XDATA, add(CFA_XSP16, literal(-9)))
          CFI V6 load(1, XDATA, add(CFA_XSP16, literal(-8)))
          CFI V7 load(1, XDATA, add(CFA_XSP16, literal(-7)))
          CFI R7 load(1, XDATA, add(CFA_XSP16, literal(-6)))
          CFI ?RET_LOW load(1, XDATA, add(CFA_XSP16, literal(-5)))
          CFI ?RET_HIGH load(1, XDATA, add(CFA_XSP16, literal(-4)))
          CFI ?BRET_EXT load(1, XDATA, add(CFA_XSP16, literal(-3)))
          CFI DPL0 load(1, XDATA, add(CFA_XSP16, literal(-2)))
          CFI DPH0 load(1, XDATA, add(CFA_XSP16, literal(-1)))
          CFI CFA_SP SP+-2
          CFI CFA_XSP16 add(XSP16, 25)
          CFI Block cfiCond219 Using cfiCommon0
          CFI (cfiCond219) Function bdb_ProcessRespondentList
          CFI (cfiCond219) Conditional ??CrossCallReturnLabel_87
          CFI (cfiCond219) R6 load(1, XDATA, add(CFA_XSP16, literal(-16)))
          CFI (cfiCond219) VB load(1, XDATA, add(CFA_XSP16, literal(-15)))
          CFI (cfiCond219) V0 load(1, XDATA, add(CFA_XSP16, literal(-14)))
          CFI (cfiCond219) V1 load(1, XDATA, add(CFA_XSP16, literal(-13)))
          CFI (cfiCond219) V2 load(1, XDATA, add(CFA_XSP16, literal(-12)))
          CFI (cfiCond219) V3 load(1, XDATA, add(CFA_XSP16, literal(-11)))
          CFI (cfiCond219) V4 load(1, XDATA, add(CFA_XSP16, literal(-10)))
          CFI (cfiCond219) V5 load(1, XDATA, add(CFA_XSP16, literal(-9)))
          CFI (cfiCond219) V6 load(1, XDATA, add(CFA_XSP16, literal(-8)))
          CFI (cfiCond219) V7 load(1, XDATA, add(CFA_XSP16, literal(-7)))
          CFI (cfiCond219) R7 load(1, XDATA, add(CFA_XSP16, literal(-6)))
          CFI (cfiCond219) ?RET_LOW load(1, XDATA, add(CFA_XSP16, literal(-5)))
          CFI (cfiCond219) ?RET_HIGH load(1, XDATA, add(CFA_XSP16, literal(-4)))
          CFI (cfiCond219) ?BRET_EXT load(1, XDATA, add(CFA_XSP16, literal(-3)))
          CFI (cfiCond219) DPL0 load(1, XDATA, add(CFA_XSP16, literal(-2)))
          CFI (cfiCond219) DPH0 load(1, XDATA, add(CFA_XSP16, literal(-1)))
          CFI (cfiCond219) CFA_SP SP+-2
          CFI (cfiCond219) CFA_XSP16 add(XSP16, 26)
          CFI Block cfiCond220 Using cfiCommon0
          CFI (cfiCond220) Function bdb_ProcessRespondentList
          CFI (cfiCond220) Conditional ??CrossCallReturnLabel_88
          CFI (cfiCond220) R6 load(1, XDATA, add(CFA_XSP16, literal(-16)))
          CFI (cfiCond220) VB load(1, XDATA, add(CFA_XSP16, literal(-15)))
          CFI (cfiCond220) V0 load(1, XDATA, add(CFA_XSP16, literal(-14)))
          CFI (cfiCond220) V1 load(1, XDATA, add(CFA_XSP16, literal(-13)))
          CFI (cfiCond220) V2 load(1, XDATA, add(CFA_XSP16, literal(-12)))
          CFI (cfiCond220) V3 load(1, XDATA, add(CFA_XSP16, literal(-11)))
          CFI (cfiCond220) V4 load(1, XDATA, add(CFA_XSP16, literal(-10)))
          CFI (cfiCond220) V5 load(1, XDATA, add(CFA_XSP16, literal(-9)))
          CFI (cfiCond220) V6 load(1, XDATA, add(CFA_XSP16, literal(-8)))
          CFI (cfiCond220) V7 load(1, XDATA, add(CFA_XSP16, literal(-7)))
          CFI (cfiCond220) R7 load(1, XDATA, add(CFA_XSP16, literal(-6)))
          CFI (cfiCond220) ?RET_LOW load(1, XDATA, add(CFA_XSP16, literal(-5)))
          CFI (cfiCond220) ?RET_HIGH load(1, XDATA, add(CFA_XSP16, literal(-4)))
          CFI (cfiCond220) ?BRET_EXT load(1, XDATA, add(CFA_XSP16, literal(-3)))
          CFI (cfiCond220) DPL0 load(1, XDATA, add(CFA_XSP16, literal(-2)))
          CFI (cfiCond220) DPH0 load(1, XDATA, add(CFA_XSP16, literal(-1)))
          CFI (cfiCond220) CFA_SP SP+-2
          CFI (cfiCond220) CFA_XSP16 add(XSP16, 25)
          CFI Block cfiPicker221 Using cfiCommon1
          CFI (cfiPicker221) NoFunction
          CFI (cfiPicker221) Picker
        MOV       DPTR,#pRespondentCurr
          CFI EndBlock cfiCond218
          CFI EndBlock cfiCond219
          CFI EndBlock cfiCond220
          CFI EndBlock cfiPicker221
        REQUIRE ??Subroutine48_0
        ; // Fall through to label ??Subroutine48_0

        RSEG BANKED_CODE:HUGECODE:NOROOT(0)
??Subroutine48_0:
          CFI Block cfiCond222 Using cfiCommon0
          CFI Function bdb_checkMatchingEndpoints
          CFI Conditional ??CrossCallReturnLabel_83
          CFI R6 load(1, XDATA, add(CFA_XSP16, literal(-20)))
          CFI VB load(1, XDATA, add(CFA_XSP16, literal(-19)))
          CFI V0 load(1, XDATA, add(CFA_XSP16, literal(-18)))
          CFI V1 load(1, XDATA, add(CFA_XSP16, literal(-17)))
          CFI V2 load(1, XDATA, add(CFA_XSP16, literal(-16)))
          CFI V3 load(1, XDATA, add(CFA_XSP16, literal(-15)))
          CFI V4 load(1, XDATA, add(CFA_XSP16, literal(-14)))
          CFI V5 load(1, XDATA, add(CFA_XSP16, literal(-13)))
          CFI V6 load(1, XDATA, add(CFA_XSP16, literal(-12)))
          CFI V7 load(1, XDATA, add(CFA_XSP16, literal(-11)))
          CFI V8 load(1, XDATA, add(CFA_XSP16, literal(-10)))
          CFI V9 load(1, XDATA, add(CFA_XSP16, literal(-9)))
          CFI V10 load(1, XDATA, add(CFA_XSP16, literal(-8)))
          CFI V11 load(1, XDATA, add(CFA_XSP16, literal(-7)))
          CFI R7 load(1, XDATA, add(CFA_XSP16, literal(-6)))
          CFI ?RET_LOW load(1, XDATA, add(CFA_XSP16, literal(-5)))
          CFI ?RET_HIGH load(1, XDATA, add(CFA_XSP16, literal(-4)))
          CFI ?BRET_EXT load(1, XDATA, add(CFA_XSP16, literal(-3)))
          CFI DPL0 load(1, XDATA, add(CFA_XSP16, literal(-2)))
          CFI DPH0 load(1, XDATA, add(CFA_XSP16, literal(-1)))
          CFI CFA_SP SP+-2
          CFI CFA_XSP16 add(XSP16, 29)
          CFI Block cfiCond223 Using cfiCommon0
          CFI (cfiCond223) Function bdb_ProcessSimpleDesc
          CFI (cfiCond223) Conditional ??CrossCallReturnLabel_84
          CFI (cfiCond223) R6 load(1, XDATA, add(CFA_XSP16, literal(-9)))
          CFI (cfiCond223) VB load(1, XDATA, add(CFA_XSP16, literal(-8)))
          CFI (cfiCond223) V0 load(1, XDATA, add(CFA_XSP16, literal(-7)))
          CFI (cfiCond223) R7 load(1, XDATA, add(CFA_XSP16, literal(-6)))
          CFI (cfiCond223) ?RET_LOW load(1, XDATA, add(CFA_XSP16, literal(-5)))
          CFI (cfiCond223) ?RET_HIGH load(1, XDATA, add(CFA_XSP16, literal(-4)))
          CFI (cfiCond223) ?BRET_EXT load(1, XDATA, add(CFA_XSP16, literal(-3)))
          CFI (cfiCond223) DPL0 load(1, XDATA, add(CFA_XSP16, literal(-2)))
          CFI (cfiCond223) DPH0 load(1, XDATA, add(CFA_XSP16, literal(-1)))
          CFI (cfiCond223) CFA_SP SP+-2
          CFI (cfiCond223) CFA_XSP16 add(XSP16, 28)
          CFI Block cfiCond224 Using cfiCommon0
          CFI (cfiCond224) Function bdb_ZclIdentifyQueryCmdInd
          CFI (cfiCond224) Conditional ??CrossCallReturnLabel_85
          CFI (cfiCond224) R6 load(1, XDATA, add(CFA_XSP16, literal(-10)))
          CFI (cfiCond224) VB load(1, XDATA, add(CFA_XSP16, literal(-9)))
          CFI (cfiCond224) V0 load(1, XDATA, add(CFA_XSP16, literal(-8)))
          CFI (cfiCond224) V1 load(1, XDATA, add(CFA_XSP16, literal(-7)))
          CFI (cfiCond224) R7 load(1, XDATA, add(CFA_XSP16, literal(-6)))
          CFI (cfiCond224) ?RET_LOW load(1, XDATA, add(CFA_XSP16, literal(-5)))
          CFI (cfiCond224) ?RET_HIGH load(1, XDATA, add(CFA_XSP16, literal(-4)))
          CFI (cfiCond224) ?BRET_EXT load(1, XDATA, add(CFA_XSP16, literal(-3)))
          CFI (cfiCond224) DPL0 load(1, XDATA, add(CFA_XSP16, literal(-2)))
          CFI (cfiCond224) DPH0 load(1, XDATA, add(CFA_XSP16, literal(-1)))
          CFI (cfiCond224) CFA_SP SP+-2
          CFI (cfiCond224) CFA_XSP16 add(XSP16, 10)
          CFI Block cfiCond225 Using cfiCommon0
          CFI (cfiCond225) Function bdb_ProcessRespondentList
          CFI (cfiCond225) Conditional ??CrossCallReturnLabel_86
          CFI (cfiCond225) R6 load(1, XDATA, add(CFA_XSP16, literal(-16)))
          CFI (cfiCond225) VB load(1, XDATA, add(CFA_XSP16, literal(-15)))
          CFI (cfiCond225) V0 load(1, XDATA, add(CFA_XSP16, literal(-14)))
          CFI (cfiCond225) V1 load(1, XDATA, add(CFA_XSP16, literal(-13)))
          CFI (cfiCond225) V2 load(1, XDATA, add(CFA_XSP16, literal(-12)))
          CFI (cfiCond225) V3 load(1, XDATA, add(CFA_XSP16, literal(-11)))
          CFI (cfiCond225) V4 load(1, XDATA, add(CFA_XSP16, literal(-10)))
          CFI (cfiCond225) V5 load(1, XDATA, add(CFA_XSP16, literal(-9)))
          CFI (cfiCond225) V6 load(1, XDATA, add(CFA_XSP16, literal(-8)))
          CFI (cfiCond225) V7 load(1, XDATA, add(CFA_XSP16, literal(-7)))
          CFI (cfiCond225) R7 load(1, XDATA, add(CFA_XSP16, literal(-6)))
          CFI (cfiCond225) ?RET_LOW load(1, XDATA, add(CFA_XSP16, literal(-5)))
          CFI (cfiCond225) ?RET_HIGH load(1, XDATA, add(CFA_XSP16, literal(-4)))
          CFI (cfiCond225) ?BRET_EXT load(1, XDATA, add(CFA_XSP16, literal(-3)))
          CFI (cfiCond225) DPL0 load(1, XDATA, add(CFA_XSP16, literal(-2)))
          CFI (cfiCond225) DPH0 load(1, XDATA, add(CFA_XSP16, literal(-1)))
          CFI (cfiCond225) CFA_SP SP+-2
          CFI (cfiCond225) CFA_XSP16 add(XSP16, 25)
          CFI Block cfiCond226 Using cfiCommon0
          CFI (cfiCond226) Function bdb_ProcessRespondentList
          CFI (cfiCond226) Conditional ??CrossCallReturnLabel_87
          CFI (cfiCond226) R6 load(1, XDATA, add(CFA_XSP16, literal(-16)))
          CFI (cfiCond226) VB load(1, XDATA, add(CFA_XSP16, literal(-15)))
          CFI (cfiCond226) V0 load(1, XDATA, add(CFA_XSP16, literal(-14)))
          CFI (cfiCond226) V1 load(1, XDATA, add(CFA_XSP16, literal(-13)))
          CFI (cfiCond226) V2 load(1, XDATA, add(CFA_XSP16, literal(-12)))
          CFI (cfiCond226) V3 load(1, XDATA, add(CFA_XSP16, literal(-11)))
          CFI (cfiCond226) V4 load(1, XDATA, add(CFA_XSP16, literal(-10)))
          CFI (cfiCond226) V5 load(1, XDATA, add(CFA_XSP16, literal(-9)))
          CFI (cfiCond226) V6 load(1, XDATA, add(CFA_XSP16, literal(-8)))
          CFI (cfiCond226) V7 load(1, XDATA, add(CFA_XSP16, literal(-7)))
          CFI (cfiCond226) R7 load(1, XDATA, add(CFA_XSP16, literal(-6)))
          CFI (cfiCond226) ?RET_LOW load(1, XDATA, add(CFA_XSP16, literal(-5)))
          CFI (cfiCond226) ?RET_HIGH load(1, XDATA, add(CFA_XSP16, literal(-4)))
          CFI (cfiCond226) ?BRET_EXT load(1, XDATA, add(CFA_XSP16, literal(-3)))
          CFI (cfiCond226) DPL0 load(1, XDATA, add(CFA_XSP16, literal(-2)))
          CFI (cfiCond226) DPH0 load(1, XDATA, add(CFA_XSP16, literal(-1)))
          CFI (cfiCond226) CFA_SP SP+-2
          CFI (cfiCond226) CFA_XSP16 add(XSP16, 26)
          CFI Block cfiCond227 Using cfiCommon0
          CFI (cfiCond227) Function bdb_ProcessRespondentList
          CFI (cfiCond227) Conditional ??CrossCallReturnLabel_88
          CFI (cfiCond227) R6 load(1, XDATA, add(CFA_XSP16, literal(-16)))
          CFI (cfiCond227) VB load(1, XDATA, add(CFA_XSP16, literal(-15)))
          CFI (cfiCond227) V0 load(1, XDATA, add(CFA_XSP16, literal(-14)))
          CFI (cfiCond227) V1 load(1, XDATA, add(CFA_XSP16, literal(-13)))
          CFI (cfiCond227) V2 load(1, XDATA, add(CFA_XSP16, literal(-12)))
          CFI (cfiCond227) V3 load(1, XDATA, add(CFA_XSP16, literal(-11)))
          CFI (cfiCond227) V4 load(1, XDATA, add(CFA_XSP16, literal(-10)))
          CFI (cfiCond227) V5 load(1, XDATA, add(CFA_XSP16, literal(-9)))
          CFI (cfiCond227) V6 load(1, XDATA, add(CFA_XSP16, literal(-8)))
          CFI (cfiCond227) V7 load(1, XDATA, add(CFA_XSP16, literal(-7)))
          CFI (cfiCond227) R7 load(1, XDATA, add(CFA_XSP16, literal(-6)))
          CFI (cfiCond227) ?RET_LOW load(1, XDATA, add(CFA_XSP16, literal(-5)))
          CFI (cfiCond227) ?RET_HIGH load(1, XDATA, add(CFA_XSP16, literal(-4)))
          CFI (cfiCond227) ?BRET_EXT load(1, XDATA, add(CFA_XSP16, literal(-3)))
          CFI (cfiCond227) DPL0 load(1, XDATA, add(CFA_XSP16, literal(-2)))
          CFI (cfiCond227) DPH0 load(1, XDATA, add(CFA_XSP16, literal(-1)))
          CFI (cfiCond227) CFA_SP SP+-2
          CFI (cfiCond227) CFA_XSP16 add(XSP16, 25)
          CFI Block cfiPicker228 Using cfiCommon1
          CFI (cfiPicker228) NoFunction
          CFI (cfiPicker228) Picker
        LCALL     ?Subroutine31 & 0xFFFF
??CrossCallReturnLabel_118:
        XCH       A,R0
        RET
          CFI EndBlock cfiCond222
          CFI EndBlock cfiCond223
          CFI EndBlock cfiCond224
          CFI EndBlock cfiCond225
          CFI EndBlock cfiCond226
          CFI EndBlock cfiCond227
          CFI EndBlock cfiPicker228

        RSEG BANKED_CODE:HUGECODE:NOROOT(0)
//  945 void bdb_ProcessRespondentList( void )
bdb_ProcessRespondentList:
          CFI Block cfiBlock229 Using cfiCommon0
          CFI Function bdb_ProcessRespondentList
        CODE
//  946 {
        FUNCALL bdb_ProcessRespondentList, bdb_getRespondentRetry
        LOCFRAME ISTACK, 0, STACK
        LOCFRAME PSTACK, 0, STACK
        LOCFRAME XSTACK, 25, STACK
        LOCFRAME IOVERLAY, 0, STATIC
        LOCFRAME DOVERLAY, 0, STATIC
        ARGFRAME ISTACK, 0, STACK
        ARGFRAME PSTACK, 0, STACK
        ARGFRAME XSTACK, 25, STACK
        ARGFRAME IOVERLAY, 0, STATIC
        ARGFRAME DOVERLAY, 0, STATIC
        FUNCALL bdb_ProcessRespondentList, bdb_exitFindingBindingWStatus
        LOCFRAME ISTACK, 0, STACK
        LOCFRAME PSTACK, 0, STACK
        LOCFRAME XSTACK, 25, STACK
        LOCFRAME IOVERLAY, 0, STATIC
        LOCFRAME DOVERLAY, 0, STATIC
        ARGFRAME ISTACK, 0, STACK
        ARGFRAME PSTACK, 0, STACK
        ARGFRAME XSTACK, 25, STACK
        ARGFRAME IOVERLAY, 0, STATIC
        ARGFRAME DOVERLAY, 0, STATIC
        FUNCALL bdb_ProcessRespondentList, bdb_exitFindingBindingWStatus
        LOCFRAME ISTACK, 0, STACK
        LOCFRAME PSTACK, 0, STACK
        LOCFRAME XSTACK, 25, STACK
        LOCFRAME IOVERLAY, 0, STATIC
        LOCFRAME DOVERLAY, 0, STATIC
        ARGFRAME ISTACK, 0, STACK
        ARGFRAME PSTACK, 0, STACK
        ARGFRAME XSTACK, 25, STACK
        ARGFRAME IOVERLAY, 0, STATIC
        ARGFRAME DOVERLAY, 0, STATIC
        FUNCALL bdb_ProcessRespondentList, bdb_getRespondentRetry
        LOCFRAME ISTACK, 0, STACK
        LOCFRAME PSTACK, 0, STACK
        LOCFRAME XSTACK, 25, STACK
        LOCFRAME IOVERLAY, 0, STATIC
        LOCFRAME DOVERLAY, 0, STATIC
        ARGFRAME ISTACK, 0, STACK
        ARGFRAME PSTACK, 0, STACK
        ARGFRAME XSTACK, 25, STACK
        ARGFRAME IOVERLAY, 0, STATIC
        ARGFRAME DOVERLAY, 0, STATIC
        FUNCALL bdb_ProcessRespondentList, bdb_exitFindingBindingWStatus
        LOCFRAME ISTACK, 0, STACK
        LOCFRAME PSTACK, 0, STACK
        LOCFRAME XSTACK, 25, STACK
        LOCFRAME IOVERLAY, 0, STATIC
        LOCFRAME DOVERLAY, 0, STATIC
        ARGFRAME ISTACK, 0, STACK
        ARGFRAME PSTACK, 0, STACK
        ARGFRAME XSTACK, 25, STACK
        ARGFRAME IOVERLAY, 0, STATIC
        ARGFRAME DOVERLAY, 0, STATIC
        FUNCALL bdb_ProcessRespondentList, osal_start_timerEx
        LOCFRAME ISTACK, 0, STACK
        LOCFRAME PSTACK, 0, STACK
        LOCFRAME XSTACK, 29, STACK
        LOCFRAME IOVERLAY, 0, STATIC
        LOCFRAME DOVERLAY, 0, STATIC
        ARGFRAME ISTACK, 0, STACK
        ARGFRAME PSTACK, 0, STACK
        ARGFRAME XSTACK, 29, STACK
        ARGFRAME IOVERLAY, 0, STATIC
        ARGFRAME DOVERLAY, 0, STATIC
        FUNCALL bdb_ProcessRespondentList, ZDP_IEEEAddrReq
        LOCFRAME ISTACK, 0, STACK
        LOCFRAME PSTACK, 0, STACK
        LOCFRAME XSTACK, 25, STACK
        LOCFRAME IOVERLAY, 0, STATIC
        LOCFRAME DOVERLAY, 0, STATIC
        ARGFRAME ISTACK, 0, STACK
        ARGFRAME PSTACK, 0, STACK
        ARGFRAME XSTACK, 25, STACK
        ARGFRAME IOVERLAY, 0, STATIC
        ARGFRAME DOVERLAY, 0, STATIC
        FUNCALL bdb_ProcessRespondentList, ZDP_SimpleDescReq
        LOCFRAME ISTACK, 0, STACK
        LOCFRAME PSTACK, 0, STACK
        LOCFRAME XSTACK, 26, STACK
        LOCFRAME IOVERLAY, 0, STATIC
        LOCFRAME DOVERLAY, 0, STATIC
        ARGFRAME ISTACK, 0, STACK
        ARGFRAME PSTACK, 0, STACK
        ARGFRAME XSTACK, 26, STACK
        ARGFRAME IOVERLAY, 0, STATIC
        ARGFRAME DOVERLAY, 0, STATIC
        FUNCALL bdb_ProcessRespondentList, bdb_getRespondentRetry
        LOCFRAME ISTACK, 0, STACK
        LOCFRAME PSTACK, 0, STACK
        LOCFRAME XSTACK, 25, STACK
        LOCFRAME IOVERLAY, 0, STATIC
        LOCFRAME DOVERLAY, 0, STATIC
        ARGFRAME ISTACK, 0, STACK
        ARGFRAME PSTACK, 0, STACK
        ARGFRAME XSTACK, 25, STACK
        ARGFRAME IOVERLAY, 0, STATIC
        ARGFRAME DOVERLAY, 0, STATIC
        REQUIRE ?V0
        REQUIRE ?V1
        REQUIRE ?V2
        REQUIRE ?V3
        REQUIRE ?V4
        REQUIRE ?V5
        REQUIRE ?V6
        REQUIRE ?V7
        MOV       A,#-0x10
        LCALL     ?BANKED_ENTER_XDATA
          CFI DPH0 load(1, XDATA, add(CFA_XSP16, literal(-1)))
          CFI DPL0 load(1, XDATA, add(CFA_XSP16, literal(-2)))
          CFI ?BRET_EXT load(1, XDATA, add(CFA_XSP16, literal(-3)))
          CFI ?RET_HIGH load(1, XDATA, add(CFA_XSP16, literal(-4)))
          CFI ?RET_LOW load(1, XDATA, add(CFA_XSP16, literal(-5)))
          CFI R7 load(1, XDATA, add(CFA_XSP16, literal(-6)))
          CFI V7 load(1, XDATA, add(CFA_XSP16, literal(-7)))
          CFI V6 load(1, XDATA, add(CFA_XSP16, literal(-8)))
          CFI V5 load(1, XDATA, add(CFA_XSP16, literal(-9)))
          CFI V4 load(1, XDATA, add(CFA_XSP16, literal(-10)))
          CFI V3 load(1, XDATA, add(CFA_XSP16, literal(-11)))
          CFI V2 load(1, XDATA, add(CFA_XSP16, literal(-12)))
          CFI V1 load(1, XDATA, add(CFA_XSP16, literal(-13)))
          CFI V0 load(1, XDATA, add(CFA_XSP16, literal(-14)))
          CFI VB load(1, XDATA, add(CFA_XSP16, literal(-15)))
          CFI R6 load(1, XDATA, add(CFA_XSP16, literal(-16)))
          CFI CFA_SP SP+0
          CFI CFA_XSP16 add(XSP16, 16)
        ; Saved register size: 16
        ; Auto size: 9
        MOV       A,#-0x9
        LCALL     ?ALLOC_XSTACK8
          CFI CFA_XSP16 add(XSP16, 25)
//  947   zAddrType_t dstAddr = { 0 };
        MOV       DPTR,#`?<Constant {{0}}>`
        MOV       R4,?XSP + 0
        MOV       R5,?XSP + 1
        MOV       A,#0x9
        LCALL     ?MOVE_LONG8_XDATA_XDATA
//  948   
//  949   // Look for the first respondent
//  950   if ( pRespondentCurr == NULL )
        MOV       DPTR,#pRespondentCurr
        LCALL     ??Subroutine52_0 & 0xFFFF
??CrossCallReturnLabel_110:
        JNZ       ??bdb_ProcessRespondentList_0
//  951   {
//  952     pRespondentCurr = bdb_getRespondentRetry(pRespondentHead);
        ; Setup parameters for call to function bdb_getRespondentRetry
        LCALL     ?Subroutine10 & 0xFFFF
//  953     
//  954     // If null, then no responses from Identify query request
//  955     if ( (pRespondentCurr == NULL) )
??CrossCallReturnLabel_9:
        JNZ       ??CrossCallReturnLabel_44
//  956     {
//  957       //No responses, then no responses
//  958       if(pRespondentHead == NULL)
        MOV       DPTR,#pRespondentHead
        LCALL     ??Subroutine52_0 & 0xFFFF
??CrossCallReturnLabel_111:
        JNZ       ??bdb_ProcessRespondentList_1
//  959       {
//  960         bdb_exitFindingBindingWStatus( BDB_COMMISSIONING_FB_NO_IDENTIFY_QUERY_RESPONSE );
        ; Setup parameters for call to function bdb_exitFindingBindingWStatus
        MOV       R1,#0xb
        SJMP      ??bdb_ProcessRespondentList_2
//  961       }
//  962       //Responses and binded to all clusters possible
//  963       else
//  964       {
//  965         bdb_exitFindingBindingWStatus( BDB_COMMISSIONING_SUCCESS );
//  966       }
//  967       return;
//  968     }
//  969   }
//  970   else
//  971   {
//  972     //Validate that we are not processing a missing IEEE Address before chaning 
//  973     //the current respondent to be process
//  974     if((pRespondentCurr->attempts & FINDING_AND_BINDING_MISSING_IEEE_ADDR) &&
//  975        ((pRespondentCurr->attempts & (~FINDING_AND_BINDING_MISSING_IEEE_ADDR)) >= FINDING_AND_BINDING_MAX_ATTEMPTS))
??bdb_ProcessRespondentList_0:
        MOV       DPTR,#pRespondentCurr
        MOVX      A,@DPTR
        ADD       A,#0xc
        MOV       R0,A
        INC       DPTR
        MOVX      A,@DPTR
        ADDC      A,#0x0
        MOV       DPL,R0
        MOV       DPH,A
        MOVX      A,@DPTR
        MOV       C,0xE0 /* A   */.7
        JNC       ??CrossCallReturnLabel_44
        ANL       A,#0x7f
        CLR       C
        SUBB      A,#0x4
        JC        ??CrossCallReturnLabel_44
//  976     {
//  977       if(pRespondentNext == NULL)
        MOV       DPTR,#pRespondentNext
        LCALL     ??Subroutine52_0 & 0xFFFF
??CrossCallReturnLabel_112:
        JNZ       ??bdb_ProcessRespondentList_3
//  978       {
//  979         //Review the whole list if we have simple desc that we need to attempt.
//  980         pRespondentCurr = bdb_getRespondentRetry(pRespondentHead);
        ; Setup parameters for call to function bdb_getRespondentRetry
        LCALL     ?Subroutine10 & 0xFFFF
//  981           
//  982         if(pRespondentCurr == NULL)
??CrossCallReturnLabel_10:
        JNZ       ??CrossCallReturnLabel_44
//  983         {
//  984           bdb_exitFindingBindingWStatus( BDB_COMMISSIONING_SUCCESS );
        ; Setup parameters for call to function bdb_exitFindingBindingWStatus
??bdb_ProcessRespondentList_1:
        MOV       R1,#0x0
??bdb_ProcessRespondentList_2:
        LCALL     `??bdb_exitFindingBindingWStatus::?relay`; Banked call to: bdb_exitFindingBindingWStatus
//  985           return;
        LJMP      ??CrossCallReturnLabel_90 & 0xFFFF
//  986         }
//  987       }
//  988       else
//  989       {
//  990         pRespondentCurr = pRespondentNext;
??bdb_ProcessRespondentList_3:
        MOV       DPTR,#pRespondentCurr
        LCALL     ??Subroutine38_0 & 0xFFFF
//  991       }
//  992     }
//  993   }
//  994   
//  995   //Start the timer to process the next respondent
//  996   osal_start_timerEx( bdb_TaskID, BDB_RESPONDENT_PROCESS_TIMEOUT, SIMPLEDESC_RESPONSE_TIMEOUT );
??CrossCallReturnLabel_44:
        ; Setup parameters for call to function osal_start_timerEx
        MOV       DPTR,#zgPollRate
        MOV       R0,#?V0
        LCALL     ?L_MOV_X
        MOV       DPTR,#__Constant_3
        MOV       R0,#?V4
        LCALL     ?L_MOV_X
        MOV       R0,#?V0
        MOV       R1,#?V4
        LCALL     ?L_MUL
        MOV       R0,#?V0
        LCALL     ?PUSH_XSTACK_I_FOUR
          CFI CFA_XSP16 add(XSP16, 29)
        MOV       R2,#0x0
        MOV       R3,#0x40
        MOV       DPTR,#bdb_TaskID
        MOVX      A,@DPTR
        MOV       R1,A
        LCALL     `??osal_start_timerEx::?relay`; Banked call to: osal_start_timerEx
        MOV       A,#0x4
        LCALL     ?DEALLOC_XSTACK8
          CFI CFA_XSP16 add(XSP16, 25)
//  997   
//  998   //If ParentLost is reported, then do not attempt send SimpleDesc, mark those as pending, 
//  999   //if Parent Lost is restored, then these simpleDesc attempts will be restored to 0
// 1000   if(bdbCommissioningProcedureState.bdbCommissioningState != BDB_PARENT_LOST)
        MOV       DPTR,#bdbCommissioningProcedureState
        MOVX      A,@DPTR
        XRL       A,#0x8
        MOV       DPTR,#pRespondentCurr
        JZ        ??bdb_ProcessRespondentList_4
// 1001   {
// 1002     dstAddr.addr.shortAddr = pRespondentCurr->data.addr.shortAddr;
        LCALL     ??Subroutine41_0 & 0xFFFF
??CrossCallReturnLabel_58:
        LCALL     ?Subroutine22 & 0xFFFF
??CrossCallReturnLabel_31:
        MOV       DPL,?XSP + 0
        MOV       DPH,?XSP + 1
        LCALL     ??Subroutine38_0 & 0xFFFF
// 1003     dstAddr.addrMode = pRespondentCurr->data.addrMode;
??CrossCallReturnLabel_45:
        LCALL     ?Subroutine18 & 0xFFFF
??CrossCallReturnLabel_86:
        ADD       A,#0x8
        MOV       DPL,A
        CLR       A
        ADDC      A,R0
        MOV       DPH,A
        MOVX      A,@DPTR
        PUSH      A
          CFI CFA_SP SP+-1
        MOV       A,#0x8
        LCALL     ?XSTACK_DISP0_8
        POP       A
          CFI CFA_SP SP+0
        LCALL     ?Subroutine6 & 0xFFFF
// 1004 
// 1005     //Update the attempts, ahead of actually sending the frame, as this is done just below
// 1006     pRespondentCurr->attempts++;
??CrossCallReturnLabel_95:
        INC       A
        LCALL     ?Subroutine6 & 0xFFFF
// 1007     
// 1008     //Send IEEE addr request or simple desc req
// 1009     if(pRespondentCurr->attempts & FINDING_AND_BINDING_MISSING_IEEE_ADDR)
??CrossCallReturnLabel_96:
        MOV       C,0xE0 /* A   */.7
        JNC       ??bdb_ProcessRespondentList_5
// 1010     {
// 1011       ZDP_IEEEAddrReq(pRespondentCurr->data.addr.shortAddr,0,0,0);
        ; Setup parameters for call to function ZDP_IEEEAddrReq
        MOV       R5,#0x0
        MOV       R4,#0x0
        MOV       R1,#0x0
        LCALL     ?Subroutine16 & 0xFFFF
// 1012     }
??CrossCallReturnLabel_59:
        LCALL     ??Subroutine45_0 & 0xFFFF
??CrossCallReturnLabel_68:
        LCALL     `??ZDP_IEEEAddrReq::?relay`; Banked call to: ZDP_IEEEAddrReq
        SJMP      ??bdb_ProcessRespondentList_6
// 1013     else
// 1014     {
// 1015       //Send simple descriptor
// 1016       ZDP_SimpleDescReq( &dstAddr, pRespondentCurr->data.addr.shortAddr, pRespondentCurr->data.endPoint, 0 );
??bdb_ProcessRespondentList_5:
        ; Setup parameters for call to function ZDP_SimpleDescReq
        MOV       ?V0,#0x0
        MOV       R0,#?V0
        LCALL     ?PUSH_XSTACK_I_ONE
          CFI CFA_XSP16 add(XSP16, 26)
        LCALL     ?Subroutine18 & 0xFFFF
// 1017     }
// 1018   }
??CrossCallReturnLabel_87:
        ADD       A,#0x9
        MOV       DPL,A
        CLR       A
        ADDC      A,R0
        MOV       DPH,A
        MOVX      A,@DPTR
        MOV       R1,A
        LCALL     ?Subroutine16 & 0xFFFF
??CrossCallReturnLabel_60:
        MOVX      A,@DPTR
        MOV       R4,A
        INC       DPTR
        MOVX      A,@DPTR
        MOV       R5,A
        MOV       A,#0x1
        LCALL     ?XSTACK_DISP101_8
        LCALL     `??ZDP_SimpleDescReq::?relay`; Banked call to: ZDP_SimpleDescReq
        MOV       A,#0x1
        LCALL     ?DEALLOC_XSTACK8
          CFI CFA_XSP16 add(XSP16, 25)
        SJMP      ??bdb_ProcessRespondentList_6
// 1019   else
// 1020   {
// 1021     //Stop any attempt due to parent lost
// 1022     pRespondentCurr->attempts |= FINDING_AND_BINDING_PARENT_LOST;
??bdb_ProcessRespondentList_4:
        LCALL     ??Subroutine51_0 & 0xFFFF
// 1023   }
??CrossCallReturnLabel_98:
        SETB      0xE0 /* A   */.6
        MOVX      @DPTR,A
// 1024   
// 1025   //Search for the next respondant that has not enough tries in the list
// 1026   pRespondentNext = bdb_getRespondentRetry(pRespondentCurr->pNext);
??bdb_ProcessRespondentList_6:
        ; Setup parameters for call to function bdb_getRespondentRetry
        LCALL     ?Subroutine18 & 0xFFFF
??CrossCallReturnLabel_88:
        ADD       A,#0xf
        MOV       DPL,A
        CLR       A
        ADDC      A,R0
        MOV       DPH,A
        LCALL     ??Subroutine45_0 & 0xFFFF
??CrossCallReturnLabel_69:
        LCALL     `??bdb_getRespondentRetry::?relay`; Banked call to: bdb_getRespondentRetry
        MOV       DPTR,#pRespondentNext
        LCALL     ??Subroutine49_0 & 0xFFFF
// 1027 }
??CrossCallReturnLabel_90:
        MOV       A,#0x9
        LCALL     ?DEALLOC_XSTACK8
          CFI CFA_XSP16 add(XSP16, 16)
        MOV       R7,#0x8
        LJMP      ?BANKED_LEAVE_XDATA
          CFI EndBlock cfiBlock229

        RSEG BANKED_CODE:HUGECODE:NOROOT(0)
?Subroutine10:
          CFI Block cfiCond230 Using cfiCommon0
          CFI Function bdb_ProcessRespondentList
          CFI Conditional ??CrossCallReturnLabel_9
          CFI R6 load(1, XDATA, add(CFA_XSP16, literal(-16)))
          CFI VB load(1, XDATA, add(CFA_XSP16, literal(-15)))
          CFI V0 load(1, XDATA, add(CFA_XSP16, literal(-14)))
          CFI V1 load(1, XDATA, add(CFA_XSP16, literal(-13)))
          CFI V2 load(1, XDATA, add(CFA_XSP16, literal(-12)))
          CFI V3 load(1, XDATA, add(CFA_XSP16, literal(-11)))
          CFI V4 load(1, XDATA, add(CFA_XSP16, literal(-10)))
          CFI V5 load(1, XDATA, add(CFA_XSP16, literal(-9)))
          CFI V6 load(1, XDATA, add(CFA_XSP16, literal(-8)))
          CFI V7 load(1, XDATA, add(CFA_XSP16, literal(-7)))
          CFI R7 load(1, XDATA, add(CFA_XSP16, literal(-6)))
          CFI ?RET_LOW load(1, XDATA, add(CFA_XSP16, literal(-5)))
          CFI ?RET_HIGH load(1, XDATA, add(CFA_XSP16, literal(-4)))
          CFI ?BRET_EXT load(1, XDATA, add(CFA_XSP16, literal(-3)))
          CFI DPL0 load(1, XDATA, add(CFA_XSP16, literal(-2)))
          CFI DPH0 load(1, XDATA, add(CFA_XSP16, literal(-1)))
          CFI CFA_SP SP+-2
          CFI CFA_XSP16 add(XSP16, 25)
          CFI Block cfiCond231 Using cfiCommon0
          CFI (cfiCond231) Function bdb_ProcessRespondentList
          CFI (cfiCond231) Conditional ??CrossCallReturnLabel_10
          CFI (cfiCond231) R6 load(1, XDATA, add(CFA_XSP16, literal(-16)))
          CFI (cfiCond231) VB load(1, XDATA, add(CFA_XSP16, literal(-15)))
          CFI (cfiCond231) V0 load(1, XDATA, add(CFA_XSP16, literal(-14)))
          CFI (cfiCond231) V1 load(1, XDATA, add(CFA_XSP16, literal(-13)))
          CFI (cfiCond231) V2 load(1, XDATA, add(CFA_XSP16, literal(-12)))
          CFI (cfiCond231) V3 load(1, XDATA, add(CFA_XSP16, literal(-11)))
          CFI (cfiCond231) V4 load(1, XDATA, add(CFA_XSP16, literal(-10)))
          CFI (cfiCond231) V5 load(1, XDATA, add(CFA_XSP16, literal(-9)))
          CFI (cfiCond231) V6 load(1, XDATA, add(CFA_XSP16, literal(-8)))
          CFI (cfiCond231) V7 load(1, XDATA, add(CFA_XSP16, literal(-7)))
          CFI (cfiCond231) R7 load(1, XDATA, add(CFA_XSP16, literal(-6)))
          CFI (cfiCond231) ?RET_LOW load(1, XDATA, add(CFA_XSP16, literal(-5)))
          CFI (cfiCond231) ?RET_HIGH load(1, XDATA, add(CFA_XSP16, literal(-4)))
          CFI (cfiCond231) ?BRET_EXT load(1, XDATA, add(CFA_XSP16, literal(-3)))
          CFI (cfiCond231) DPL0 load(1, XDATA, add(CFA_XSP16, literal(-2)))
          CFI (cfiCond231) DPH0 load(1, XDATA, add(CFA_XSP16, literal(-1)))
          CFI (cfiCond231) CFA_SP SP+-2
          CFI (cfiCond231) CFA_XSP16 add(XSP16, 25)
          CFI Block cfiPicker232 Using cfiCommon1
          CFI (cfiPicker232) NoFunction
          CFI (cfiPicker232) Picker
        MOV       DPTR,#pRespondentHead
        LCALL     ?Subroutine29 & 0xFFFF
??CrossCallReturnLabel_74:
        LCALL     `??bdb_getRespondentRetry::?relay`; Banked call to: bdb_getRespondentRetry
        MOV       DPTR,#pRespondentCurr
        LCALL     ??Subroutine49_0 & 0xFFFF
??CrossCallReturnLabel_92:
        MOV       R1,A
        MOV       A,R2
        ORL       A,R1
        RET
          CFI EndBlock cfiCond230
          CFI EndBlock cfiCond231
          CFI EndBlock cfiPicker232

        RSEG BANKED_CODE:HUGECODE:NOROOT(0)
?Subroutine34:
          CFI Block cfiCond233 Using cfiCommon0
          CFI Function bdb_zclFindingBindingAddBindEntry
          CFI Conditional ??CrossCallReturnLabel_93
          CFI R6 load(1, XDATA, add(CFA_XSP16, literal(-12)))
          CFI VB load(1, XDATA, add(CFA_XSP16, literal(-11)))
          CFI V0 load(1, XDATA, add(CFA_XSP16, literal(-10)))
          CFI V1 load(1, XDATA, add(CFA_XSP16, literal(-9)))
          CFI V2 load(1, XDATA, add(CFA_XSP16, literal(-8)))
          CFI V3 load(1, XDATA, add(CFA_XSP16, literal(-7)))
          CFI R7 load(1, XDATA, add(CFA_XSP16, literal(-6)))
          CFI ?RET_LOW load(1, XDATA, add(CFA_XSP16, literal(-5)))
          CFI ?RET_HIGH load(1, XDATA, add(CFA_XSP16, literal(-4)))
          CFI ?BRET_EXT load(1, XDATA, add(CFA_XSP16, literal(-3)))
          CFI DPL0 load(1, XDATA, add(CFA_XSP16, literal(-2)))
          CFI DPH0 load(1, XDATA, add(CFA_XSP16, literal(-1)))
          CFI CFA_SP SP+-2
          CFI CFA_XSP16 add(XSP16, 14)
          CFI Block cfiCond234 Using cfiCommon0
          CFI (cfiCond234) Function bdb_ProcessIEEEAddrRsp
          CFI (cfiCond234) Conditional ??CrossCallReturnLabel_94, ??CrossCallReturnLabel_103
          CFI (cfiCond234) R6 load(1, XDATA, add(CFA_XSP16, literal(-10)))
          CFI (cfiCond234) VB load(1, XDATA, add(CFA_XSP16, literal(-9)))
          CFI (cfiCond234) V0 load(1, XDATA, add(CFA_XSP16, literal(-8)))
          CFI (cfiCond234) V1 load(1, XDATA, add(CFA_XSP16, literal(-7)))
          CFI (cfiCond234) R7 load(1, XDATA, add(CFA_XSP16, literal(-6)))
          CFI (cfiCond234) ?RET_LOW load(1, XDATA, add(CFA_XSP16, literal(-5)))
          CFI (cfiCond234) ?RET_HIGH load(1, XDATA, add(CFA_XSP16, literal(-4)))
          CFI (cfiCond234) ?BRET_EXT load(1, XDATA, add(CFA_XSP16, literal(-3)))
          CFI (cfiCond234) DPL0 load(1, XDATA, add(CFA_XSP16, literal(-2)))
          CFI (cfiCond234) DPH0 load(1, XDATA, add(CFA_XSP16, literal(-1)))
          CFI (cfiCond234) CFA_SP SP+-4
          CFI (cfiCond234) CFA_XSP16 add(XSP16, 25)
          CFI Block cfiCond235 Using cfiCommon0
          CFI (cfiCond235) Function bdb_ProcessSimpleDesc
          CFI (cfiCond235) Conditional ??CrossCallReturnLabel_94, ??CrossCallReturnLabel_104
          CFI (cfiCond235) R6 load(1, XDATA, add(CFA_XSP16, literal(-9)))
          CFI (cfiCond235) VB load(1, XDATA, add(CFA_XSP16, literal(-8)))
          CFI (cfiCond235) V0 load(1, XDATA, add(CFA_XSP16, literal(-7)))
          CFI (cfiCond235) R7 load(1, XDATA, add(CFA_XSP16, literal(-6)))
          CFI (cfiCond235) ?RET_LOW load(1, XDATA, add(CFA_XSP16, literal(-5)))
          CFI (cfiCond235) ?RET_HIGH load(1, XDATA, add(CFA_XSP16, literal(-4)))
          CFI (cfiCond235) ?BRET_EXT load(1, XDATA, add(CFA_XSP16, literal(-3)))
          CFI (cfiCond235) DPL0 load(1, XDATA, add(CFA_XSP16, literal(-2)))
          CFI (cfiCond235) DPH0 load(1, XDATA, add(CFA_XSP16, literal(-1)))
          CFI (cfiCond235) CFA_SP SP+-4
          CFI (cfiCond235) CFA_XSP16 add(XSP16, 28)
          CFI Block cfiPicker236 Using cfiCommon1
          CFI (cfiPicker236) NoFunction
          CFI (cfiPicker236) Picker
        MOV       DPL,?XSP + 0
        MOV       DPH,?XSP + 1
          CFI EndBlock cfiCond233
          CFI EndBlock cfiCond234
          CFI EndBlock cfiCond235
          CFI EndBlock cfiPicker236
        REQUIRE ??Subroutine49_0
        ; // Fall through to label ??Subroutine49_0

        RSEG BANKED_CODE:HUGECODE:NOROOT(0)
??Subroutine49_0:
          CFI Block cfiCond237 Using cfiCommon0
          CFI Function bdb_RegisterIdentifyTimeChangeCB
          CFI Conditional ??CrossCallReturnLabel_91
          CFI DPL0 Frame(CFA_SP, 4)
          CFI DPH0 Frame(CFA_SP, 5)
          CFI CFA_SP SP+-7
          CFI Block cfiCond238 Using cfiCommon0
          CFI (cfiCond238) Function bdb_RegisterBindNotificationCB
          CFI (cfiCond238) Conditional ??CrossCallReturnLabel_91
          CFI (cfiCond238) DPL0 Frame(CFA_SP, 4)
          CFI (cfiCond238) DPH0 Frame(CFA_SP, 5)
          CFI (cfiCond238) CFA_SP SP+-7
          CFI Block cfiCond239 Using cfiCommon0
          CFI (cfiCond239) Function bdb_ProcessRespondentList
          CFI (cfiCond239) Conditional ??CrossCallReturnLabel_90
          CFI (cfiCond239) R6 load(1, XDATA, add(CFA_XSP16, literal(-16)))
          CFI (cfiCond239) VB load(1, XDATA, add(CFA_XSP16, literal(-15)))
          CFI (cfiCond239) V0 load(1, XDATA, add(CFA_XSP16, literal(-14)))
          CFI (cfiCond239) V1 load(1, XDATA, add(CFA_XSP16, literal(-13)))
          CFI (cfiCond239) V2 load(1, XDATA, add(CFA_XSP16, literal(-12)))
          CFI (cfiCond239) V3 load(1, XDATA, add(CFA_XSP16, literal(-11)))
          CFI (cfiCond239) V4 load(1, XDATA, add(CFA_XSP16, literal(-10)))
          CFI (cfiCond239) V5 load(1, XDATA, add(CFA_XSP16, literal(-9)))
          CFI (cfiCond239) V6 load(1, XDATA, add(CFA_XSP16, literal(-8)))
          CFI (cfiCond239) V7 load(1, XDATA, add(CFA_XSP16, literal(-7)))
          CFI (cfiCond239) R7 load(1, XDATA, add(CFA_XSP16, literal(-6)))
          CFI (cfiCond239) ?RET_LOW load(1, XDATA, add(CFA_XSP16, literal(-5)))
          CFI (cfiCond239) ?RET_HIGH load(1, XDATA, add(CFA_XSP16, literal(-4)))
          CFI (cfiCond239) ?BRET_EXT load(1, XDATA, add(CFA_XSP16, literal(-3)))
          CFI (cfiCond239) DPL0 load(1, XDATA, add(CFA_XSP16, literal(-2)))
          CFI (cfiCond239) DPH0 load(1, XDATA, add(CFA_XSP16, literal(-1)))
          CFI (cfiCond239) CFA_SP SP+-2
          CFI (cfiCond239) CFA_XSP16 add(XSP16, 25)
          CFI Block cfiCond240 Using cfiCommon0
          CFI (cfiCond240) Function bdb_ProcessRespondentList
          CFI (cfiCond240) Conditional ??CrossCallReturnLabel_92, ??CrossCallReturnLabel_9
          CFI (cfiCond240) R6 load(1, XDATA, add(CFA_XSP16, literal(-16)))
          CFI (cfiCond240) VB load(1, XDATA, add(CFA_XSP16, literal(-15)))
          CFI (cfiCond240) V0 load(1, XDATA, add(CFA_XSP16, literal(-14)))
          CFI (cfiCond240) V1 load(1, XDATA, add(CFA_XSP16, literal(-13)))
          CFI (cfiCond240) V2 load(1, XDATA, add(CFA_XSP16, literal(-12)))
          CFI (cfiCond240) V3 load(1, XDATA, add(CFA_XSP16, literal(-11)))
          CFI (cfiCond240) V4 load(1, XDATA, add(CFA_XSP16, literal(-10)))
          CFI (cfiCond240) V5 load(1, XDATA, add(CFA_XSP16, literal(-9)))
          CFI (cfiCond240) V6 load(1, XDATA, add(CFA_XSP16, literal(-8)))
          CFI (cfiCond240) V7 load(1, XDATA, add(CFA_XSP16, literal(-7)))
          CFI (cfiCond240) R7 load(1, XDATA, add(CFA_XSP16, literal(-6)))
          CFI (cfiCond240) ?RET_LOW load(1, XDATA, add(CFA_XSP16, literal(-5)))
          CFI (cfiCond240) ?RET_HIGH load(1, XDATA, add(CFA_XSP16, literal(-4)))
          CFI (cfiCond240) ?BRET_EXT load(1, XDATA, add(CFA_XSP16, literal(-3)))
          CFI (cfiCond240) DPL0 load(1, XDATA, add(CFA_XSP16, literal(-2)))
          CFI (cfiCond240) DPH0 load(1, XDATA, add(CFA_XSP16, literal(-1)))
          CFI (cfiCond240) CFA_SP SP+-4
          CFI (cfiCond240) CFA_XSP16 add(XSP16, 25)
          CFI Block cfiCond241 Using cfiCommon0
          CFI (cfiCond241) Function bdb_ProcessRespondentList
          CFI (cfiCond241) Conditional ??CrossCallReturnLabel_92, ??CrossCallReturnLabel_10
          CFI (cfiCond241) R6 load(1, XDATA, add(CFA_XSP16, literal(-16)))
          CFI (cfiCond241) VB load(1, XDATA, add(CFA_XSP16, literal(-15)))
          CFI (cfiCond241) V0 load(1, XDATA, add(CFA_XSP16, literal(-14)))
          CFI (cfiCond241) V1 load(1, XDATA, add(CFA_XSP16, literal(-13)))
          CFI (cfiCond241) V2 load(1, XDATA, add(CFA_XSP16, literal(-12)))
          CFI (cfiCond241) V3 load(1, XDATA, add(CFA_XSP16, literal(-11)))
          CFI (cfiCond241) V4 load(1, XDATA, add(CFA_XSP16, literal(-10)))
          CFI (cfiCond241) V5 load(1, XDATA, add(CFA_XSP16, literal(-9)))
          CFI (cfiCond241) V6 load(1, XDATA, add(CFA_XSP16, literal(-8)))
          CFI (cfiCond241) V7 load(1, XDATA, add(CFA_XSP16, literal(-7)))
          CFI (cfiCond241) R7 load(1, XDATA, add(CFA_XSP16, literal(-6)))
          CFI (cfiCond241) ?RET_LOW load(1, XDATA, add(CFA_XSP16, literal(-5)))
          CFI (cfiCond241) ?RET_HIGH load(1, XDATA, add(CFA_XSP16, literal(-4)))
          CFI (cfiCond241) ?BRET_EXT load(1, XDATA, add(CFA_XSP16, literal(-3)))
          CFI (cfiCond241) DPL0 load(1, XDATA, add(CFA_XSP16, literal(-2)))
          CFI (cfiCond241) DPH0 load(1, XDATA, add(CFA_XSP16, literal(-1)))
          CFI (cfiCond241) CFA_SP SP+-4
          CFI (cfiCond241) CFA_XSP16 add(XSP16, 25)
          CFI Block cfiCond242 Using cfiCommon0
          CFI (cfiCond242) Function bdb_zclFindingBindingAddBindEntry
          CFI (cfiCond242) Conditional ??CrossCallReturnLabel_93
          CFI (cfiCond242) R6 load(1, XDATA, add(CFA_XSP16, literal(-12)))
          CFI (cfiCond242) VB load(1, XDATA, add(CFA_XSP16, literal(-11)))
          CFI (cfiCond242) V0 load(1, XDATA, add(CFA_XSP16, literal(-10)))
          CFI (cfiCond242) V1 load(1, XDATA, add(CFA_XSP16, literal(-9)))
          CFI (cfiCond242) V2 load(1, XDATA, add(CFA_XSP16, literal(-8)))
          CFI (cfiCond242) V3 load(1, XDATA, add(CFA_XSP16, literal(-7)))
          CFI (cfiCond242) R7 load(1, XDATA, add(CFA_XSP16, literal(-6)))
          CFI (cfiCond242) ?RET_LOW load(1, XDATA, add(CFA_XSP16, literal(-5)))
          CFI (cfiCond242) ?RET_HIGH load(1, XDATA, add(CFA_XSP16, literal(-4)))
          CFI (cfiCond242) ?BRET_EXT load(1, XDATA, add(CFA_XSP16, literal(-3)))
          CFI (cfiCond242) DPL0 load(1, XDATA, add(CFA_XSP16, literal(-2)))
          CFI (cfiCond242) DPH0 load(1, XDATA, add(CFA_XSP16, literal(-1)))
          CFI (cfiCond242) CFA_SP SP+-2
          CFI (cfiCond242) CFA_XSP16 add(XSP16, 14)
          CFI Block cfiCond243 Using cfiCommon0
          CFI (cfiCond243) Function bdb_ProcessIEEEAddrRsp
          CFI (cfiCond243) Conditional ??CrossCallReturnLabel_94, ??CrossCallReturnLabel_103
          CFI (cfiCond243) R6 load(1, XDATA, add(CFA_XSP16, literal(-10)))
          CFI (cfiCond243) VB load(1, XDATA, add(CFA_XSP16, literal(-9)))
          CFI (cfiCond243) V0 load(1, XDATA, add(CFA_XSP16, literal(-8)))
          CFI (cfiCond243) V1 load(1, XDATA, add(CFA_XSP16, literal(-7)))
          CFI (cfiCond243) R7 load(1, XDATA, add(CFA_XSP16, literal(-6)))
          CFI (cfiCond243) ?RET_LOW load(1, XDATA, add(CFA_XSP16, literal(-5)))
          CFI (cfiCond243) ?RET_HIGH load(1, XDATA, add(CFA_XSP16, literal(-4)))
          CFI (cfiCond243) ?BRET_EXT load(1, XDATA, add(CFA_XSP16, literal(-3)))
          CFI (cfiCond243) DPL0 load(1, XDATA, add(CFA_XSP16, literal(-2)))
          CFI (cfiCond243) DPH0 load(1, XDATA, add(CFA_XSP16, literal(-1)))
          CFI (cfiCond243) CFA_SP SP+-4
          CFI (cfiCond243) CFA_XSP16 add(XSP16, 25)
          CFI Block cfiCond244 Using cfiCommon0
          CFI (cfiCond244) Function bdb_ProcessSimpleDesc
          CFI (cfiCond244) Conditional ??CrossCallReturnLabel_94, ??CrossCallReturnLabel_104
          CFI (cfiCond244) R6 load(1, XDATA, add(CFA_XSP16, literal(-9)))
          CFI (cfiCond244) VB load(1, XDATA, add(CFA_XSP16, literal(-8)))
          CFI (cfiCond244) V0 load(1, XDATA, add(CFA_XSP16, literal(-7)))
          CFI (cfiCond244) R7 load(1, XDATA, add(CFA_XSP16, literal(-6)))
          CFI (cfiCond244) ?RET_LOW load(1, XDATA, add(CFA_XSP16, literal(-5)))
          CFI (cfiCond244) ?RET_HIGH load(1, XDATA, add(CFA_XSP16, literal(-4)))
          CFI (cfiCond244) ?BRET_EXT load(1, XDATA, add(CFA_XSP16, literal(-3)))
          CFI (cfiCond244) DPL0 load(1, XDATA, add(CFA_XSP16, literal(-2)))
          CFI (cfiCond244) DPH0 load(1, XDATA, add(CFA_XSP16, literal(-1)))
          CFI (cfiCond244) CFA_SP SP+-4
          CFI (cfiCond244) CFA_XSP16 add(XSP16, 28)
          CFI Block cfiPicker245 Using cfiCommon1
          CFI (cfiPicker245) NoFunction
          CFI (cfiPicker245) Picker
        MOV       A,R2
          CFI EndBlock cfiCond237
          CFI EndBlock cfiCond238
          CFI EndBlock cfiCond239
          CFI EndBlock cfiCond240
          CFI EndBlock cfiCond241
          CFI EndBlock cfiCond242
          CFI EndBlock cfiCond243
          CFI EndBlock cfiCond244
          CFI EndBlock cfiPicker245
        REQUIRE ??Subroutine50_0
        ; // Fall through to label ??Subroutine50_0

        RSEG BANKED_CODE:HUGECODE:NOROOT(0)
??Subroutine50_0:
          CFI Block cfiCond246 Using cfiCommon0
          CFI Function bdb_ProcessSimpleDesc
          CFI Conditional ??CrossCallReturnLabel_89
          CFI R6 load(1, XDATA, add(CFA_XSP16, literal(-9)))
          CFI VB load(1, XDATA, add(CFA_XSP16, literal(-8)))
          CFI V0 load(1, XDATA, add(CFA_XSP16, literal(-7)))
          CFI R7 load(1, XDATA, add(CFA_XSP16, literal(-6)))
          CFI ?RET_LOW load(1, XDATA, add(CFA_XSP16, literal(-5)))
          CFI ?RET_HIGH load(1, XDATA, add(CFA_XSP16, literal(-4)))
          CFI ?BRET_EXT load(1, XDATA, add(CFA_XSP16, literal(-3)))
          CFI DPL0 load(1, XDATA, add(CFA_XSP16, literal(-2)))
          CFI DPH0 load(1, XDATA, add(CFA_XSP16, literal(-1)))
          CFI CFA_SP SP+-2
          CFI CFA_XSP16 add(XSP16, 28)
          CFI Block cfiCond247 Using cfiCommon0
          CFI (cfiCond247) Function bdb_RegisterIdentifyTimeChangeCB
          CFI (cfiCond247) Conditional ??CrossCallReturnLabel_91
          CFI (cfiCond247) DPL0 Frame(CFA_SP, 4)
          CFI (cfiCond247) DPH0 Frame(CFA_SP, 5)
          CFI (cfiCond247) CFA_SP SP+-7
          CFI Block cfiCond248 Using cfiCommon0
          CFI (cfiCond248) Function bdb_RegisterBindNotificationCB
          CFI (cfiCond248) Conditional ??CrossCallReturnLabel_91
          CFI (cfiCond248) DPL0 Frame(CFA_SP, 4)
          CFI (cfiCond248) DPH0 Frame(CFA_SP, 5)
          CFI (cfiCond248) CFA_SP SP+-7
          CFI Block cfiCond249 Using cfiCommon0
          CFI (cfiCond249) Function bdb_ProcessRespondentList
          CFI (cfiCond249) Conditional ??CrossCallReturnLabel_90
          CFI (cfiCond249) R6 load(1, XDATA, add(CFA_XSP16, literal(-16)))
          CFI (cfiCond249) VB load(1, XDATA, add(CFA_XSP16, literal(-15)))
          CFI (cfiCond249) V0 load(1, XDATA, add(CFA_XSP16, literal(-14)))
          CFI (cfiCond249) V1 load(1, XDATA, add(CFA_XSP16, literal(-13)))
          CFI (cfiCond249) V2 load(1, XDATA, add(CFA_XSP16, literal(-12)))
          CFI (cfiCond249) V3 load(1, XDATA, add(CFA_XSP16, literal(-11)))
          CFI (cfiCond249) V4 load(1, XDATA, add(CFA_XSP16, literal(-10)))
          CFI (cfiCond249) V5 load(1, XDATA, add(CFA_XSP16, literal(-9)))
          CFI (cfiCond249) V6 load(1, XDATA, add(CFA_XSP16, literal(-8)))
          CFI (cfiCond249) V7 load(1, XDATA, add(CFA_XSP16, literal(-7)))
          CFI (cfiCond249) R7 load(1, XDATA, add(CFA_XSP16, literal(-6)))
          CFI (cfiCond249) ?RET_LOW load(1, XDATA, add(CFA_XSP16, literal(-5)))
          CFI (cfiCond249) ?RET_HIGH load(1, XDATA, add(CFA_XSP16, literal(-4)))
          CFI (cfiCond249) ?BRET_EXT load(1, XDATA, add(CFA_XSP16, literal(-3)))
          CFI (cfiCond249) DPL0 load(1, XDATA, add(CFA_XSP16, literal(-2)))
          CFI (cfiCond249) DPH0 load(1, XDATA, add(CFA_XSP16, literal(-1)))
          CFI (cfiCond249) CFA_SP SP+-2
          CFI (cfiCond249) CFA_XSP16 add(XSP16, 25)
          CFI Block cfiCond250 Using cfiCommon0
          CFI (cfiCond250) Function bdb_ProcessRespondentList
          CFI (cfiCond250) Conditional ??CrossCallReturnLabel_92, ??CrossCallReturnLabel_9
          CFI (cfiCond250) R6 load(1, XDATA, add(CFA_XSP16, literal(-16)))
          CFI (cfiCond250) VB load(1, XDATA, add(CFA_XSP16, literal(-15)))
          CFI (cfiCond250) V0 load(1, XDATA, add(CFA_XSP16, literal(-14)))
          CFI (cfiCond250) V1 load(1, XDATA, add(CFA_XSP16, literal(-13)))
          CFI (cfiCond250) V2 load(1, XDATA, add(CFA_XSP16, literal(-12)))
          CFI (cfiCond250) V3 load(1, XDATA, add(CFA_XSP16, literal(-11)))
          CFI (cfiCond250) V4 load(1, XDATA, add(CFA_XSP16, literal(-10)))
          CFI (cfiCond250) V5 load(1, XDATA, add(CFA_XSP16, literal(-9)))
          CFI (cfiCond250) V6 load(1, XDATA, add(CFA_XSP16, literal(-8)))
          CFI (cfiCond250) V7 load(1, XDATA, add(CFA_XSP16, literal(-7)))
          CFI (cfiCond250) R7 load(1, XDATA, add(CFA_XSP16, literal(-6)))
          CFI (cfiCond250) ?RET_LOW load(1, XDATA, add(CFA_XSP16, literal(-5)))
          CFI (cfiCond250) ?RET_HIGH load(1, XDATA, add(CFA_XSP16, literal(-4)))
          CFI (cfiCond250) ?BRET_EXT load(1, XDATA, add(CFA_XSP16, literal(-3)))
          CFI (cfiCond250) DPL0 load(1, XDATA, add(CFA_XSP16, literal(-2)))
          CFI (cfiCond250) DPH0 load(1, XDATA, add(CFA_XSP16, literal(-1)))
          CFI (cfiCond250) CFA_SP SP+-4
          CFI (cfiCond250) CFA_XSP16 add(XSP16, 25)
          CFI Block cfiCond251 Using cfiCommon0
          CFI (cfiCond251) Function bdb_ProcessRespondentList
          CFI (cfiCond251) Conditional ??CrossCallReturnLabel_92, ??CrossCallReturnLabel_10
          CFI (cfiCond251) R6 load(1, XDATA, add(CFA_XSP16, literal(-16)))
          CFI (cfiCond251) VB load(1, XDATA, add(CFA_XSP16, literal(-15)))
          CFI (cfiCond251) V0 load(1, XDATA, add(CFA_XSP16, literal(-14)))
          CFI (cfiCond251) V1 load(1, XDATA, add(CFA_XSP16, literal(-13)))
          CFI (cfiCond251) V2 load(1, XDATA, add(CFA_XSP16, literal(-12)))
          CFI (cfiCond251) V3 load(1, XDATA, add(CFA_XSP16, literal(-11)))
          CFI (cfiCond251) V4 load(1, XDATA, add(CFA_XSP16, literal(-10)))
          CFI (cfiCond251) V5 load(1, XDATA, add(CFA_XSP16, literal(-9)))
          CFI (cfiCond251) V6 load(1, XDATA, add(CFA_XSP16, literal(-8)))
          CFI (cfiCond251) V7 load(1, XDATA, add(CFA_XSP16, literal(-7)))
          CFI (cfiCond251) R7 load(1, XDATA, add(CFA_XSP16, literal(-6)))
          CFI (cfiCond251) ?RET_LOW load(1, XDATA, add(CFA_XSP16, literal(-5)))
          CFI (cfiCond251) ?RET_HIGH load(1, XDATA, add(CFA_XSP16, literal(-4)))
          CFI (cfiCond251) ?BRET_EXT load(1, XDATA, add(CFA_XSP16, literal(-3)))
          CFI (cfiCond251) DPL0 load(1, XDATA, add(CFA_XSP16, literal(-2)))
          CFI (cfiCond251) DPH0 load(1, XDATA, add(CFA_XSP16, literal(-1)))
          CFI (cfiCond251) CFA_SP SP+-4
          CFI (cfiCond251) CFA_XSP16 add(XSP16, 25)
          CFI Block cfiCond252 Using cfiCommon0
          CFI (cfiCond252) Function bdb_zclFindingBindingAddBindEntry
          CFI (cfiCond252) Conditional ??CrossCallReturnLabel_93
          CFI (cfiCond252) R6 load(1, XDATA, add(CFA_XSP16, literal(-12)))
          CFI (cfiCond252) VB load(1, XDATA, add(CFA_XSP16, literal(-11)))
          CFI (cfiCond252) V0 load(1, XDATA, add(CFA_XSP16, literal(-10)))
          CFI (cfiCond252) V1 load(1, XDATA, add(CFA_XSP16, literal(-9)))
          CFI (cfiCond252) V2 load(1, XDATA, add(CFA_XSP16, literal(-8)))
          CFI (cfiCond252) V3 load(1, XDATA, add(CFA_XSP16, literal(-7)))
          CFI (cfiCond252) R7 load(1, XDATA, add(CFA_XSP16, literal(-6)))
          CFI (cfiCond252) ?RET_LOW load(1, XDATA, add(CFA_XSP16, literal(-5)))
          CFI (cfiCond252) ?RET_HIGH load(1, XDATA, add(CFA_XSP16, literal(-4)))
          CFI (cfiCond252) ?BRET_EXT load(1, XDATA, add(CFA_XSP16, literal(-3)))
          CFI (cfiCond252) DPL0 load(1, XDATA, add(CFA_XSP16, literal(-2)))
          CFI (cfiCond252) DPH0 load(1, XDATA, add(CFA_XSP16, literal(-1)))
          CFI (cfiCond252) CFA_SP SP+-2
          CFI (cfiCond252) CFA_XSP16 add(XSP16, 14)
          CFI Block cfiCond253 Using cfiCommon0
          CFI (cfiCond253) Function bdb_ProcessIEEEAddrRsp
          CFI (cfiCond253) Conditional ??CrossCallReturnLabel_94, ??CrossCallReturnLabel_103
          CFI (cfiCond253) R6 load(1, XDATA, add(CFA_XSP16, literal(-10)))
          CFI (cfiCond253) VB load(1, XDATA, add(CFA_XSP16, literal(-9)))
          CFI (cfiCond253) V0 load(1, XDATA, add(CFA_XSP16, literal(-8)))
          CFI (cfiCond253) V1 load(1, XDATA, add(CFA_XSP16, literal(-7)))
          CFI (cfiCond253) R7 load(1, XDATA, add(CFA_XSP16, literal(-6)))
          CFI (cfiCond253) ?RET_LOW load(1, XDATA, add(CFA_XSP16, literal(-5)))
          CFI (cfiCond253) ?RET_HIGH load(1, XDATA, add(CFA_XSP16, literal(-4)))
          CFI (cfiCond253) ?BRET_EXT load(1, XDATA, add(CFA_XSP16, literal(-3)))
          CFI (cfiCond253) DPL0 load(1, XDATA, add(CFA_XSP16, literal(-2)))
          CFI (cfiCond253) DPH0 load(1, XDATA, add(CFA_XSP16, literal(-1)))
          CFI (cfiCond253) CFA_SP SP+-4
          CFI (cfiCond253) CFA_XSP16 add(XSP16, 25)
          CFI Block cfiCond254 Using cfiCommon0
          CFI (cfiCond254) Function bdb_ProcessSimpleDesc
          CFI (cfiCond254) Conditional ??CrossCallReturnLabel_94, ??CrossCallReturnLabel_104
          CFI (cfiCond254) R6 load(1, XDATA, add(CFA_XSP16, literal(-9)))
          CFI (cfiCond254) VB load(1, XDATA, add(CFA_XSP16, literal(-8)))
          CFI (cfiCond254) V0 load(1, XDATA, add(CFA_XSP16, literal(-7)))
          CFI (cfiCond254) R7 load(1, XDATA, add(CFA_XSP16, literal(-6)))
          CFI (cfiCond254) ?RET_LOW load(1, XDATA, add(CFA_XSP16, literal(-5)))
          CFI (cfiCond254) ?RET_HIGH load(1, XDATA, add(CFA_XSP16, literal(-4)))
          CFI (cfiCond254) ?BRET_EXT load(1, XDATA, add(CFA_XSP16, literal(-3)))
          CFI (cfiCond254) DPL0 load(1, XDATA, add(CFA_XSP16, literal(-2)))
          CFI (cfiCond254) DPH0 load(1, XDATA, add(CFA_XSP16, literal(-1)))
          CFI (cfiCond254) CFA_SP SP+-4
          CFI (cfiCond254) CFA_XSP16 add(XSP16, 28)
          CFI Block cfiPicker255 Using cfiCommon1
          CFI (cfiPicker255) NoFunction
          CFI (cfiPicker255) Picker
        MOVX      @DPTR,A
        INC       DPTR
        MOV       A,R3
        MOVX      @DPTR,A
        RET
          CFI EndBlock cfiCond246
          CFI EndBlock cfiCond247
          CFI EndBlock cfiCond248
          CFI EndBlock cfiCond249
          CFI EndBlock cfiCond250
          CFI EndBlock cfiCond251
          CFI EndBlock cfiCond252
          CFI EndBlock cfiCond253
          CFI EndBlock cfiCond254
          CFI EndBlock cfiPicker255

        RSEG BANKED_CODE:HUGECODE:NOROOT(0)
?Subroutine6:
          CFI Block cfiCond256 Using cfiCommon0
          CFI Function bdb_ProcessRespondentList
          CFI Conditional ??CrossCallReturnLabel_95
          CFI R6 load(1, XDATA, add(CFA_XSP16, literal(-16)))
          CFI VB load(1, XDATA, add(CFA_XSP16, literal(-15)))
          CFI V0 load(1, XDATA, add(CFA_XSP16, literal(-14)))
          CFI V1 load(1, XDATA, add(CFA_XSP16, literal(-13)))
          CFI V2 load(1, XDATA, add(CFA_XSP16, literal(-12)))
          CFI V3 load(1, XDATA, add(CFA_XSP16, literal(-11)))
          CFI V4 load(1, XDATA, add(CFA_XSP16, literal(-10)))
          CFI V5 load(1, XDATA, add(CFA_XSP16, literal(-9)))
          CFI V6 load(1, XDATA, add(CFA_XSP16, literal(-8)))
          CFI V7 load(1, XDATA, add(CFA_XSP16, literal(-7)))
          CFI R7 load(1, XDATA, add(CFA_XSP16, literal(-6)))
          CFI ?RET_LOW load(1, XDATA, add(CFA_XSP16, literal(-5)))
          CFI ?RET_HIGH load(1, XDATA, add(CFA_XSP16, literal(-4)))
          CFI ?BRET_EXT load(1, XDATA, add(CFA_XSP16, literal(-3)))
          CFI DPL0 load(1, XDATA, add(CFA_XSP16, literal(-2)))
          CFI DPH0 load(1, XDATA, add(CFA_XSP16, literal(-1)))
          CFI CFA_SP SP+-2
          CFI CFA_XSP16 add(XSP16, 25)
          CFI Block cfiCond257 Using cfiCommon0
          CFI (cfiCond257) Function bdb_ProcessRespondentList
          CFI (cfiCond257) Conditional ??CrossCallReturnLabel_96
          CFI (cfiCond257) R6 load(1, XDATA, add(CFA_XSP16, literal(-16)))
          CFI (cfiCond257) VB load(1, XDATA, add(CFA_XSP16, literal(-15)))
          CFI (cfiCond257) V0 load(1, XDATA, add(CFA_XSP16, literal(-14)))
          CFI (cfiCond257) V1 load(1, XDATA, add(CFA_XSP16, literal(-13)))
          CFI (cfiCond257) V2 load(1, XDATA, add(CFA_XSP16, literal(-12)))
          CFI (cfiCond257) V3 load(1, XDATA, add(CFA_XSP16, literal(-11)))
          CFI (cfiCond257) V4 load(1, XDATA, add(CFA_XSP16, literal(-10)))
          CFI (cfiCond257) V5 load(1, XDATA, add(CFA_XSP16, literal(-9)))
          CFI (cfiCond257) V6 load(1, XDATA, add(CFA_XSP16, literal(-8)))
          CFI (cfiCond257) V7 load(1, XDATA, add(CFA_XSP16, literal(-7)))
          CFI (cfiCond257) R7 load(1, XDATA, add(CFA_XSP16, literal(-6)))
          CFI (cfiCond257) ?RET_LOW load(1, XDATA, add(CFA_XSP16, literal(-5)))
          CFI (cfiCond257) ?RET_HIGH load(1, XDATA, add(CFA_XSP16, literal(-4)))
          CFI (cfiCond257) ?BRET_EXT load(1, XDATA, add(CFA_XSP16, literal(-3)))
          CFI (cfiCond257) DPL0 load(1, XDATA, add(CFA_XSP16, literal(-2)))
          CFI (cfiCond257) DPH0 load(1, XDATA, add(CFA_XSP16, literal(-1)))
          CFI (cfiCond257) CFA_SP SP+-2
          CFI (cfiCond257) CFA_XSP16 add(XSP16, 25)
          CFI Block cfiPicker258 Using cfiCommon1
          CFI (cfiPicker258) NoFunction
          CFI (cfiPicker258) Picker
        MOVX      @DPTR,A
        MOV       DPTR,#pRespondentCurr
          CFI EndBlock cfiCond256
          CFI EndBlock cfiCond257
          CFI EndBlock cfiPicker258
        REQUIRE ??Subroutine51_0
        ; // Fall through to label ??Subroutine51_0

        RSEG BANKED_CODE:HUGECODE:NOROOT(0)
??Subroutine51_0:
          CFI Block cfiCond259 Using cfiCommon0
          CFI Function bdb_ProcessSimpleDesc
          CFI Conditional ??CrossCallReturnLabel_97
          CFI R6 load(1, XDATA, add(CFA_XSP16, literal(-9)))
          CFI VB load(1, XDATA, add(CFA_XSP16, literal(-8)))
          CFI V0 load(1, XDATA, add(CFA_XSP16, literal(-7)))
          CFI R7 load(1, XDATA, add(CFA_XSP16, literal(-6)))
          CFI ?RET_LOW load(1, XDATA, add(CFA_XSP16, literal(-5)))
          CFI ?RET_HIGH load(1, XDATA, add(CFA_XSP16, literal(-4)))
          CFI ?BRET_EXT load(1, XDATA, add(CFA_XSP16, literal(-3)))
          CFI DPL0 load(1, XDATA, add(CFA_XSP16, literal(-2)))
          CFI DPH0 load(1, XDATA, add(CFA_XSP16, literal(-1)))
          CFI CFA_SP SP+-2
          CFI CFA_XSP16 add(XSP16, 28)
          CFI Block cfiCond260 Using cfiCommon0
          CFI (cfiCond260) Function bdb_ProcessRespondentList
          CFI (cfiCond260) Conditional ??CrossCallReturnLabel_98
          CFI (cfiCond260) R6 load(1, XDATA, add(CFA_XSP16, literal(-16)))
          CFI (cfiCond260) VB load(1, XDATA, add(CFA_XSP16, literal(-15)))
          CFI (cfiCond260) V0 load(1, XDATA, add(CFA_XSP16, literal(-14)))
          CFI (cfiCond260) V1 load(1, XDATA, add(CFA_XSP16, literal(-13)))
          CFI (cfiCond260) V2 load(1, XDATA, add(CFA_XSP16, literal(-12)))
          CFI (cfiCond260) V3 load(1, XDATA, add(CFA_XSP16, literal(-11)))
          CFI (cfiCond260) V4 load(1, XDATA, add(CFA_XSP16, literal(-10)))
          CFI (cfiCond260) V5 load(1, XDATA, add(CFA_XSP16, literal(-9)))
          CFI (cfiCond260) V6 load(1, XDATA, add(CFA_XSP16, literal(-8)))
          CFI (cfiCond260) V7 load(1, XDATA, add(CFA_XSP16, literal(-7)))
          CFI (cfiCond260) R7 load(1, XDATA, add(CFA_XSP16, literal(-6)))
          CFI (cfiCond260) ?RET_LOW load(1, XDATA, add(CFA_XSP16, literal(-5)))
          CFI (cfiCond260) ?RET_HIGH load(1, XDATA, add(CFA_XSP16, literal(-4)))
          CFI (cfiCond260) ?BRET_EXT load(1, XDATA, add(CFA_XSP16, literal(-3)))
          CFI (cfiCond260) DPL0 load(1, XDATA, add(CFA_XSP16, literal(-2)))
          CFI (cfiCond260) DPH0 load(1, XDATA, add(CFA_XSP16, literal(-1)))
          CFI (cfiCond260) CFA_SP SP+-2
          CFI (cfiCond260) CFA_XSP16 add(XSP16, 25)
          CFI Block cfiCond261 Using cfiCommon0
          CFI (cfiCond261) Function bdb_ProcessRespondentList
          CFI (cfiCond261) Conditional ??CrossCallReturnLabel_95
          CFI (cfiCond261) R6 load(1, XDATA, add(CFA_XSP16, literal(-16)))
          CFI (cfiCond261) VB load(1, XDATA, add(CFA_XSP16, literal(-15)))
          CFI (cfiCond261) V0 load(1, XDATA, add(CFA_XSP16, literal(-14)))
          CFI (cfiCond261) V1 load(1, XDATA, add(CFA_XSP16, literal(-13)))
          CFI (cfiCond261) V2 load(1, XDATA, add(CFA_XSP16, literal(-12)))
          CFI (cfiCond261) V3 load(1, XDATA, add(CFA_XSP16, literal(-11)))
          CFI (cfiCond261) V4 load(1, XDATA, add(CFA_XSP16, literal(-10)))
          CFI (cfiCond261) V5 load(1, XDATA, add(CFA_XSP16, literal(-9)))
          CFI (cfiCond261) V6 load(1, XDATA, add(CFA_XSP16, literal(-8)))
          CFI (cfiCond261) V7 load(1, XDATA, add(CFA_XSP16, literal(-7)))
          CFI (cfiCond261) R7 load(1, XDATA, add(CFA_XSP16, literal(-6)))
          CFI (cfiCond261) ?RET_LOW load(1, XDATA, add(CFA_XSP16, literal(-5)))
          CFI (cfiCond261) ?RET_HIGH load(1, XDATA, add(CFA_XSP16, literal(-4)))
          CFI (cfiCond261) ?BRET_EXT load(1, XDATA, add(CFA_XSP16, literal(-3)))
          CFI (cfiCond261) DPL0 load(1, XDATA, add(CFA_XSP16, literal(-2)))
          CFI (cfiCond261) DPH0 load(1, XDATA, add(CFA_XSP16, literal(-1)))
          CFI (cfiCond261) CFA_SP SP+-2
          CFI (cfiCond261) CFA_XSP16 add(XSP16, 25)
          CFI Block cfiCond262 Using cfiCommon0
          CFI (cfiCond262) Function bdb_ProcessRespondentList
          CFI (cfiCond262) Conditional ??CrossCallReturnLabel_96
          CFI (cfiCond262) R6 load(1, XDATA, add(CFA_XSP16, literal(-16)))
          CFI (cfiCond262) VB load(1, XDATA, add(CFA_XSP16, literal(-15)))
          CFI (cfiCond262) V0 load(1, XDATA, add(CFA_XSP16, literal(-14)))
          CFI (cfiCond262) V1 load(1, XDATA, add(CFA_XSP16, literal(-13)))
          CFI (cfiCond262) V2 load(1, XDATA, add(CFA_XSP16, literal(-12)))
          CFI (cfiCond262) V3 load(1, XDATA, add(CFA_XSP16, literal(-11)))
          CFI (cfiCond262) V4 load(1, XDATA, add(CFA_XSP16, literal(-10)))
          CFI (cfiCond262) V5 load(1, XDATA, add(CFA_XSP16, literal(-9)))
          CFI (cfiCond262) V6 load(1, XDATA, add(CFA_XSP16, literal(-8)))
          CFI (cfiCond262) V7 load(1, XDATA, add(CFA_XSP16, literal(-7)))
          CFI (cfiCond262) R7 load(1, XDATA, add(CFA_XSP16, literal(-6)))
          CFI (cfiCond262) ?RET_LOW load(1, XDATA, add(CFA_XSP16, literal(-5)))
          CFI (cfiCond262) ?RET_HIGH load(1, XDATA, add(CFA_XSP16, literal(-4)))
          CFI (cfiCond262) ?BRET_EXT load(1, XDATA, add(CFA_XSP16, literal(-3)))
          CFI (cfiCond262) DPL0 load(1, XDATA, add(CFA_XSP16, literal(-2)))
          CFI (cfiCond262) DPH0 load(1, XDATA, add(CFA_XSP16, literal(-1)))
          CFI (cfiCond262) CFA_SP SP+-2
          CFI (cfiCond262) CFA_XSP16 add(XSP16, 25)
          CFI Block cfiPicker263 Using cfiCommon1
          CFI (cfiPicker263) NoFunction
          CFI (cfiPicker263) Picker
        LCALL     ?Subroutine26 & 0xFFFF
??CrossCallReturnLabel_100:
        MOVX      A,@DPTR
        RET
          CFI EndBlock cfiCond259
          CFI EndBlock cfiCond260
          CFI EndBlock cfiCond261
          CFI EndBlock cfiCond262
          CFI EndBlock cfiPicker263

        RSEG BANKED_CODE:HUGECODE:NOROOT(0)
?Subroutine26:
          CFI Block cfiCond264 Using cfiCommon0
          CFI Function bdb_ProcessIEEEAddrRsp
          CFI Conditional ??CrossCallReturnLabel_99, ??CrossCallReturnLabel_18
          CFI R6 load(1, XDATA, add(CFA_XSP16, literal(-10)))
          CFI VB load(1, XDATA, add(CFA_XSP16, literal(-9)))
          CFI V0 load(1, XDATA, add(CFA_XSP16, literal(-8)))
          CFI V1 load(1, XDATA, add(CFA_XSP16, literal(-7)))
          CFI R7 load(1, XDATA, add(CFA_XSP16, literal(-6)))
          CFI ?RET_LOW load(1, XDATA, add(CFA_XSP16, literal(-5)))
          CFI ?RET_HIGH load(1, XDATA, add(CFA_XSP16, literal(-4)))
          CFI ?BRET_EXT load(1, XDATA, add(CFA_XSP16, literal(-3)))
          CFI DPL0 load(1, XDATA, add(CFA_XSP16, literal(-2)))
          CFI DPH0 load(1, XDATA, add(CFA_XSP16, literal(-1)))
          CFI CFA_SP SP+-4
          CFI CFA_XSP16 add(XSP16, 25)
          CFI Block cfiCond265 Using cfiCommon0
          CFI (cfiCond265) Function bdb_checkMatchingEndpoints
          CFI (cfiCond265) Conditional ??CrossCallReturnLabel_99, ??CrossCallReturnLabel_19
          CFI (cfiCond265) R6 load(1, XDATA, add(CFA_XSP16, literal(-20)))
          CFI (cfiCond265) VB load(1, XDATA, add(CFA_XSP16, literal(-19)))
          CFI (cfiCond265) V0 load(1, XDATA, add(CFA_XSP16, literal(-18)))
          CFI (cfiCond265) V1 load(1, XDATA, add(CFA_XSP16, literal(-17)))
          CFI (cfiCond265) V2 load(1, XDATA, add(CFA_XSP16, literal(-16)))
          CFI (cfiCond265) V3 load(1, XDATA, add(CFA_XSP16, literal(-15)))
          CFI (cfiCond265) V4 load(1, XDATA, add(CFA_XSP16, literal(-14)))
          CFI (cfiCond265) V5 load(1, XDATA, add(CFA_XSP16, literal(-13)))
          CFI (cfiCond265) V6 load(1, XDATA, add(CFA_XSP16, literal(-12)))
          CFI (cfiCond265) V7 load(1, XDATA, add(CFA_XSP16, literal(-11)))
          CFI (cfiCond265) V8 load(1, XDATA, add(CFA_XSP16, literal(-10)))
          CFI (cfiCond265) V9 load(1, XDATA, add(CFA_XSP16, literal(-9)))
          CFI (cfiCond265) V10 load(1, XDATA, add(CFA_XSP16, literal(-8)))
          CFI (cfiCond265) V11 load(1, XDATA, add(CFA_XSP16, literal(-7)))
          CFI (cfiCond265) R7 load(1, XDATA, add(CFA_XSP16, literal(-6)))
          CFI (cfiCond265) ?RET_LOW load(1, XDATA, add(CFA_XSP16, literal(-5)))
          CFI (cfiCond265) ?RET_HIGH load(1, XDATA, add(CFA_XSP16, literal(-4)))
          CFI (cfiCond265) ?BRET_EXT load(1, XDATA, add(CFA_XSP16, literal(-3)))
          CFI (cfiCond265) DPL0 load(1, XDATA, add(CFA_XSP16, literal(-2)))
          CFI (cfiCond265) DPH0 load(1, XDATA, add(CFA_XSP16, literal(-1)))
          CFI (cfiCond265) CFA_SP SP+-4
          CFI (cfiCond265) CFA_XSP16 add(XSP16, 29)
          CFI Block cfiCond266 Using cfiCommon0
          CFI (cfiCond266) Function bdb_ProcessRespondentList
          CFI (cfiCond266) Conditional ??CrossCallReturnLabel_100, ??CrossCallReturnLabel_95
          CFI (cfiCond266) R6 load(1, XDATA, add(CFA_XSP16, literal(-16)))
          CFI (cfiCond266) VB load(1, XDATA, add(CFA_XSP16, literal(-15)))
          CFI (cfiCond266) V0 load(1, XDATA, add(CFA_XSP16, literal(-14)))
          CFI (cfiCond266) V1 load(1, XDATA, add(CFA_XSP16, literal(-13)))
          CFI (cfiCond266) V2 load(1, XDATA, add(CFA_XSP16, literal(-12)))
          CFI (cfiCond266) V3 load(1, XDATA, add(CFA_XSP16, literal(-11)))
          CFI (cfiCond266) V4 load(1, XDATA, add(CFA_XSP16, literal(-10)))
          CFI (cfiCond266) V5 load(1, XDATA, add(CFA_XSP16, literal(-9)))
          CFI (cfiCond266) V6 load(1, XDATA, add(CFA_XSP16, literal(-8)))
          CFI (cfiCond266) V7 load(1, XDATA, add(CFA_XSP16, literal(-7)))
          CFI (cfiCond266) R7 load(1, XDATA, add(CFA_XSP16, literal(-6)))
          CFI (cfiCond266) ?RET_LOW load(1, XDATA, add(CFA_XSP16, literal(-5)))
          CFI (cfiCond266) ?RET_HIGH load(1, XDATA, add(CFA_XSP16, literal(-4)))
          CFI (cfiCond266) ?BRET_EXT load(1, XDATA, add(CFA_XSP16, literal(-3)))
          CFI (cfiCond266) DPL0 load(1, XDATA, add(CFA_XSP16, literal(-2)))
          CFI (cfiCond266) DPH0 load(1, XDATA, add(CFA_XSP16, literal(-1)))
          CFI (cfiCond266) CFA_SP SP+-4
          CFI (cfiCond266) CFA_XSP16 add(XSP16, 25)
          CFI Block cfiCond267 Using cfiCommon0
          CFI (cfiCond267) Function bdb_ProcessRespondentList
          CFI (cfiCond267) Conditional ??CrossCallReturnLabel_100, ??CrossCallReturnLabel_96
          CFI (cfiCond267) R6 load(1, XDATA, add(CFA_XSP16, literal(-16)))
          CFI (cfiCond267) VB load(1, XDATA, add(CFA_XSP16, literal(-15)))
          CFI (cfiCond267) V0 load(1, XDATA, add(CFA_XSP16, literal(-14)))
          CFI (cfiCond267) V1 load(1, XDATA, add(CFA_XSP16, literal(-13)))
          CFI (cfiCond267) V2 load(1, XDATA, add(CFA_XSP16, literal(-12)))
          CFI (cfiCond267) V3 load(1, XDATA, add(CFA_XSP16, literal(-11)))
          CFI (cfiCond267) V4 load(1, XDATA, add(CFA_XSP16, literal(-10)))
          CFI (cfiCond267) V5 load(1, XDATA, add(CFA_XSP16, literal(-9)))
          CFI (cfiCond267) V6 load(1, XDATA, add(CFA_XSP16, literal(-8)))
          CFI (cfiCond267) V7 load(1, XDATA, add(CFA_XSP16, literal(-7)))
          CFI (cfiCond267) R7 load(1, XDATA, add(CFA_XSP16, literal(-6)))
          CFI (cfiCond267) ?RET_LOW load(1, XDATA, add(CFA_XSP16, literal(-5)))
          CFI (cfiCond267) ?RET_HIGH load(1, XDATA, add(CFA_XSP16, literal(-4)))
          CFI (cfiCond267) ?BRET_EXT load(1, XDATA, add(CFA_XSP16, literal(-3)))
          CFI (cfiCond267) DPL0 load(1, XDATA, add(CFA_XSP16, literal(-2)))
          CFI (cfiCond267) DPH0 load(1, XDATA, add(CFA_XSP16, literal(-1)))
          CFI (cfiCond267) CFA_SP SP+-4
          CFI (cfiCond267) CFA_XSP16 add(XSP16, 25)
          CFI Block cfiCond268 Using cfiCommon0
          CFI (cfiCond268) Function bdb_ProcessSimpleDesc
          CFI (cfiCond268) Conditional ??CrossCallReturnLabel_100, ??CrossCallReturnLabel_97
          CFI (cfiCond268) R6 load(1, XDATA, add(CFA_XSP16, literal(-9)))
          CFI (cfiCond268) VB load(1, XDATA, add(CFA_XSP16, literal(-8)))
          CFI (cfiCond268) V0 load(1, XDATA, add(CFA_XSP16, literal(-7)))
          CFI (cfiCond268) R7 load(1, XDATA, add(CFA_XSP16, literal(-6)))
          CFI (cfiCond268) ?RET_LOW load(1, XDATA, add(CFA_XSP16, literal(-5)))
          CFI (cfiCond268) ?RET_HIGH load(1, XDATA, add(CFA_XSP16, literal(-4)))
          CFI (cfiCond268) ?BRET_EXT load(1, XDATA, add(CFA_XSP16, literal(-3)))
          CFI (cfiCond268) DPL0 load(1, XDATA, add(CFA_XSP16, literal(-2)))
          CFI (cfiCond268) DPH0 load(1, XDATA, add(CFA_XSP16, literal(-1)))
          CFI (cfiCond268) CFA_SP SP+-4
          CFI (cfiCond268) CFA_XSP16 add(XSP16, 28)
          CFI Block cfiCond269 Using cfiCommon0
          CFI (cfiCond269) Function bdb_ProcessRespondentList
          CFI (cfiCond269) Conditional ??CrossCallReturnLabel_100, ??CrossCallReturnLabel_98
          CFI (cfiCond269) R6 load(1, XDATA, add(CFA_XSP16, literal(-16)))
          CFI (cfiCond269) VB load(1, XDATA, add(CFA_XSP16, literal(-15)))
          CFI (cfiCond269) V0 load(1, XDATA, add(CFA_XSP16, literal(-14)))
          CFI (cfiCond269) V1 load(1, XDATA, add(CFA_XSP16, literal(-13)))
          CFI (cfiCond269) V2 load(1, XDATA, add(CFA_XSP16, literal(-12)))
          CFI (cfiCond269) V3 load(1, XDATA, add(CFA_XSP16, literal(-11)))
          CFI (cfiCond269) V4 load(1, XDATA, add(CFA_XSP16, literal(-10)))
          CFI (cfiCond269) V5 load(1, XDATA, add(CFA_XSP16, literal(-9)))
          CFI (cfiCond269) V6 load(1, XDATA, add(CFA_XSP16, literal(-8)))
          CFI (cfiCond269) V7 load(1, XDATA, add(CFA_XSP16, literal(-7)))
          CFI (cfiCond269) R7 load(1, XDATA, add(CFA_XSP16, literal(-6)))
          CFI (cfiCond269) ?RET_LOW load(1, XDATA, add(CFA_XSP16, literal(-5)))
          CFI (cfiCond269) ?RET_HIGH load(1, XDATA, add(CFA_XSP16, literal(-4)))
          CFI (cfiCond269) ?BRET_EXT load(1, XDATA, add(CFA_XSP16, literal(-3)))
          CFI (cfiCond269) DPL0 load(1, XDATA, add(CFA_XSP16, literal(-2)))
          CFI (cfiCond269) DPH0 load(1, XDATA, add(CFA_XSP16, literal(-1)))
          CFI (cfiCond269) CFA_SP SP+-4
          CFI (cfiCond269) CFA_XSP16 add(XSP16, 25)
          CFI Block cfiPicker270 Using cfiCommon1
          CFI (cfiPicker270) NoFunction
          CFI (cfiPicker270) Picker
        MOVX      A,@DPTR
        MOV       R0,A
        INC       DPTR
        MOVX      A,@DPTR
        XCH       A,R0
        LCALL     ?Subroutine36 & 0xFFFF
??CrossCallReturnLabel_102:
        RET
          CFI EndBlock cfiCond264
          CFI EndBlock cfiCond265
          CFI EndBlock cfiCond266
          CFI EndBlock cfiCond267
          CFI EndBlock cfiCond268
          CFI EndBlock cfiCond269
          CFI EndBlock cfiPicker270

        RSEG BANKED_CODE:HUGECODE:NOROOT(0)
?Subroutine36:
          CFI Block cfiCond271 Using cfiCommon0
          CFI Function bdb_checkMatchingEndpoints
          CFI Conditional ??CrossCallReturnLabel_101
          CFI R6 load(1, XDATA, add(CFA_XSP16, literal(-20)))
          CFI VB load(1, XDATA, add(CFA_XSP16, literal(-19)))
          CFI V0 load(1, XDATA, add(CFA_XSP16, literal(-18)))
          CFI V1 load(1, XDATA, add(CFA_XSP16, literal(-17)))
          CFI V2 load(1, XDATA, add(CFA_XSP16, literal(-16)))
          CFI V3 load(1, XDATA, add(CFA_XSP16, literal(-15)))
          CFI V4 load(1, XDATA, add(CFA_XSP16, literal(-14)))
          CFI V5 load(1, XDATA, add(CFA_XSP16, literal(-13)))
          CFI V6 load(1, XDATA, add(CFA_XSP16, literal(-12)))
          CFI V7 load(1, XDATA, add(CFA_XSP16, literal(-11)))
          CFI V8 load(1, XDATA, add(CFA_XSP16, literal(-10)))
          CFI V9 load(1, XDATA, add(CFA_XSP16, literal(-9)))
          CFI V10 load(1, XDATA, add(CFA_XSP16, literal(-8)))
          CFI V11 load(1, XDATA, add(CFA_XSP16, literal(-7)))
          CFI R7 load(1, XDATA, add(CFA_XSP16, literal(-6)))
          CFI ?RET_LOW load(1, XDATA, add(CFA_XSP16, literal(-5)))
          CFI ?RET_HIGH load(1, XDATA, add(CFA_XSP16, literal(-4)))
          CFI ?BRET_EXT load(1, XDATA, add(CFA_XSP16, literal(-3)))
          CFI DPL0 load(1, XDATA, add(CFA_XSP16, literal(-2)))
          CFI DPH0 load(1, XDATA, add(CFA_XSP16, literal(-1)))
          CFI CFA_SP SP+-2
          CFI CFA_XSP16 add(XSP16, 29)
          CFI Block cfiCond272 Using cfiCommon0
          CFI (cfiCond272) Function bdb_ProcessIEEEAddrRsp
          CFI (cfiCond272) Conditional ??CrossCallReturnLabel_102, ??CrossCallReturnLabel_99, ??CrossCallReturnLabel_18
          CFI (cfiCond272) R6 load(1, XDATA, add(CFA_XSP16, literal(-10)))
          CFI (cfiCond272) VB load(1, XDATA, add(CFA_XSP16, literal(-9)))
          CFI (cfiCond272) V0 load(1, XDATA, add(CFA_XSP16, literal(-8)))
          CFI (cfiCond272) V1 load(1, XDATA, add(CFA_XSP16, literal(-7)))
          CFI (cfiCond272) R7 load(1, XDATA, add(CFA_XSP16, literal(-6)))
          CFI (cfiCond272) ?RET_LOW load(1, XDATA, add(CFA_XSP16, literal(-5)))
          CFI (cfiCond272) ?RET_HIGH load(1, XDATA, add(CFA_XSP16, literal(-4)))
          CFI (cfiCond272) ?BRET_EXT load(1, XDATA, add(CFA_XSP16, literal(-3)))
          CFI (cfiCond272) DPL0 load(1, XDATA, add(CFA_XSP16, literal(-2)))
          CFI (cfiCond272) DPH0 load(1, XDATA, add(CFA_XSP16, literal(-1)))
          CFI (cfiCond272) CFA_SP SP+-6
          CFI (cfiCond272) CFA_XSP16 add(XSP16, 25)
          CFI Block cfiCond273 Using cfiCommon0
          CFI (cfiCond273) Function bdb_checkMatchingEndpoints
          CFI (cfiCond273) Conditional ??CrossCallReturnLabel_102, ??CrossCallReturnLabel_99, ??CrossCallReturnLabel_19
          CFI (cfiCond273) R6 load(1, XDATA, add(CFA_XSP16, literal(-20)))
          CFI (cfiCond273) VB load(1, XDATA, add(CFA_XSP16, literal(-19)))
          CFI (cfiCond273) V0 load(1, XDATA, add(CFA_XSP16, literal(-18)))
          CFI (cfiCond273) V1 load(1, XDATA, add(CFA_XSP16, literal(-17)))
          CFI (cfiCond273) V2 load(1, XDATA, add(CFA_XSP16, literal(-16)))
          CFI (cfiCond273) V3 load(1, XDATA, add(CFA_XSP16, literal(-15)))
          CFI (cfiCond273) V4 load(1, XDATA, add(CFA_XSP16, literal(-14)))
          CFI (cfiCond273) V5 load(1, XDATA, add(CFA_XSP16, literal(-13)))
          CFI (cfiCond273) V6 load(1, XDATA, add(CFA_XSP16, literal(-12)))
          CFI (cfiCond273) V7 load(1, XDATA, add(CFA_XSP16, literal(-11)))
          CFI (cfiCond273) V8 load(1, XDATA, add(CFA_XSP16, literal(-10)))
          CFI (cfiCond273) V9 load(1, XDATA, add(CFA_XSP16, literal(-9)))
          CFI (cfiCond273) V10 load(1, XDATA, add(CFA_XSP16, literal(-8)))
          CFI (cfiCond273) V11 load(1, XDATA, add(CFA_XSP16, literal(-7)))
          CFI (cfiCond273) R7 load(1, XDATA, add(CFA_XSP16, literal(-6)))
          CFI (cfiCond273) ?RET_LOW load(1, XDATA, add(CFA_XSP16, literal(-5)))
          CFI (cfiCond273) ?RET_HIGH load(1, XDATA, add(CFA_XSP16, literal(-4)))
          CFI (cfiCond273) ?BRET_EXT load(1, XDATA, add(CFA_XSP16, literal(-3)))
          CFI (cfiCond273) DPL0 load(1, XDATA, add(CFA_XSP16, literal(-2)))
          CFI (cfiCond273) DPH0 load(1, XDATA, add(CFA_XSP16, literal(-1)))
          CFI (cfiCond273) CFA_SP SP+-6
          CFI (cfiCond273) CFA_XSP16 add(XSP16, 29)
          CFI Block cfiCond274 Using cfiCommon0
          CFI (cfiCond274) Function bdb_ProcessRespondentList
          CFI (cfiCond274) Conditional ??CrossCallReturnLabel_102, ??CrossCallReturnLabel_100, ??CrossCallReturnLabel_95
          CFI (cfiCond274) R6 load(1, XDATA, add(CFA_XSP16, literal(-16)))
          CFI (cfiCond274) VB load(1, XDATA, add(CFA_XSP16, literal(-15)))
          CFI (cfiCond274) V0 load(1, XDATA, add(CFA_XSP16, literal(-14)))
          CFI (cfiCond274) V1 load(1, XDATA, add(CFA_XSP16, literal(-13)))
          CFI (cfiCond274) V2 load(1, XDATA, add(CFA_XSP16, literal(-12)))
          CFI (cfiCond274) V3 load(1, XDATA, add(CFA_XSP16, literal(-11)))
          CFI (cfiCond274) V4 load(1, XDATA, add(CFA_XSP16, literal(-10)))
          CFI (cfiCond274) V5 load(1, XDATA, add(CFA_XSP16, literal(-9)))
          CFI (cfiCond274) V6 load(1, XDATA, add(CFA_XSP16, literal(-8)))
          CFI (cfiCond274) V7 load(1, XDATA, add(CFA_XSP16, literal(-7)))
          CFI (cfiCond274) R7 load(1, XDATA, add(CFA_XSP16, literal(-6)))
          CFI (cfiCond274) ?RET_LOW load(1, XDATA, add(CFA_XSP16, literal(-5)))
          CFI (cfiCond274) ?RET_HIGH load(1, XDATA, add(CFA_XSP16, literal(-4)))
          CFI (cfiCond274) ?BRET_EXT load(1, XDATA, add(CFA_XSP16, literal(-3)))
          CFI (cfiCond274) DPL0 load(1, XDATA, add(CFA_XSP16, literal(-2)))
          CFI (cfiCond274) DPH0 load(1, XDATA, add(CFA_XSP16, literal(-1)))
          CFI (cfiCond274) CFA_SP SP+-6
          CFI (cfiCond274) CFA_XSP16 add(XSP16, 25)
          CFI Block cfiCond275 Using cfiCommon0
          CFI (cfiCond275) Function bdb_ProcessRespondentList
          CFI (cfiCond275) Conditional ??CrossCallReturnLabel_102, ??CrossCallReturnLabel_100, ??CrossCallReturnLabel_96
          CFI (cfiCond275) R6 load(1, XDATA, add(CFA_XSP16, literal(-16)))
          CFI (cfiCond275) VB load(1, XDATA, add(CFA_XSP16, literal(-15)))
          CFI (cfiCond275) V0 load(1, XDATA, add(CFA_XSP16, literal(-14)))
          CFI (cfiCond275) V1 load(1, XDATA, add(CFA_XSP16, literal(-13)))
          CFI (cfiCond275) V2 load(1, XDATA, add(CFA_XSP16, literal(-12)))
          CFI (cfiCond275) V3 load(1, XDATA, add(CFA_XSP16, literal(-11)))
          CFI (cfiCond275) V4 load(1, XDATA, add(CFA_XSP16, literal(-10)))
          CFI (cfiCond275) V5 load(1, XDATA, add(CFA_XSP16, literal(-9)))
          CFI (cfiCond275) V6 load(1, XDATA, add(CFA_XSP16, literal(-8)))
          CFI (cfiCond275) V7 load(1, XDATA, add(CFA_XSP16, literal(-7)))
          CFI (cfiCond275) R7 load(1, XDATA, add(CFA_XSP16, literal(-6)))
          CFI (cfiCond275) ?RET_LOW load(1, XDATA, add(CFA_XSP16, literal(-5)))
          CFI (cfiCond275) ?RET_HIGH load(1, XDATA, add(CFA_XSP16, literal(-4)))
          CFI (cfiCond275) ?BRET_EXT load(1, XDATA, add(CFA_XSP16, literal(-3)))
          CFI (cfiCond275) DPL0 load(1, XDATA, add(CFA_XSP16, literal(-2)))
          CFI (cfiCond275) DPH0 load(1, XDATA, add(CFA_XSP16, literal(-1)))
          CFI (cfiCond275) CFA_SP SP+-6
          CFI (cfiCond275) CFA_XSP16 add(XSP16, 25)
          CFI Block cfiCond276 Using cfiCommon0
          CFI (cfiCond276) Function bdb_ProcessSimpleDesc
          CFI (cfiCond276) Conditional ??CrossCallReturnLabel_102, ??CrossCallReturnLabel_100, ??CrossCallReturnLabel_97
          CFI (cfiCond276) R6 load(1, XDATA, add(CFA_XSP16, literal(-9)))
          CFI (cfiCond276) VB load(1, XDATA, add(CFA_XSP16, literal(-8)))
          CFI (cfiCond276) V0 load(1, XDATA, add(CFA_XSP16, literal(-7)))
          CFI (cfiCond276) R7 load(1, XDATA, add(CFA_XSP16, literal(-6)))
          CFI (cfiCond276) ?RET_LOW load(1, XDATA, add(CFA_XSP16, literal(-5)))
          CFI (cfiCond276) ?RET_HIGH load(1, XDATA, add(CFA_XSP16, literal(-4)))
          CFI (cfiCond276) ?BRET_EXT load(1, XDATA, add(CFA_XSP16, literal(-3)))
          CFI (cfiCond276) DPL0 load(1, XDATA, add(CFA_XSP16, literal(-2)))
          CFI (cfiCond276) DPH0 load(1, XDATA, add(CFA_XSP16, literal(-1)))
          CFI (cfiCond276) CFA_SP SP+-6
          CFI (cfiCond276) CFA_XSP16 add(XSP16, 28)
          CFI Block cfiCond277 Using cfiCommon0
          CFI (cfiCond277) Function bdb_ProcessRespondentList
          CFI (cfiCond277) Conditional ??CrossCallReturnLabel_102, ??CrossCallReturnLabel_100, ??CrossCallReturnLabel_98
          CFI (cfiCond277) R6 load(1, XDATA, add(CFA_XSP16, literal(-16)))
          CFI (cfiCond277) VB load(1, XDATA, add(CFA_XSP16, literal(-15)))
          CFI (cfiCond277) V0 load(1, XDATA, add(CFA_XSP16, literal(-14)))
          CFI (cfiCond277) V1 load(1, XDATA, add(CFA_XSP16, literal(-13)))
          CFI (cfiCond277) V2 load(1, XDATA, add(CFA_XSP16, literal(-12)))
          CFI (cfiCond277) V3 load(1, XDATA, add(CFA_XSP16, literal(-11)))
          CFI (cfiCond277) V4 load(1, XDATA, add(CFA_XSP16, literal(-10)))
          CFI (cfiCond277) V5 load(1, XDATA, add(CFA_XSP16, literal(-9)))
          CFI (cfiCond277) V6 load(1, XDATA, add(CFA_XSP16, literal(-8)))
          CFI (cfiCond277) V7 load(1, XDATA, add(CFA_XSP16, literal(-7)))
          CFI (cfiCond277) R7 load(1, XDATA, add(CFA_XSP16, literal(-6)))
          CFI (cfiCond277) ?RET_LOW load(1, XDATA, add(CFA_XSP16, literal(-5)))
          CFI (cfiCond277) ?RET_HIGH load(1, XDATA, add(CFA_XSP16, literal(-4)))
          CFI (cfiCond277) ?BRET_EXT load(1, XDATA, add(CFA_XSP16, literal(-3)))
          CFI (cfiCond277) DPL0 load(1, XDATA, add(CFA_XSP16, literal(-2)))
          CFI (cfiCond277) DPH0 load(1, XDATA, add(CFA_XSP16, literal(-1)))
          CFI (cfiCond277) CFA_SP SP+-6
          CFI (cfiCond277) CFA_XSP16 add(XSP16, 25)
          CFI Block cfiPicker278 Using cfiCommon1
          CFI (cfiPicker278) NoFunction
          CFI (cfiPicker278) Picker
        ADD       A,#0xc
        MOV       DPL,A
        CLR       A
        ADDC      A,R0
        MOV       DPH,A
        RET
          CFI EndBlock cfiCond271
          CFI EndBlock cfiCond272
          CFI EndBlock cfiCond273
          CFI EndBlock cfiCond274
          CFI EndBlock cfiCond275
          CFI EndBlock cfiCond276
          CFI EndBlock cfiCond277
          CFI EndBlock cfiPicker278

        RSEG BANKED_CODE:HUGECODE:NOROOT(0)
?Subroutine4:
          CFI Block cfiCond279 Using cfiCommon0
          CFI Function bdb_ProcessIEEEAddrRsp
          CFI Conditional ??CrossCallReturnLabel_103
          CFI R6 load(1, XDATA, add(CFA_XSP16, literal(-10)))
          CFI VB load(1, XDATA, add(CFA_XSP16, literal(-9)))
          CFI V0 load(1, XDATA, add(CFA_XSP16, literal(-8)))
          CFI V1 load(1, XDATA, add(CFA_XSP16, literal(-7)))
          CFI R7 load(1, XDATA, add(CFA_XSP16, literal(-6)))
          CFI ?RET_LOW load(1, XDATA, add(CFA_XSP16, literal(-5)))
          CFI ?RET_HIGH load(1, XDATA, add(CFA_XSP16, literal(-4)))
          CFI ?BRET_EXT load(1, XDATA, add(CFA_XSP16, literal(-3)))
          CFI DPL0 load(1, XDATA, add(CFA_XSP16, literal(-2)))
          CFI DPH0 load(1, XDATA, add(CFA_XSP16, literal(-1)))
          CFI CFA_SP SP+-2
          CFI CFA_XSP16 add(XSP16, 25)
          CFI Block cfiCond280 Using cfiCommon0
          CFI (cfiCond280) Function bdb_ProcessSimpleDesc
          CFI (cfiCond280) Conditional ??CrossCallReturnLabel_104
          CFI (cfiCond280) R6 load(1, XDATA, add(CFA_XSP16, literal(-9)))
          CFI (cfiCond280) VB load(1, XDATA, add(CFA_XSP16, literal(-8)))
          CFI (cfiCond280) V0 load(1, XDATA, add(CFA_XSP16, literal(-7)))
          CFI (cfiCond280) R7 load(1, XDATA, add(CFA_XSP16, literal(-6)))
          CFI (cfiCond280) ?RET_LOW load(1, XDATA, add(CFA_XSP16, literal(-5)))
          CFI (cfiCond280) ?RET_HIGH load(1, XDATA, add(CFA_XSP16, literal(-4)))
          CFI (cfiCond280) ?BRET_EXT load(1, XDATA, add(CFA_XSP16, literal(-3)))
          CFI (cfiCond280) DPL0 load(1, XDATA, add(CFA_XSP16, literal(-2)))
          CFI (cfiCond280) DPH0 load(1, XDATA, add(CFA_XSP16, literal(-1)))
          CFI (cfiCond280) CFA_SP SP+-2
          CFI (cfiCond280) CFA_XSP16 add(XSP16, 28)
          CFI Block cfiPicker281 Using cfiCommon1
          CFI (cfiPicker281) NoFunction
          CFI (cfiPicker281) Picker
        LCALL     ?Subroutine29 & 0xFFFF
??CrossCallReturnLabel_73:
        MOV       DPTR,#bdb_FindingBindingTargetSimpleDesc
        MOVX      A,@DPTR
        MOV       R1,A
        LCALL     `??bdb_findRespondentNode::?relay`; Banked call to: bdb_findRespondentNode
        LCALL     ?Subroutine34 & 0xFFFF
??CrossCallReturnLabel_94:
        MOV       DPL,?XSP + 0
        MOV       DPH,?XSP + 1
          CFI EndBlock cfiCond279
          CFI EndBlock cfiCond280
          CFI EndBlock cfiPicker281
        REQUIRE ??Subroutine52_0
        ; // Fall through to label ??Subroutine52_0

        RSEG BANKED_CODE:HUGECODE:NOROOT(0)
??Subroutine52_0:
          CFI Block cfiCond282 Using cfiCommon0
          CFI Function bdb_setEpDescListToActiveEndpoint
          CFI Conditional ??CrossCallReturnLabel_105
          CFI DPL0 Frame(CFA_SP, 4)
          CFI DPH0 Frame(CFA_SP, 5)
          CFI CFA_SP SP+-7
          CFI Block cfiCond283 Using cfiCommon0
          CFI (cfiCond283) Function bdb_setEpDescListToActiveEndpoint
          CFI (cfiCond283) Conditional ??CrossCallReturnLabel_106
          CFI (cfiCond283) DPL0 Frame(CFA_SP, 4)
          CFI (cfiCond283) DPH0 Frame(CFA_SP, 5)
          CFI (cfiCond283) CFA_SP SP+-7
          CFI Block cfiCond284 Using cfiCommon0
          CFI (cfiCond284) Function bdb_checkMatchingEndpoints
          CFI (cfiCond284) Conditional ??CrossCallReturnLabel_107
          CFI (cfiCond284) R6 load(1, XDATA, add(CFA_XSP16, literal(-20)))
          CFI (cfiCond284) VB load(1, XDATA, add(CFA_XSP16, literal(-19)))
          CFI (cfiCond284) V0 load(1, XDATA, add(CFA_XSP16, literal(-18)))
          CFI (cfiCond284) V1 load(1, XDATA, add(CFA_XSP16, literal(-17)))
          CFI (cfiCond284) V2 load(1, XDATA, add(CFA_XSP16, literal(-16)))
          CFI (cfiCond284) V3 load(1, XDATA, add(CFA_XSP16, literal(-15)))
          CFI (cfiCond284) V4 load(1, XDATA, add(CFA_XSP16, literal(-14)))
          CFI (cfiCond284) V5 load(1, XDATA, add(CFA_XSP16, literal(-13)))
          CFI (cfiCond284) V6 load(1, XDATA, add(CFA_XSP16, literal(-12)))
          CFI (cfiCond284) V7 load(1, XDATA, add(CFA_XSP16, literal(-11)))
          CFI (cfiCond284) V8 load(1, XDATA, add(CFA_XSP16, literal(-10)))
          CFI (cfiCond284) V9 load(1, XDATA, add(CFA_XSP16, literal(-9)))
          CFI (cfiCond284) V10 load(1, XDATA, add(CFA_XSP16, literal(-8)))
          CFI (cfiCond284) V11 load(1, XDATA, add(CFA_XSP16, literal(-7)))
          CFI (cfiCond284) R7 load(1, XDATA, add(CFA_XSP16, literal(-6)))
          CFI (cfiCond284) ?RET_LOW load(1, XDATA, add(CFA_XSP16, literal(-5)))
          CFI (cfiCond284) ?RET_HIGH load(1, XDATA, add(CFA_XSP16, literal(-4)))
          CFI (cfiCond284) ?BRET_EXT load(1, XDATA, add(CFA_XSP16, literal(-3)))
          CFI (cfiCond284) DPL0 load(1, XDATA, add(CFA_XSP16, literal(-2)))
          CFI (cfiCond284) DPH0 load(1, XDATA, add(CFA_XSP16, literal(-1)))
          CFI (cfiCond284) CFA_SP SP+-2
          CFI (cfiCond284) CFA_XSP16 add(XSP16, 29)
          CFI Block cfiCond285 Using cfiCommon0
          CFI (cfiCond285) Function bdb_checkMatchingEndpoints
          CFI (cfiCond285) Conditional ??CrossCallReturnLabel_108
          CFI (cfiCond285) R6 load(1, XDATA, add(CFA_XSP16, literal(-20)))
          CFI (cfiCond285) VB load(1, XDATA, add(CFA_XSP16, literal(-19)))
          CFI (cfiCond285) V0 load(1, XDATA, add(CFA_XSP16, literal(-18)))
          CFI (cfiCond285) V1 load(1, XDATA, add(CFA_XSP16, literal(-17)))
          CFI (cfiCond285) V2 load(1, XDATA, add(CFA_XSP16, literal(-16)))
          CFI (cfiCond285) V3 load(1, XDATA, add(CFA_XSP16, literal(-15)))
          CFI (cfiCond285) V4 load(1, XDATA, add(CFA_XSP16, literal(-14)))
          CFI (cfiCond285) V5 load(1, XDATA, add(CFA_XSP16, literal(-13)))
          CFI (cfiCond285) V6 load(1, XDATA, add(CFA_XSP16, literal(-12)))
          CFI (cfiCond285) V7 load(1, XDATA, add(CFA_XSP16, literal(-11)))
          CFI (cfiCond285) V8 load(1, XDATA, add(CFA_XSP16, literal(-10)))
          CFI (cfiCond285) V9 load(1, XDATA, add(CFA_XSP16, literal(-9)))
          CFI (cfiCond285) V10 load(1, XDATA, add(CFA_XSP16, literal(-8)))
          CFI (cfiCond285) V11 load(1, XDATA, add(CFA_XSP16, literal(-7)))
          CFI (cfiCond285) R7 load(1, XDATA, add(CFA_XSP16, literal(-6)))
          CFI (cfiCond285) ?RET_LOW load(1, XDATA, add(CFA_XSP16, literal(-5)))
          CFI (cfiCond285) ?RET_HIGH load(1, XDATA, add(CFA_XSP16, literal(-4)))
          CFI (cfiCond285) ?BRET_EXT load(1, XDATA, add(CFA_XSP16, literal(-3)))
          CFI (cfiCond285) DPL0 load(1, XDATA, add(CFA_XSP16, literal(-2)))
          CFI (cfiCond285) DPH0 load(1, XDATA, add(CFA_XSP16, literal(-1)))
          CFI (cfiCond285) CFA_SP SP+-2
          CFI (cfiCond285) CFA_XSP16 add(XSP16, 29)
          CFI Block cfiCond286 Using cfiCommon0
          CFI (cfiCond286) Function bdb_zclFindingBindingAddBindEntry
          CFI (cfiCond286) Conditional ??CrossCallReturnLabel_109
          CFI (cfiCond286) R6 load(1, XDATA, add(CFA_XSP16, literal(-12)))
          CFI (cfiCond286) VB load(1, XDATA, add(CFA_XSP16, literal(-11)))
          CFI (cfiCond286) V0 load(1, XDATA, add(CFA_XSP16, literal(-10)))
          CFI (cfiCond286) V1 load(1, XDATA, add(CFA_XSP16, literal(-9)))
          CFI (cfiCond286) V2 load(1, XDATA, add(CFA_XSP16, literal(-8)))
          CFI (cfiCond286) V3 load(1, XDATA, add(CFA_XSP16, literal(-7)))
          CFI (cfiCond286) R7 load(1, XDATA, add(CFA_XSP16, literal(-6)))
          CFI (cfiCond286) ?RET_LOW load(1, XDATA, add(CFA_XSP16, literal(-5)))
          CFI (cfiCond286) ?RET_HIGH load(1, XDATA, add(CFA_XSP16, literal(-4)))
          CFI (cfiCond286) ?BRET_EXT load(1, XDATA, add(CFA_XSP16, literal(-3)))
          CFI (cfiCond286) DPL0 load(1, XDATA, add(CFA_XSP16, literal(-2)))
          CFI (cfiCond286) DPH0 load(1, XDATA, add(CFA_XSP16, literal(-1)))
          CFI (cfiCond286) CFA_SP SP+-2
          CFI (cfiCond286) CFA_XSP16 add(XSP16, 14)
          CFI Block cfiCond287 Using cfiCommon0
          CFI (cfiCond287) Function bdb_ProcessRespondentList
          CFI (cfiCond287) Conditional ??CrossCallReturnLabel_110
          CFI (cfiCond287) R6 load(1, XDATA, add(CFA_XSP16, literal(-16)))
          CFI (cfiCond287) VB load(1, XDATA, add(CFA_XSP16, literal(-15)))
          CFI (cfiCond287) V0 load(1, XDATA, add(CFA_XSP16, literal(-14)))
          CFI (cfiCond287) V1 load(1, XDATA, add(CFA_XSP16, literal(-13)))
          CFI (cfiCond287) V2 load(1, XDATA, add(CFA_XSP16, literal(-12)))
          CFI (cfiCond287) V3 load(1, XDATA, add(CFA_XSP16, literal(-11)))
          CFI (cfiCond287) V4 load(1, XDATA, add(CFA_XSP16, literal(-10)))
          CFI (cfiCond287) V5 load(1, XDATA, add(CFA_XSP16, literal(-9)))
          CFI (cfiCond287) V6 load(1, XDATA, add(CFA_XSP16, literal(-8)))
          CFI (cfiCond287) V7 load(1, XDATA, add(CFA_XSP16, literal(-7)))
          CFI (cfiCond287) R7 load(1, XDATA, add(CFA_XSP16, literal(-6)))
          CFI (cfiCond287) ?RET_LOW load(1, XDATA, add(CFA_XSP16, literal(-5)))
          CFI (cfiCond287) ?RET_HIGH load(1, XDATA, add(CFA_XSP16, literal(-4)))
          CFI (cfiCond287) ?BRET_EXT load(1, XDATA, add(CFA_XSP16, literal(-3)))
          CFI (cfiCond287) DPL0 load(1, XDATA, add(CFA_XSP16, literal(-2)))
          CFI (cfiCond287) DPH0 load(1, XDATA, add(CFA_XSP16, literal(-1)))
          CFI (cfiCond287) CFA_SP SP+-2
          CFI (cfiCond287) CFA_XSP16 add(XSP16, 25)
          CFI Block cfiCond288 Using cfiCommon0
          CFI (cfiCond288) Function bdb_ProcessRespondentList
          CFI (cfiCond288) Conditional ??CrossCallReturnLabel_111
          CFI (cfiCond288) R6 load(1, XDATA, add(CFA_XSP16, literal(-16)))
          CFI (cfiCond288) VB load(1, XDATA, add(CFA_XSP16, literal(-15)))
          CFI (cfiCond288) V0 load(1, XDATA, add(CFA_XSP16, literal(-14)))
          CFI (cfiCond288) V1 load(1, XDATA, add(CFA_XSP16, literal(-13)))
          CFI (cfiCond288) V2 load(1, XDATA, add(CFA_XSP16, literal(-12)))
          CFI (cfiCond288) V3 load(1, XDATA, add(CFA_XSP16, literal(-11)))
          CFI (cfiCond288) V4 load(1, XDATA, add(CFA_XSP16, literal(-10)))
          CFI (cfiCond288) V5 load(1, XDATA, add(CFA_XSP16, literal(-9)))
          CFI (cfiCond288) V6 load(1, XDATA, add(CFA_XSP16, literal(-8)))
          CFI (cfiCond288) V7 load(1, XDATA, add(CFA_XSP16, literal(-7)))
          CFI (cfiCond288) R7 load(1, XDATA, add(CFA_XSP16, literal(-6)))
          CFI (cfiCond288) ?RET_LOW load(1, XDATA, add(CFA_XSP16, literal(-5)))
          CFI (cfiCond288) ?RET_HIGH load(1, XDATA, add(CFA_XSP16, literal(-4)))
          CFI (cfiCond288) ?BRET_EXT load(1, XDATA, add(CFA_XSP16, literal(-3)))
          CFI (cfiCond288) DPL0 load(1, XDATA, add(CFA_XSP16, literal(-2)))
          CFI (cfiCond288) DPH0 load(1, XDATA, add(CFA_XSP16, literal(-1)))
          CFI (cfiCond288) CFA_SP SP+-2
          CFI (cfiCond288) CFA_XSP16 add(XSP16, 25)
          CFI Block cfiCond289 Using cfiCommon0
          CFI (cfiCond289) Function bdb_ProcessRespondentList
          CFI (cfiCond289) Conditional ??CrossCallReturnLabel_112
          CFI (cfiCond289) R6 load(1, XDATA, add(CFA_XSP16, literal(-16)))
          CFI (cfiCond289) VB load(1, XDATA, add(CFA_XSP16, literal(-15)))
          CFI (cfiCond289) V0 load(1, XDATA, add(CFA_XSP16, literal(-14)))
          CFI (cfiCond289) V1 load(1, XDATA, add(CFA_XSP16, literal(-13)))
          CFI (cfiCond289) V2 load(1, XDATA, add(CFA_XSP16, literal(-12)))
          CFI (cfiCond289) V3 load(1, XDATA, add(CFA_XSP16, literal(-11)))
          CFI (cfiCond289) V4 load(1, XDATA, add(CFA_XSP16, literal(-10)))
          CFI (cfiCond289) V5 load(1, XDATA, add(CFA_XSP16, literal(-9)))
          CFI (cfiCond289) V6 load(1, XDATA, add(CFA_XSP16, literal(-8)))
          CFI (cfiCond289) V7 load(1, XDATA, add(CFA_XSP16, literal(-7)))
          CFI (cfiCond289) R7 load(1, XDATA, add(CFA_XSP16, literal(-6)))
          CFI (cfiCond289) ?RET_LOW load(1, XDATA, add(CFA_XSP16, literal(-5)))
          CFI (cfiCond289) ?RET_HIGH load(1, XDATA, add(CFA_XSP16, literal(-4)))
          CFI (cfiCond289) ?BRET_EXT load(1, XDATA, add(CFA_XSP16, literal(-3)))
          CFI (cfiCond289) DPL0 load(1, XDATA, add(CFA_XSP16, literal(-2)))
          CFI (cfiCond289) DPH0 load(1, XDATA, add(CFA_XSP16, literal(-1)))
          CFI (cfiCond289) CFA_SP SP+-2
          CFI (cfiCond289) CFA_XSP16 add(XSP16, 25)
          CFI Block cfiCond290 Using cfiCommon0
          CFI (cfiCond290) Function bdb_ProcessIEEEAddrRsp
          CFI (cfiCond290) Conditional ??CrossCallReturnLabel_103
          CFI (cfiCond290) R6 load(1, XDATA, add(CFA_XSP16, literal(-10)))
          CFI (cfiCond290) VB load(1, XDATA, add(CFA_XSP16, literal(-9)))
          CFI (cfiCond290) V0 load(1, XDATA, add(CFA_XSP16, literal(-8)))
          CFI (cfiCond290) V1 load(1, XDATA, add(CFA_XSP16, literal(-7)))
          CFI (cfiCond290) R7 load(1, XDATA, add(CFA_XSP16, literal(-6)))
          CFI (cfiCond290) ?RET_LOW load(1, XDATA, add(CFA_XSP16, literal(-5)))
          CFI (cfiCond290) ?RET_HIGH load(1, XDATA, add(CFA_XSP16, literal(-4)))
          CFI (cfiCond290) ?BRET_EXT load(1, XDATA, add(CFA_XSP16, literal(-3)))
          CFI (cfiCond290) DPL0 load(1, XDATA, add(CFA_XSP16, literal(-2)))
          CFI (cfiCond290) DPH0 load(1, XDATA, add(CFA_XSP16, literal(-1)))
          CFI (cfiCond290) CFA_SP SP+-2
          CFI (cfiCond290) CFA_XSP16 add(XSP16, 25)
          CFI Block cfiCond291 Using cfiCommon0
          CFI (cfiCond291) Function bdb_ProcessSimpleDesc
          CFI (cfiCond291) Conditional ??CrossCallReturnLabel_104
          CFI (cfiCond291) R6 load(1, XDATA, add(CFA_XSP16, literal(-9)))
          CFI (cfiCond291) VB load(1, XDATA, add(CFA_XSP16, literal(-8)))
          CFI (cfiCond291) V0 load(1, XDATA, add(CFA_XSP16, literal(-7)))
          CFI (cfiCond291) R7 load(1, XDATA, add(CFA_XSP16, literal(-6)))
          CFI (cfiCond291) ?RET_LOW load(1, XDATA, add(CFA_XSP16, literal(-5)))
          CFI (cfiCond291) ?RET_HIGH load(1, XDATA, add(CFA_XSP16, literal(-4)))
          CFI (cfiCond291) ?BRET_EXT load(1, XDATA, add(CFA_XSP16, literal(-3)))
          CFI (cfiCond291) DPL0 load(1, XDATA, add(CFA_XSP16, literal(-2)))
          CFI (cfiCond291) DPH0 load(1, XDATA, add(CFA_XSP16, literal(-1)))
          CFI (cfiCond291) CFA_SP SP+-2
          CFI (cfiCond291) CFA_XSP16 add(XSP16, 28)
          CFI Block cfiPicker292 Using cfiCommon1
          CFI (cfiPicker292) NoFunction
          CFI (cfiPicker292) Picker
        LCALL     ?Subroutine31 & 0xFFFF
??CrossCallReturnLabel_119:
        MOV       R1,A
        MOV       A,R0
        ORL       A,R1
        RET
          CFI EndBlock cfiCond282
          CFI EndBlock cfiCond283
          CFI EndBlock cfiCond284
          CFI EndBlock cfiCond285
          CFI EndBlock cfiCond286
          CFI EndBlock cfiCond287
          CFI EndBlock cfiCond288
          CFI EndBlock cfiCond289
          CFI EndBlock cfiCond290
          CFI EndBlock cfiCond291
          CFI EndBlock cfiPicker292

        RSEG XDATA_ROM_C:CONST:REORDER:NOROOT(0)
        DATA8
`?<Constant {{0}}>`:
        DATA16
        DW 0
        DB 0, 0, 0, 0, 0, 0
        DB 0
// 1028 
// 1029 /*********************************************************************
// 1030  * @fn      bdb_FindIfAppCluster
// 1031  *
// 1032  * @brief   To verify if cluster is application type and should the local device create a bind for it
// 1033  *
// 1034  * @param   ClusterId - cluster ID to be verified
// 1035  * @param   isClusterOutput - True if the bind attempted is output cluster in the local device, false otherwise
// 1036  *
// 1037  * @return  true if success
// 1038  */

        RSEG BANKED_CODE:HUGECODE:NOROOT(0)
// 1039 uint8 bdb_FindIfAppCluster( cId_t ClusterId, uint8 isClusterOutput )
bdb_FindIfAppCluster:
          CFI Block cfiBlock293 Using cfiCommon0
          CFI Function bdb_FindIfAppCluster
        CODE
// 1040 {
        MOV       A,#-0x9
        LCALL     ?BANKED_ENTER_XDATA
          CFI DPH0 load(1, XDATA, add(CFA_XSP16, literal(-1)))
          CFI DPL0 load(1, XDATA, add(CFA_XSP16, literal(-2)))
          CFI ?BRET_EXT load(1, XDATA, add(CFA_XSP16, literal(-3)))
          CFI ?RET_HIGH load(1, XDATA, add(CFA_XSP16, literal(-4)))
          CFI ?RET_LOW load(1, XDATA, add(CFA_XSP16, literal(-5)))
          CFI R7 load(1, XDATA, add(CFA_XSP16, literal(-6)))
          CFI V0 load(1, XDATA, add(CFA_XSP16, literal(-7)))
          CFI VB load(1, XDATA, add(CFA_XSP16, literal(-8)))
          CFI R6 load(1, XDATA, add(CFA_XSP16, literal(-9)))
          CFI CFA_SP SP+0
          CFI CFA_XSP16 add(XSP16, 9)
        ; Saved register size: 9
        ; Auto size: 0
        MOV       A,R1
// 1041   uint8 i;
// 1042   uint8 ClusterCnt;
// 1043 
// 1044   if(isClusterOutput)
        MOV       R0,#0x0
        JZ        ??bdb_FindIfAppCluster_0
// 1045   {
// 1046       ClusterCnt = sizeof( bdb_ZclType1Clusters )/sizeof( uint16 );
// 1047 
// 1048       for ( i = 0; i < ClusterCnt; i++ )
// 1049       {
// 1050         if ( bdb_ZclType1Clusters[i] == ClusterId )
??bdb_FindIfAppCluster_1:
        MOV       A,R0
        ADD       A,0xE0 /* A   */
        MOV       R4,A
        CLR       A
        RLC       A
        MOV       R5,A
        MOV       A,#bdb_ZclType1Clusters & 0xff
        ADD       A,R4
        MOV       DPL,A
        MOV       A,#(bdb_ZclType1Clusters >> 8) & 0xff
        ADDC      A,R5
        MOV       DPH,A
        MOVX      A,@DPTR
        XRL       A,R2
        JNZ       ??bdb_FindIfAppCluster_2
        INC       DPTR
        MOVX      A,@DPTR
        XRL       A,R3
??bdb_FindIfAppCluster_2:
        JZ        ??bdb_FindIfAppCluster_3
// 1051         {
// 1052           return ( SUCCESS );
// 1053         }
// 1054       }
        INC       R0
        MOV       A,R0
        CLR       C
        SUBB      A,#0x18
        JNC       ??bdb_FindIfAppCluster_4
        SJMP      ??bdb_FindIfAppCluster_1
// 1055   }
// 1056   else
// 1057   {
// 1058       ClusterCnt = sizeof( bdb_ZclType2Clusters )/sizeof( uint16 );
// 1059 
// 1060       for ( i = 0; i < ClusterCnt; i++ )
// 1061       {
// 1062         if ( bdb_ZclType2Clusters[i] == ClusterId )
??bdb_FindIfAppCluster_0:
        MOV       A,R0
        ADD       A,0xE0 /* A   */
        MOV       R4,A
        CLR       A
        RLC       A
        MOV       R5,A
        MOV       A,#bdb_ZclType2Clusters & 0xff
        ADD       A,R4
        MOV       DPL,A
        MOV       A,#(bdb_ZclType2Clusters >> 8) & 0xff
        ADDC      A,R5
        MOV       DPH,A
        MOVX      A,@DPTR
        XRL       A,R2
        JNZ       ??bdb_FindIfAppCluster_5
        INC       DPTR
        MOVX      A,@DPTR
        XRL       A,R3
??bdb_FindIfAppCluster_5:
        JNZ       ??bdb_FindIfAppCluster_6
// 1063         {
// 1064           return ( SUCCESS );
??bdb_FindIfAppCluster_3:
        MOV       R1,#0x0
        SJMP      ??bdb_FindIfAppCluster_7
// 1065         }
// 1066       }
??bdb_FindIfAppCluster_6:
        INC       R0
        MOV       A,R0
        CLR       C
        SUBB      A,#0x31
        JC        ??bdb_FindIfAppCluster_0
// 1067   }
// 1068   
// 1069   // If not found, take it as application cluster it will be filtered
// 1070   // by simple descriptor at some point
// 1071   return ( FAILURE );
??bdb_FindIfAppCluster_4:
        MOV       R1,#0x1
??bdb_FindIfAppCluster_7:
        LJMP      ?Subroutine3 & 0xFFFF
// 1072 }
          CFI EndBlock cfiBlock293
// 1073 
// 1074 
// 1075 /*********************************************************************
// 1076  * @fn      bdb_getRespondentRetry
// 1077  *
// 1078  * @brief   Get the next Respondant entry to retry
// 1079  *
// 1080  * @param   pHead - pointer to a pointer of the list head
// 1081  *
// 1082  * @return  respondant entry if found, otherwise NULL
// 1083  */

        RSEG BANKED_CODE:HUGECODE:NOROOT(0)
// 1084 bdbFindingBindingRespondent_t* bdb_getRespondentRetry(bdbFindingBindingRespondent_t* pRespondentHead)
bdb_getRespondentRetry:
          CFI Block cfiBlock294 Using cfiCommon0
          CFI Function bdb_getRespondentRetry
        CODE
// 1085 {
        PUSH      DPL
          CFI DPL0 Frame(CFA_SP, 4)
          CFI CFA_SP SP+-4
        PUSH      DPH
          CFI DPH0 Frame(CFA_SP, 5)
          CFI CFA_SP SP+-5
        ; Saved register size: 2
        ; Auto size: 0
// 1086   bdbFindingBindingRespondent_t *pTemp;
// 1087   
// 1088   pTemp = pRespondentHead;
        SJMP      ??CrossCallReturnLabel_70
// 1089   
// 1090   while(pTemp != NULL)
// 1091   {
// 1092     //does the next entry requires to perform an attempt on simple desc req or IEEE addr req?
// 1093     if((pTemp->attempts & ~FINDING_AND_BINDING_MISSING_IEEE_ADDR) < FINDING_AND_BINDING_MAX_ATTEMPTS)
// 1094     {
// 1095       return pTemp;
// 1096     }
// 1097    
// 1098     pTemp = pTemp->pNext;
??bdb_getRespondentRetry_0:
        MOV       A,R2
        ADD       A,#0xf
        MOV       DPL,A
        CLR       A
        ADDC      A,R3
        MOV       DPH,A
        LCALL     ??Subroutine45_0 & 0xFFFF
??CrossCallReturnLabel_70:
        MOV       A,R2
        ORL       A,R3
        JZ        ??bdb_getRespondentRetry_1
        MOV       A,R2
        LCALL     ?Subroutine25 & 0xFFFF
??CrossCallReturnLabel_35:
        ANL       A,#0x7f
        CLR       C
        SUBB      A,#0x4
        JNC       ??bdb_getRespondentRetry_0
        SJMP      ??bdb_getRespondentRetry_2
// 1099   }
// 1100   return NULL;
??bdb_getRespondentRetry_1:
        MOV       R2,#0x0
        MOV       R3,#0x0
??bdb_getRespondentRetry_2:
        LJMP      ??Subroutine37_0 & 0xFFFF
// 1101 }
          CFI EndBlock cfiBlock294

        RSEG BANKED_CODE:HUGECODE:NOROOT(0)
?Subroutine25:
          CFI Block cfiCond295 Using cfiCommon0
          CFI Function bdb_ProcessIEEEAddrRsp
          CFI Conditional ??CrossCallReturnLabel_34
          CFI R6 load(1, XDATA, add(CFA_XSP16, literal(-10)))
          CFI VB load(1, XDATA, add(CFA_XSP16, literal(-9)))
          CFI V0 load(1, XDATA, add(CFA_XSP16, literal(-8)))
          CFI V1 load(1, XDATA, add(CFA_XSP16, literal(-7)))
          CFI R7 load(1, XDATA, add(CFA_XSP16, literal(-6)))
          CFI ?RET_LOW load(1, XDATA, add(CFA_XSP16, literal(-5)))
          CFI ?RET_HIGH load(1, XDATA, add(CFA_XSP16, literal(-4)))
          CFI ?BRET_EXT load(1, XDATA, add(CFA_XSP16, literal(-3)))
          CFI DPL0 load(1, XDATA, add(CFA_XSP16, literal(-2)))
          CFI DPH0 load(1, XDATA, add(CFA_XSP16, literal(-1)))
          CFI CFA_SP SP+-2
          CFI CFA_XSP16 add(XSP16, 25)
          CFI Block cfiCond296 Using cfiCommon0
          CFI (cfiCond296) Function bdb_getRespondentRetry
          CFI (cfiCond296) Conditional ??CrossCallReturnLabel_35
          CFI (cfiCond296) DPL0 Frame(CFA_SP, 4)
          CFI (cfiCond296) DPH0 Frame(CFA_SP, 5)
          CFI (cfiCond296) CFA_SP SP+-7
          CFI Block cfiPicker297 Using cfiCommon1
          CFI (cfiPicker297) NoFunction
          CFI (cfiPicker297) Picker
        LCALL     ?Subroutine35 & 0xFFFF
??CrossCallReturnLabel_41:
        MOVX      A,@DPTR
        RET
          CFI EndBlock cfiCond295
          CFI EndBlock cfiCond296
          CFI EndBlock cfiPicker297

        RSEG BANKED_CODE:HUGECODE:NOROOT(0)
?Subroutine35:
          CFI Block cfiCond298 Using cfiCommon0
          CFI Function bdb_ZclIdentifyQueryCmdInd
          CFI Conditional ??CrossCallReturnLabel_40
          CFI R6 load(1, XDATA, add(CFA_XSP16, literal(-10)))
          CFI VB load(1, XDATA, add(CFA_XSP16, literal(-9)))
          CFI V0 load(1, XDATA, add(CFA_XSP16, literal(-8)))
          CFI V1 load(1, XDATA, add(CFA_XSP16, literal(-7)))
          CFI R7 load(1, XDATA, add(CFA_XSP16, literal(-6)))
          CFI ?RET_LOW load(1, XDATA, add(CFA_XSP16, literal(-5)))
          CFI ?RET_HIGH load(1, XDATA, add(CFA_XSP16, literal(-4)))
          CFI ?BRET_EXT load(1, XDATA, add(CFA_XSP16, literal(-3)))
          CFI DPL0 load(1, XDATA, add(CFA_XSP16, literal(-2)))
          CFI DPH0 load(1, XDATA, add(CFA_XSP16, literal(-1)))
          CFI CFA_SP SP+-2
          CFI CFA_XSP16 add(XSP16, 10)
          CFI Block cfiCond299 Using cfiCommon0
          CFI (cfiCond299) Function bdb_ProcessIEEEAddrRsp
          CFI (cfiCond299) Conditional ??CrossCallReturnLabel_41, ??CrossCallReturnLabel_34
          CFI (cfiCond299) R6 load(1, XDATA, add(CFA_XSP16, literal(-10)))
          CFI (cfiCond299) VB load(1, XDATA, add(CFA_XSP16, literal(-9)))
          CFI (cfiCond299) V0 load(1, XDATA, add(CFA_XSP16, literal(-8)))
          CFI (cfiCond299) V1 load(1, XDATA, add(CFA_XSP16, literal(-7)))
          CFI (cfiCond299) R7 load(1, XDATA, add(CFA_XSP16, literal(-6)))
          CFI (cfiCond299) ?RET_LOW load(1, XDATA, add(CFA_XSP16, literal(-5)))
          CFI (cfiCond299) ?RET_HIGH load(1, XDATA, add(CFA_XSP16, literal(-4)))
          CFI (cfiCond299) ?BRET_EXT load(1, XDATA, add(CFA_XSP16, literal(-3)))
          CFI (cfiCond299) DPL0 load(1, XDATA, add(CFA_XSP16, literal(-2)))
          CFI (cfiCond299) DPH0 load(1, XDATA, add(CFA_XSP16, literal(-1)))
          CFI (cfiCond299) CFA_SP SP+-4
          CFI (cfiCond299) CFA_XSP16 add(XSP16, 25)
          CFI Block cfiCond300 Using cfiCommon0
          CFI (cfiCond300) Function bdb_getRespondentRetry
          CFI (cfiCond300) Conditional ??CrossCallReturnLabel_41, ??CrossCallReturnLabel_35
          CFI (cfiCond300) DPL0 Frame(CFA_SP, 4)
          CFI (cfiCond300) DPH0 Frame(CFA_SP, 5)
          CFI (cfiCond300) CFA_SP SP+-9
          CFI Block cfiPicker301 Using cfiCommon1
          CFI (cfiPicker301) NoFunction
          CFI (cfiPicker301) Picker
        ADD       A,#0xc
        MOV       DPL,A
        CLR       A
        ADDC      A,R3
        MOV       DPH,A
        RET
          CFI EndBlock cfiCond298
          CFI EndBlock cfiCond299
          CFI EndBlock cfiCond300
          CFI EndBlock cfiPicker301
// 1102 
// 1103 

        RSEG BANKED_CODE:HUGECODE:NOROOT(0)
// 1104 bdbFindingBindingRespondent_t* bdb_findRespondentNode(uint8 endpoint, uint16 shortAddress)
bdb_findRespondentNode:
          CFI Block cfiBlock302 Using cfiCommon0
          CFI Function bdb_findRespondentNode
        CODE
// 1105 {
        PUSH      DPL
          CFI DPL0 Frame(CFA_SP, 4)
          CFI CFA_SP SP+-4
        PUSH      DPH
          CFI DPH0 Frame(CFA_SP, 5)
          CFI CFA_SP SP+-5
        ; Saved register size: 2
        ; Auto size: 0
// 1106   bdbFindingBindingRespondent_t* pTemp = pRespondentHead;
        MOV       DPTR,#pRespondentHead
        SJMP      ??bdb_findRespondentNode_0
// 1107   
// 1108   while(pTemp != NULL)  
// 1109   {
// 1110     if((pTemp->data.addr.shortAddr == shortAddress) && (pTemp->data.endPoint == endpoint))
// 1111     {
// 1112       return pTemp;
// 1113     }
// 1114     
// 1115     pTemp = pTemp->pNext;
??bdb_findRespondentNode_1:
        MOV       A,R4
        ADD       A,#0xf
        MOV       DPL,A
        CLR       A
        ADDC      A,R5
        MOV       DPH,A
??bdb_findRespondentNode_0:
        MOVX      A,@DPTR
        MOV       R4,A
        INC       DPTR
        MOVX      A,@DPTR
        MOV       R5,A
        MOV       A,R4
        ORL       A,R5
        JZ        ??bdb_findRespondentNode_2
        MOV       DPL,R4
        MOV       DPH,R5
        MOVX      A,@DPTR
        XRL       A,R2
        JNZ       ??bdb_findRespondentNode_3
        INC       DPTR
        MOVX      A,@DPTR
        XRL       A,R3
??bdb_findRespondentNode_3:
        JNZ       ??bdb_findRespondentNode_1
        MOV       DPL,R4
        MOV       DPH,R5
        INC       DPTR
        INC       DPTR
        INC       DPTR
        INC       DPTR
        INC       DPTR
        INC       DPTR
        INC       DPTR
        INC       DPTR
        INC       DPTR
        MOVX      A,@DPTR
        XRL       A,R1
        JNZ       ??bdb_findRespondentNode_1
        MOV       A,R4
        MOV       R2,A
        MOV       A,R5
        MOV       R3,A
        SJMP      ??bdb_findRespondentNode_4
// 1116   }
// 1117   
// 1118   return NULL;
??bdb_findRespondentNode_2:
        MOV       R2,#0x0
        MOV       R3,#0x0
??bdb_findRespondentNode_4:
        LJMP      ??Subroutine37_0 & 0xFFFF
// 1119 }
          CFI EndBlock cfiBlock302

        RSEG XDATA_ID:CODE:NOROOT(0)
`?<Initializer for grpName>`:
        DATA8
        DB 71
        DB 114
        DB 111
        DB 117
        DB 112
        DB 0

        RSEG XDATA_ID:CODE:NOROOT(0)
`?<Initializer for bdbIndentifyActiveEndpoint>`:
        DATA8
        DB 255

        RSEG XDATA_ROM_C:CONST:REORDER:NOROOT(0)
        DATA32
__Constant_3e7:
        DD 999

        RSEG XDATA_ROM_C:CONST:REORDER:NOROOT(0)
        DATA32
__Constant_3e8:
        DD 1000

        RSEG XDATA_ROM_C:CONST:REORDER:NOROOT(0)
        DATA32
__Constant_2710:
        DD 10000

        RSEG XDATA_ROM_C:CONST:REORDER:NOROOT(0)
        DATA32
__Constant_3:
        DD 3

        RSEG BANK_RELAYS:CODE:REORDER:NOROOT(0)
`??bdb_SetIdentifyActiveEndpoint::?relay`:
        CODE
        LCALL   ?BDISPATCH
        DATA24
        DC24    bdb_SetIdentifyActiveEndpoint

        RSEG BANK_RELAYS:CODE:REORDER:NOROOT(0)
`??bdb_setEpDescListToActiveEndpoint::?relay`:
        CODE
        LCALL   ?BDISPATCH
        DATA24
        DC24    bdb_setEpDescListToActiveEndpoint

        RSEG BANK_RELAYS:CODE:REORDER:NOROOT(0)
`??bdb_ProcessIEEEAddrRsp::?relay`:
        CODE
        LCALL   ?BDISPATCH
        DATA24
        DC24    bdb_ProcessIEEEAddrRsp

        RSEG BANK_RELAYS:CODE:REORDER:NOROOT(0)
`??bdb_StopInitiatorFindingBinding::?relay`:
        CODE
        LCALL   ?BDISPATCH
        DATA24
        DC24    bdb_StopInitiatorFindingBinding

        RSEG BANK_RELAYS:CODE:REORDER:NOROOT(0)
`??bdb_checkMatchingEndpoints::?relay`:
        CODE
        LCALL   ?BDISPATCH
        DATA24
        DC24    bdb_checkMatchingEndpoints

        RSEG BANK_RELAYS:CODE:REORDER:NOROOT(0)
`??bdb_ProcessSimpleDesc::?relay`:
        CODE
        LCALL   ?BDISPATCH
        DATA24
        DC24    bdb_ProcessSimpleDesc

        RSEG BANK_RELAYS:CODE:REORDER:NOROOT(0)
`??bdb_zclFindingBindingEpType::?relay`:
        CODE
        LCALL   ?BDISPATCH
        DATA24
        DC24    bdb_zclFindingBindingEpType

        RSEG BANK_RELAYS:CODE:REORDER:NOROOT(0)
`??bdb_zclFindingBindingAddBindEntry::?relay`:
        CODE
        LCALL   ?BDISPATCH
        DATA24
        DC24    bdb_zclFindingBindingAddBindEntry

        RSEG BANK_RELAYS:CODE:REORDER:NOROOT(0)
`??bdb_exitFindingBindingWStatus::?relay`:
        CODE
        LCALL   ?BDISPATCH
        DATA24
        DC24    bdb_exitFindingBindingWStatus

        RSEG BANK_RELAYS:CODE:REORDER:NOROOT(0)
`??bdb_zclSimpleDescClusterListClean::?relay`:
        CODE
        LCALL   ?BDISPATCH
        DATA24
        DC24    bdb_zclSimpleDescClusterListClean

        RSEG BANK_RELAYS:CODE:REORDER:NOROOT(0)
`??bdb_RegisterIdentifyTimeChangeCB::?relay`:
        CODE
        LCALL   ?BDISPATCH
        DATA24
        DC24    bdb_RegisterIdentifyTimeChangeCB

        RSEG BANK_RELAYS:CODE:REORDER:NOROOT(0)
`??bdb_GetFBInitiatorStatus::?relay`:
        CODE
        LCALL   ?BDISPATCH
        DATA24
        DC24    bdb_GetFBInitiatorStatus

        RSEG BANK_RELAYS:CODE:REORDER:NOROOT(0)
`??bdb_RegisterBindNotificationCB::?relay`:
        CODE
        LCALL   ?BDISPATCH
        DATA24
        DC24    bdb_RegisterBindNotificationCB

        RSEG BANK_RELAYS:CODE:REORDER:NOROOT(0)
`??bdb_SendIdentifyQuery::?relay`:
        CODE
        LCALL   ?BDISPATCH
        DATA24
        DC24    bdb_SendIdentifyQuery

        RSEG BANK_RELAYS:CODE:REORDER:NOROOT(0)
`??bdb_ZclIdentifyQueryCmdInd::?relay`:
        CODE
        LCALL   ?BDISPATCH
        DATA24
        DC24    bdb_ZclIdentifyQueryCmdInd

        RSEG BANK_RELAYS:CODE:REORDER:NOROOT(0)
`??bdb_ProcessRespondentList::?relay`:
        CODE
        LCALL   ?BDISPATCH
        DATA24
        DC24    bdb_ProcessRespondentList

        RSEG BANK_RELAYS:CODE:REORDER:NOROOT(0)
`??bdb_FindIfAppCluster::?relay`:
        CODE
        LCALL   ?BDISPATCH
        DATA24
        DC24    bdb_FindIfAppCluster

        RSEG BANK_RELAYS:CODE:REORDER:NOROOT(0)
`??bdb_getRespondentRetry::?relay`:
        CODE
        LCALL   ?BDISPATCH
        DATA24
        DC24    bdb_getRespondentRetry

        RSEG BANK_RELAYS:CODE:REORDER:NOROOT(0)
`??bdb_findRespondentNode::?relay`:
        CODE
        LCALL   ?BDISPATCH
        DATA24
        DC24    bdb_findRespondentNode

        END
// 1120 
// 1121 #endif  
// 1122 
// 1123 /*********************************************************************
// 1124 *********************************************************************/
// 
// 2 730 bytes in segment BANKED_CODE
//   114 bytes in segment BANK_RELAYS
//     7 bytes in segment XDATA_I
//     7 bytes in segment XDATA_ID
//   171 bytes in segment XDATA_ROM_C
//    16 bytes in segment XDATA_Z
// 
//   121 bytes of CODE     memory
//   155 bytes of CONST    memory (+ 16 bytes shared)
// 2 730 bytes of HUGECODE memory
//    23 bytes of XDATA    memory
//
//Errors: none
//Warnings: none
